

HI-TECH Software PICC-18 Macro Assembler V9.51PL3
                                                       Wed Mar 20 08:54:38 2013


     1                           	processor	18F46K20
     2                           	opt	pw 80
     3                           	psect	text,global,reloc=2,class=CODE,delta=1
     4                           	psect	bigbss,global,class=BIGRAM,space=1,delta=
      +                          1
     5                           	psect	bss,global,class=RAM,space=1,delta=1
     6                           	psect	temp,global,ovrld,common,class=COMRAM,spa
      +                          ce=1,delta=1
     7                           	psect	intsave_regs,global,class=BIGRAM,space=1,
      +                          delta=1
     8  000000                     
     9  000000                     
    10  000000                     
    11  000000                     
    12  000000                     
    13  000000                     
    14  000000                     
    15  000000                     
    16  000000                     
    17  000000                     
    18  000000                     
    19  000000                     
    20  000000                     
    21  000000                     
    22  000000                     
    23  000000                     
    24  000000                     
    25  000000                     
    26  000000                     
    27  000000                     
    28  000000                     
    29  000000                     
    30  000000                     
    31  000000                     
    32  000000                     
    33  000000                     
    34  000000                     
    35  000000                     
    36  000000                     
    37  000000                     
    38  000000                     
    39  000000                     
    40  000000                     
    41  000000                     
    42  000000                     
    43  000000                     
    44  000000                     
    45  000000                     
    46  000000                     
    47  000000                     
    48  000000                     
    49  000000                     
    50  000000                     
    51  000000                     
    52  000000                     
    53  000000                     
    54  000000                     
    55  000000                     
    56  000000                     
    57  000000                     
    58  000000                     
    59  000000                     
    60  000000                     
    61  000000                     
    62  000000                     
    63  000000                     
    64  000000                     
    65  000000                     
    66  000000                     
    67  000000                     
    68  000000                     
    69  000000                     
    70  000000                     
    71  000000                     
    72  000000                     
    73  000000                     
    74  000000                     
    75  000000                     
    76  000000                     
    77  000000                     
    78  000000                     
    79  000000                     
    80  000000                     
    81  000000                     
    82  000000                     
    83  000000                     
    84  000000                     
    85  000000                     
    86  000000                     
    87  000000                     
    88  000000                     
    89  000000                     
    90  000000                     
    91  000000                     
    92  000000                     
    93  000000                     
    94  000000                     
    95  000000                     
    96  000000                     
    97                           
    98                           	psect	text
    99                           ;pic18f45k20.h: 20: static volatile near unsigne
      +                          d char TOSU @ 0xFFF;
   100                           ;pic18f45k20.h: 21: static volatile near unsigne
      +                          d char TOSH @ 0xFFE;
   101                           ;pic18f45k20.h: 22: static volatile near unsigne
      +                          d char TOSL @ 0xFFD;
   102                           ;pic18f45k20.h: 23: static volatile near unsigne
      +                          d char STKPTR @ 0xFFC;
   103                           ;pic18f45k20.h: 24: static volatile near unsigne
      +                          d char PCLATU @ 0xFFB;
   104                           ;pic18f45k20.h: 25: static volatile near unsigne
      +                          d char PCLATH @ 0xFFA;
   105                           ;pic18f45k20.h: 26: static volatile near unsigne
      +                          d char PCL @ 0xFF9;
   106                           ;pic18f45k20.h: 27: static volatile far unsigned
      +                           char * TBLPTR @ 0xFF6;
   107                           ;pic18f45k20.h: 28: static volatile near unsigne
      +                          d char TBLPTRU @ 0xFF8;
   108                           ;pic18f45k20.h: 29: static volatile near unsigne
      +                          d char TBLPTRH @ 0xFF7;
   109                           ;pic18f45k20.h: 30: static volatile near unsigne
      +                          d char TBLPTRL @ 0xFF6;
   110                           ;pic18f45k20.h: 31: static volatile near unsigne
      +                          d char TABLAT @ 0xFF5;
   111                           ;pic18f45k20.h: 32: static volatile near unsigne
      +                          d char PRODH @ 0xFF4;
   112                           ;pic18f45k20.h: 33: static volatile near unsigne
      +                          d char PRODL @ 0xFF3;
   113                           ;pic18f45k20.h: 34: static volatile near unsigne
      +                          d char INTCON @ 0xFF2;
   114                           ;pic18f45k20.h: 35: static near unsigned char IN
      +                          TCON2 @ 0xFF1;
   115                           ;pic18f45k20.h: 36: static volatile near unsigne
      +                          d char INTCON3 @ 0xFF0;
   116                           ;pic18f45k20.h: 37: static volatile near unsigne
      +                          d char INDF0 @ 0xFEF;
   117                           ;pic18f45k20.h: 38: static volatile near unsigne
      +                          d char POSTINC0 @ 0xFEE;
   118                           ;pic18f45k20.h: 39: static volatile near unsigne
      +                          d char POSTDEC0 @ 0xFED;
   119                           ;pic18f45k20.h: 40: static volatile near unsigne
      +                          d char PREINC0 @ 0xFEC;
   120                           ;pic18f45k20.h: 41: static volatile near unsigne
      +                          d char PLUSW0 @ 0xFEB;
   121                           ;pic18f45k20.h: 42: static volatile near unsigne
      +                          d char FSR0H @ 0xFEA;
   122                           ;pic18f45k20.h: 43: static volatile near unsigne
      +                          d char FSR0L @ 0xFE9;
   123                           ;pic18f45k20.h: 44: static volatile near unsigne
      +                          d char WREG @ 0xFE8;
   124                           ;pic18f45k20.h: 45: static volatile near unsigne
      +                          d char INDF1 @ 0xFE7;
   125                           ;pic18f45k20.h: 46: static volatile near unsigne
      +                          d char POSTINC1 @ 0xFE6;
   126                           ;pic18f45k20.h: 47: static volatile near unsigne
      +                          d char POSTDEC1 @ 0xFE5;
   127                           ;pic18f45k20.h: 48: static volatile near unsigne
      +                          d char PREINC1 @ 0xFE4;
   128                           ;pic18f45k20.h: 49: static volatile near unsigne
      +                          d char PLUSW1 @ 0xFE3;
   129                           ;pic18f45k20.h: 50: static volatile near unsigne
      +                          d char FSR1H @ 0xFE2;
   130                           ;pic18f45k20.h: 51: static volatile near unsigne
      +                          d char FSR1L @ 0xFE1;
   131                           ;pic18f45k20.h: 52: static near unsigned char BS
      +                          R @ 0xFE0;
   132                           ;pic18f45k20.h: 53: static volatile near unsigne
      +                          d char INDF2 @ 0xFDF;
   133                           ;pic18f45k20.h: 54: static volatile near unsigne
      +                          d char POSTINC2 @ 0xFDE;
   134                           ;pic18f45k20.h: 55: static volatile near unsigne
      +                          d char POSTDEC2 @ 0xFDD;
   135                           ;pic18f45k20.h: 56: static volatile near unsigne
      +                          d char PREINC2 @ 0xFDC;
   136                           ;pic18f45k20.h: 57: static volatile near unsigne
      +                          d char PLUSW2 @ 0xFDB;
   137                           ;pic18f45k20.h: 58: static volatile near unsigne
      +                          d char FSR2H @ 0xFDA;
   138                           ;pic18f45k20.h: 59: static volatile near unsigne
      +                          d char FSR2L @ 0xFD9;
   139                           ;pic18f45k20.h: 60: static volatile near unsigne
      +                          d char STATUS @ 0xFD8;
   140                           ;pic18f45k20.h: 61: static volatile near unsigne
      +                          d char TMR0H @ 0xFD7;
   141                           ;pic18f45k20.h: 62: static volatile near unsigne
      +                          d char TMR0L @ 0xFD6;
   142                           ;pic18f45k20.h: 64: static volatile near unsigne
      +                          d int TMR0 @ 0xFD6;
   143                           ;pic18f45k20.h: 65: static near unsigned char T0
      +                          CON @ 0xFD5;
   144                           ;pic18f45k20.h: 66: static volatile near unsigne
      +                          d char OSCCON @ 0xFD3;
   145                           ;pic18f45k20.h: 67: static volatile near unsigne
      +                          d char HLVDCON @ 0xFD2;
   146                           ;pic18f45k20.h: 68: static volatile near unsigne
      +                          d char WDTCON @ 0xFD1;
   147                           ;pic18f45k20.h: 69: static volatile near unsigne
      +                          d char RCON @ 0xFD0;
   148                           ;pic18f45k20.h: 70: static volatile near unsigne
      +                          d char TMR1H @ 0xFCF;
   149                           ;pic18f45k20.h: 71: static volatile near unsigne
      +                          d char TMR1L @ 0xFCE;
   150                           ;pic18f45k20.h: 73: static volatile near unsigne
      +                          d int TMR1 @ 0xFCE;
   151                           ;pic18f45k20.h: 74: static near unsigned char T1
      +                          CON @ 0xFCD;
   152                           ;pic18f45k20.h: 75: static volatile near unsigne
      +                          d char TMR2 @ 0xFCC;
   153                           ;pic18f45k20.h: 76: static near unsigned char PR
      +                          2 @ 0xFCB;
   154                           ;pic18f45k20.h: 77: static near unsigned char T2
      +                          CON @ 0xFCA;
   155                           ;pic18f45k20.h: 78: static volatile near unsigne
      +                          d char SSPBUF @ 0xFC9;
   156                           ;pic18f45k20.h: 79: static near unsigned char SS
      +                          PADD @ 0xFC8;
   157                           ;pic18f45k20.h: 80: static volatile near unsigne
      +                          d char SSPSTAT @ 0xFC7;
   158                           ;pic18f45k20.h: 81: static volatile near unsigne
      +                          d char SSPCON1 @ 0xFC6;
   159                           ;pic18f45k20.h: 82: static volatile near unsigne
      +                          d char SSPCON2 @ 0xFC5;
   160                           ;pic18f45k20.h: 83: static volatile near unsigne
      +                          d char ADRESH @ 0xFC4;
   161                           ;pic18f45k20.h: 84: static volatile near unsigne
      +                          d char ADRESL @ 0xFC3;
   162                           ;pic18f45k20.h: 86: static volatile near unsigne
      +                          d int ADRES @ 0xFC3;
   163                           ;pic18f45k20.h: 87: static volatile near unsigne
      +                          d char ADCON0 @ 0xFC2;
   164                           ;pic18f45k20.h: 88: static near unsigned char AD
      +                          CON1 @ 0xFC1;
   165                           ;pic18f45k20.h: 89: static near unsigned char AD
      +                          CON2 @ 0xFC0;
   166                           ;pic18f45k20.h: 90: static volatile near unsigne
      +                          d char CCPR1H @ 0xFBF;
   167                           ;pic18f45k20.h: 91: static volatile near unsigne
      +                          d char CCPR1L @ 0xFBE;
   168                           ;pic18f45k20.h: 93: static volatile near unsigne
      +                          d int CCPR1 @ 0xFBE;
   169                           ;pic18f45k20.h: 94: static volatile near unsigne
      +                          d char CCP1CON @ 0xFBD;
   170                           ;pic18f45k20.h: 95: static volatile near unsigne
      +                          d char CCPR2H @ 0xFBC;
   171                           ;pic18f45k20.h: 96: static volatile near unsigne
      +                          d char CCPR2L @ 0xFBB;
   172                           ;pic18f45k20.h: 98: static volatile near unsigne
      +                          d int CCPR2 @ 0xFBB;
   173                           ;pic18f45k20.h: 99: static volatile near unsigne
      +                          d char CCP2CON @ 0xFBA;
   174                           ;pic18f45k20.h: 100: static near unsigned char P
      +                          STRCON @ 0xFB9;
   175                           ;pic18f45k20.h: 101: static volatile near unsign
      +                          ed char BAUDCTL @ 0xFB8;
   176                           ;pic18f45k20.h: 102: static volatile near unsign
      +                          ed char PWM1CON @ 0xFB7;
   177                           ;pic18f45k20.h: 103: static volatile near unsign
      +                          ed char ECCP1AS @ 0xFB6;
   178                           ;pic18f45k20.h: 104: static volatile near unsign
      +                          ed char CVRCON @ 0xFB5;
   179                           ;pic18f45k20.h: 105: static volatile near unsign
      +                          ed char CVRCON2 @ 0xFB4;
   180                           ;pic18f45k20.h: 106: static volatile near unsign
      +                          ed char TMR3H @ 0xFB3;
   181                           ;pic18f45k20.h: 107: static volatile near unsign
      +                          ed char TMR3L @ 0xFB2;
   182                           ;pic18f45k20.h: 109: static volatile near unsign
      +                          ed int TMR3 @ 0xFB2;
   183                           ;pic18f45k20.h: 110: static near unsigned char T
      +                          3CON @ 0xFB1;
   184                           ;pic18f45k20.h: 111: static near unsigned char S
      +                          PBRGH @ 0xFB0;
   185                           ;pic18f45k20.h: 112: static near unsigned char S
      +                          PBRG @ 0xFAF;
   186                           ;pic18f45k20.h: 114: static near unsigned char S
      +                          PBRG1 @ 0xFAF;
   187                           ;pic18f45k20.h: 115: static volatile near unsign
      +                          ed char RCREG @ 0xFAE;
   188                           ;pic18f45k20.h: 117: static volatile near unsign
      +                          ed char RCREG1 @ 0xFAE;
   189                           ;pic18f45k20.h: 118: static volatile near unsign
      +                          ed char TXREG @ 0xFAD;
   190                           ;pic18f45k20.h: 120: static volatile near unsign
      +                          ed char TXREG1 @ 0xFAD;
   191                           ;pic18f45k20.h: 121: static volatile near unsign
      +                          ed char TXSTA @ 0xFAC;
   192                           ;pic18f45k20.h: 123: static volatile near unsign
      +                          ed char TXSTA1 @ 0xFAC;
   193                           ;pic18f45k20.h: 124: static volatile near unsign
      +                          ed char RCSTA @ 0xFAB;
   194                           ;pic18f45k20.h: 126: static volatile near unsign
      +                          ed char RCSTA1 @ 0xFAB;
   195                           ;pic18f45k20.h: 128: static near unsigned char E
      +                          EADRH @ 0xFAA;
   196                           ;pic18f45k20.h: 130: static near unsigned char E
      +                          EADR @ 0xFA9;
   197                           ;pic18f45k20.h: 131: static volatile near unsign
      +                          ed char EEDATA @ 0xFA8;
   198                           ;pic18f45k20.h: 132: static volatile near unsign
      +                          ed char EECON2 @ 0xFA7;
   199  008316                     _InitDataPmr:
   200                           ;	_dac assigned to ?a_PomiarCS+0
   201  000000                     _PomiarCS$dac	set	?a_PomiarCS
   202                           ;	_m assigned to ?a_GetPGD_PCO+0
   203  000000                     _GetPGD_PCO$m	set	?a_GetPGD_PCO
   204  000000                     
   205                           ;pomiar.c: 39: DtCO._err_CO=0;
   206  008316  0102               	movlb	_DtCO shr (0+8)
   207  008318  910C               	bcf	_DtCO& (0+255),0,b
   208                           ;pomiar.c: 40: DtCO._su_CO=0;
   209  00831A  930C               	bcf	_DtCO& (0+255),1,b
   210                           ;pomiar.c: 41: DtCO._ad_CO=0;
   211  00831C  950C               	bcf	_DtCO& (0+255),2,b
   212                           ;pomiar.c: 42: DtCO._su_SRW_CO=0;
   213  00831E  970C               	bcf	_DtCO& (0+255),3,b
   214                           ;pomiar.c: 43: DtCO._ad_SRW_CO=0;
   215  008320  990C               	bcf	_DtCO& (0+255),4,b
   216                           ;pomiar.c: 44: DtCO._cold_CO=0;
   217  008322  950D               	bcf	(_DtCO+1)& (0+255),2,b
   218                           ;pomiar.c: 45: DtCO._hot_CO=0;
   219  008324  970D               	bcf	(_DtCO+1)& (0+255),3,b
   220                           ;pomiar.c: 46: DtCO._on_DZ_CO=0;
   221  008326  9B0C               	bcf	_DtCO& (0+255),5,b
   222                           ;pomiar.c: 47: DtCO._su_DZ_CO=0;
   223  008328  9D0C               	bcf	_DtCO& (0+255),6,b
   224                           ;pomiar.c: 48: DtCO._ad_DZ_CO=0;
   225  00832A  9F0C               	bcf	_DtCO& (0+255),7,b
   226                           ;pomiar.c: 49: DtCO._ptwp_CO=0;
   227  00832C  910D               	bcf	(_DtCO+1)& (0+255),0,b
   228                           ;pomiar.c: 50: DtCO._pz_CO=0;
   229  00832E  930D               	bcf	(_DtCO+1)& (0+255),1,b
   230                           ;pomiar.c: 51: DtCO.indCO=0;
   231  008330  6B16               	clrf	(_DtCO+10)& (0+255),b
   232                           ;pomiar.c: 53: DtCW._err_CW=0;
   233  008332  911B               	bcf	_DtCW& (0+255),0,b
   234                           ;pomiar.c: 54: DtCW._su_CW=0;
   235  008334  931B               	bcf	_DtCW& (0+255),1,b
   236                           ;pomiar.c: 55: DtCW._ad_CW=0;
   237  008336  951B               	bcf	_DtCW& (0+255),2,b
   238                           ;pomiar.c: 56: DtCW._on_DZ_CW=0;
   239  008338  991B               	bcf	_DtCW& (0+255),4,b
   240                           ;pomiar.c: 57: DtCW._su_DZ_CW=0;
   241  00833A  9B1B               	bcf	_DtCW& (0+255),5,b
   242                           ;pomiar.c: 58: DtCW._ad_DZ_CW=0;
   243  00833C  9D1B               	bcf	_DtCW& (0+255),6,b
   244                           ;pomiar.c: 59: DtCW.indCW=0;
   245  00833E  6B25               	clrf	(_DtCW+10)& (0+255),b
   246                           ;pomiar.c: 61: DtCS._hi=0;
   247  008340  9104               	bcf	_DtCS& (0+255),0,b
   248                           ;pomiar.c: 62: DtCS._lo=0;
   249  008342  9304               	bcf	_DtCS& (0+255),1,b
   250                           ;pomiar.c: 63: DtCS._no=0;
   251  008344  9504               	bcf	_DtCS& (0+255),2,b
   252                           ;pomiar.c: 64: DtCS._error=0;
   253  008346  9704               	bcf	_DtCS& (0+255),3,b
   254                           ;pomiar.c: 65: DtCS._work=1;
   255  008348  8904               	bsf	_DtCS& (0+255),4,b
   256                           ;pomiar.c: 66: }
   257  00834A  0012               	return	
   258  00834C                     __end_of_InitDataPmr:
   259                           ;pomiar.c: 69: void IncPmrTimer(void)
   260                           ;pomiar.c: 70: {
   261  00834C                     _IncPmrTimer:
   262  000000                     
   263                           ;pomiar.c: 71: if(PmrtimFlt1<0xff) PmrtimFlt1++;
   264  00834C  CEA7  F000         	movff	_PmrtimFlt1,btemp
   265  008350  2800               	incf	btemp,w,c
   266  008352  E002               	bz	l14
   267  008354  010E               	movlb	_PmrtimFlt1 shr (0+8)
   268  008356  2BA7               	incf	_PmrtimFlt1& (0+255),f,b
   269  008358                     l14:
   270                           ;pomiar.c: 72: if(PmrtimFlt2<0xff) PmrtimFlt2++;
   271  008358  CEA8  F000         	movff	_PmrtimFlt2,btemp
   272  00835C  2800               	incf	btemp,w,c
   273  00835E  E002               	bz	l15
   274  008360  010E               	movlb	_PmrtimFlt2 shr (0+8)
   275  008362  2BA8               	incf	_PmrtimFlt2& (0+255),f,b
   276  008364                     l15:
   277                           ;pomiar.c: 73: if(PmrtimFlt3<0xffff) PmrtimFlt3+
      +                          +;
   278  008364  0102               	movlb	_PmrtimFlt3 shr (0+8)
   279  008366  1D01               	comf	(_PmrtimFlt3+1)& (0+255),w,b
   280  008368  0EFF               	movlw	255
   281  00836A  B4D8               	btfsc	status,2,c
   282  00836C  1900               	xorwf	_PmrtimFlt3& (0+255),w,b
   283  00836E  B4D8               	btfsc	status,2,c
   284  008370  0012               	return	
   285  008372  4B00               	infsnz	_PmrtimFlt3& (0+255),f,b
   286  008374  2B01               	incf	(_PmrtimFlt3+1)& (0+255),f,b
   287                           ;pomiar.c: 74: }
   288  008376  0012               	return	
   289  008378                     __end_of_IncPmrTimer:
   290                           ;pomiar.c: 77: void StartTim1(void)
   291                           ;pomiar.c: 78: {
   292  008378                     _StartTim1:
   293  000000                     
   294                           ;pomiar.c: 79: PmrtimFlt1=0;
   295  008378  010E               	movlb	_PmrtimFlt1 shr (0+8)
   296  00837A  6BA7               	clrf	_PmrtimFlt1& (0+255),b
   297                           ;pomiar.c: 80: }
   298  00837C  0012               	return	
   299  00837E                     __end_of_StartTim1:
   300                           ;pomiar.c: 81: bit PmrTim1(unsigned char tm)
   301                           ;pomiar.c: 82: {
   302  00837E                     _PmrTim1:
   303  000000                     
   304                           ; _tm loaded to fsr2l
   305  00837E  6ED9               	movwf	fsr2l,c
   306                           ;pomiar.c: 83: if(PmrtimFlt1<tm) return 0;
   307  008380  50D9               	movf	fsr2l,w,c
   308  008382  010E               	movlb	_PmrtimFlt1 shr (0+8)
   309  008384  61A7               	cpfslt	_PmrtimFlt1& (0+255),b
   310  008386  D002               	goto	l19
   311  008388  90D8               	bcf	status,0,c
   312  00838A  0012               	return	
   313  00838C                     l19:
   314                           ;pomiar.c: 84: return 1;
   315  00838C  80D8               	bsf	status,0,c
   316  00838E  0012               	return	
   317                           ;pomiar.c: 85: }
   318  008390                     __end_of_PmrTim1:
   319                           ;pomiar.c: 88: void StartTim2(void)
   320                           ;pomiar.c: 89: {
   321  008390                     _StartTim2:
   322  000000                     
   323                           ;pomiar.c: 90: PmrtimFlt2=0;
   324  008390  010E               	movlb	_PmrtimFlt2 shr (0+8)
   325  008392  6BA8               	clrf	_PmrtimFlt2& (0+255),b
   326                           ;pomiar.c: 91: }
   327  008394  0012               	return	
   328  008396                     __end_of_StartTim2:
   329                           ;pomiar.c: 92: bit PmrTim2(unsigned char tm)
   330                           ;pomiar.c: 93: {
   331  008396                     _PmrTim2:
   332  000000                     
   333                           ; _tm loaded to fsr2l
   334  008396  6ED9               	movwf	fsr2l,c
   335                           ;pomiar.c: 94: if(PmrtimFlt2<tm) return 0;
   336  008398  50D9               	movf	fsr2l,w,c
   337  00839A  010E               	movlb	_PmrtimFlt2 shr (0+8)
   338  00839C  61A8               	cpfslt	_PmrtimFlt2& (0+255),b
   339  00839E  D002               	goto	l22
   340  0083A0  90D8               	bcf	status,0,c
   341  0083A2  0012               	return	
   342  0083A4                     l22:
   343                           ;pomiar.c: 95: return 1;
   344  0083A4  80D8               	bsf	status,0,c
   345  0083A6  0012               	return	
   346                           ;pomiar.c: 96: }
   347  0083A8                     __end_of_PmrTim2:
   348                           ;pomiar.c: 99: void StartTim3(void)
   349                           ;pomiar.c: 100: {
   350  0083A8                     _StartTim3:
   351  000000                     
   352                           ;pomiar.c: 101: PmrtimFlt3=0;
   353  0083A8  EE02  F000         	lfsr	0,_PmrtimFlt3
   354  0083AC  6AEE               	clrf	postinc0,c
   355  0083AE  6AEE               	clrf	postinc0,c
   356                           ;pomiar.c: 102: }
   357  0083B0  0012               	return	
   358  0083B2                     __end_of_StartTim3:
   359                           ;       param _tm assigned to ?_PmrTim3+0
   360  000000                     _PmrTim3$tm	set	?_PmrTim3
   361                           ;pomiar.c: 103: bit PmrTim3(unsigned int tm)
   362                           ;pomiar.c: 104: {
   363  0083B2  00D7               	dw	?_PmrTim3
   364  0083B4                     _PmrTim3:
   365  000000                     
   366                           ;pomiar.c: 105: if(PmrtimFlt3<tm) return 0;
   367  0083B4  C200  F000         	movff	_PmrtimFlt3,btemp
   368  0083B8  C201  F001         	movff	_PmrtimFlt3+1,btemp+1
   369  0083BC  0100               	movlb	__Lparam shr (0+8)
   370  0083BE  51D8               	movf	(?_PmrTim3+1)^(__Lparam& (0+65280)),w
   371  0083C0  5C01               	subwf	btemp+1,w,c
   372  0083C2  E102               	bnz	u65
   373  0083C4  51D7               	movf	?_PmrTim3^(__Lparam& (0+65280)),w
   374  0083C6  5C00               	subwf	btemp,w,c
   375  0083C8                     u65:
   376  0083C8  E202               	bc	l25
   377  0083CA  90D8               	bcf	status,0,c
   378  0083CC  0012               	return	
   379  0083CE                     l25:
   380                           ;pomiar.c: 106: return 1;
   381  0083CE  80D8               	bsf	status,0,c
   382  0083D0  0012               	return	
   383                           ;pomiar.c: 107: }
   384  0083D2                     __end_of_PmrTim3:
   385                           ;pomiar.c: 110: void GoldenEye(void)
   386                           ;pomiar.c: 111: {
   387  0083D2                     _GoldenEye:
   388  000000                     
   389                           ;pomiar.c: 112: signed char dt;
   390  0083D2  C20E  FFE8         	movff	_DtCO+2,wreg
   391  0083D6  0102               	movlb	(_DtCO+4) shr (0+8)
   392  0083D8  5D10               	subwf	(_DtCO+4)& (0+255),w,b
   393  0083DA  6EE1               	movwf	fsr1l,c
   394                           ;pomiar.c: 117: if((DtCO.CO>=(DtCO.PPCO+8))||(Dt
      +                          CO.CO<=(DtCO.PPCO-8))) DtCO.SCO=DtCO.CO;
   395  0083DC  0E08               	movlw	8
   396  0083DE  C210  F002         	movff	_DtCO+4,btemp+2
   397  0083E2  6A03               	clrf	btemp+3,c
   398  0083E4  2602               	addwf	btemp+2,f,c
   399  0083E6  0E00               	movlw	0
   400  0083E8  2203               	addwfc	btemp+3,f,c
   401  0083EA  C20E  F000         	movff	_DtCO+2,btemp
   402  0083EE  6A01               	clrf	btemp+1,c
   403  0083F0  5001               	movf	btemp+1,w,c
   404  0083F2  0A80               	xorlw	128
   405  0083F4  6E04               	movwf	btemp+4,c
   406  0083F6  5003               	movf	btemp+3,w,c
   407  0083F8  0A80               	xorlw	128
   408  0083FA  5C04               	subwf	btemp+4,w,c
   409  0083FC  E102               	bnz	u75
   410  0083FE  5002               	movf	btemp+2,w,c
   411  008400  5C00               	subwf	btemp,w,c
   412  008402                     u75:
   413  008402  E215               	bc	u90
   414  008404  C20E  F000         	movff	_DtCO+2,btemp
   415  008408  6A01               	clrf	btemp+1,c
   416  00840A  C210  F002         	movff	_DtCO+4,btemp+2
   417  00840E  0EF8               	movlw	248
   418  008410  2402               	addwf	btemp+2,w,c
   419  008412  6EF6               	movwf	tblptrl,c
   420  008414  6AF7               	clrf	tblptrh,c
   421  008416  0EFF               	movlw	255
   422  008418  22F7               	addwfc	tblptrh,f,c
   423  00841A  50F7               	movf	tblptrh,w,c
   424  00841C  0A80               	xorlw	128
   425  00841E  6E02               	movwf	btemp+2,c
   426  008420  5001               	movf	btemp+1,w,c
   427  008422  0A80               	xorlw	128
   428  008424  5C02               	subwf	btemp+2,w,c
   429  008426  E102               	bnz	u85
   430  008428  5000               	movf	btemp,w,c
   431  00842A  5CF6               	subwf	tblptrl,w,c
   432  00842C                     u85:
   433  00842C  E303               	bnc	l27
   434  00842E                     u90:
   435  00842E  C20E  F217         	movff	_DtCO+2,_DtCO+11
   436  008432  D068               	goto	l28
   437  008434                     l27:
   438                           ;pomiar.c: 118: else
   439  008434  BEE1               	btfsc	fsr1l,7,c
   440  008436  D01A               	goto	l29
   441                           ;pomiar.c: 121: {
   442  008438  50E1               	movf	fsr1l,w,c
   443  00843A  0A80               	xorlw	128
   444  00843C  0F7F               	addlw	-129
   445  00843E  50E1               	movf	fsr1l,w,c
   446  008440  E201               	bc	L37
   447  008442  D00F               	goto	L18
   448                           ;pomiar.c: 123: else
   449  008444                     L37:
   450  008444  0A80               	xorlw	128
   451  008446  0F7F               	addlw	-129
   452  008448  E306               	bnc	l32
   453  00844A  50E1               	movf	fsr1l,w,c
   454  00844C  0A80               	xorlw	128
   455  00844E  0F78               	addlw	-136
   456  008450  E202               	bc	l32
   457  008452  0E01               	movlw	1
   458  008454  D006               	goto	L18
   459  008456                     l32:
   460                           ;pomiar.c: 125: else
   461  008456  50E1               	movf	fsr1l,w,c
   462  008458  0A80               	xorlw	128
   463  00845A  0F78               	addlw	-136
   464  00845C  E303               	bnc	l31
   465  00845E  50E1               	movf	fsr1l,w,c
   466  008460  0808               	sublw	8
   467  008462                     L18:
   468  008462  6ED9               	movwf	fsr2l,c
   469  008464                     l31:
   470                           ;pomiar.c: 127: DtCO.SCO=DtCO.CO+pop;
   471  008464  50D9               	movf	fsr2l,w,c
   472  008466  0102               	movlb	(_DtCO+2) shr (0+8)
   473  008468  250E               	addwf	(_DtCO+2)& (0+255),w,b
   474  00846A  D04A               	goto	L19
   475                           ;pomiar.c: 128: }
   476  00846C                     l29:
   477                           ;pomiar.c: 129: else
   478  00846C  CFE1 F000          	movff	fsr1l,btemp
   479  008470  6A01               	clrf	btemp+1,c
   480  008472  BE00               	btfsc	btemp,7,c
   481  008474  0601               	decf	btemp+1,f,c
   482  008476  1E00               	comf	btemp,f,c
   483  008478  1E01               	comf	btemp+1,f,c
   484  00847A  4A00               	infsnz	btemp,f,c
   485  00847C  2A01               	incf	btemp+1,f,c
   486  00847E  5001               	movf	btemp+1,w,c
   487  008480  0A80               	xorlw	128
   488  008482  0F80               	addlw	-128
   489  008484  0E01               	movlw	1
   490  008486  B4D8               	btfsc	status,2,c
   491  008488  5C00               	subwf	btemp,w,c
   492  00848A  E202               	bc	l36
   493  00848C  28E1               	incf	fsr1l,w,c
   494  00848E  D034               	goto	L20
   495  008490                     l36:
   496                           ;pomiar.c: 132: else
   497  008490  CFE1 F000          	movff	fsr1l,btemp
   498  008494  6A01               	clrf	btemp+1,c
   499  008496  BE00               	btfsc	btemp,7,c
   500  008498  0601               	decf	btemp+1,f,c
   501  00849A  1E00               	comf	btemp,f,c
   502  00849C  1E01               	comf	btemp+1,f,c
   503  00849E  4A00               	infsnz	btemp,f,c
   504  0084A0  2A01               	incf	btemp+1,f,c
   505  0084A2  5001               	movf	btemp+1,w,c
   506  0084A4  0A80               	xorlw	128
   507  0084A6  0F80               	addlw	-128
   508  0084A8  0E01               	movlw	1
   509  0084AA  B4D8               	btfsc	status,2,c
   510  0084AC  5C00               	subwf	btemp,w,c
   511  0084AE  E312               	bnc	l38
   512  0084B0  CFE1 F000          	movff	fsr1l,btemp
   513  0084B4  6A01               	clrf	btemp+1,c
   514  0084B6  BE00               	btfsc	btemp,7,c
   515  0084B8  0601               	decf	btemp+1,f,c
   516  0084BA  1E00               	comf	btemp,f,c
   517  0084BC  1E01               	comf	btemp+1,f,c
   518  0084BE  4A00               	infsnz	btemp,f,c
   519  0084C0  2A01               	incf	btemp+1,f,c
   520  0084C2  5001               	movf	btemp+1,w,c
   521  0084C4  0A80               	xorlw	128
   522  0084C6  0F80               	addlw	-128
   523  0084C8  0E08               	movlw	8
   524  0084CA  B4D8               	btfsc	status,2,c
   525  0084CC  5C00               	subwf	btemp,w,c
   526  0084CE  E202               	bc	l38
   527  0084D0  0E01               	movlw	1
   528  0084D2  D012               	goto	L20
   529  0084D4                     l38:
   530                           ;pomiar.c: 134: else
   531  0084D4  CFE1 F000          	movff	fsr1l,btemp
   532  0084D8  6A01               	clrf	btemp+1,c
   533  0084DA  BE00               	btfsc	btemp,7,c
   534  0084DC  0601               	decf	btemp+1,f,c
   535  0084DE  1E00               	comf	btemp,f,c
   536  0084E0  1E01               	comf	btemp+1,f,c
   537  0084E2  4A00               	infsnz	btemp,f,c
   538  0084E4  2A01               	incf	btemp+1,f,c
   539  0084E6  5001               	movf	btemp+1,w,c
   540  0084E8  0A80               	xorlw	128
   541  0084EA  0F80               	addlw	-128
   542  0084EC  0E08               	movlw	8
   543  0084EE  B4D8               	btfsc	status,2,c
   544  0084F0  5C00               	subwf	btemp,w,c
   545  0084F2  E303               	bnc	l37
   546  0084F4  50E1               	movf	fsr1l,w,c
   547  0084F6  0F08               	addlw	8
   548  0084F8                     L20:
   549  0084F8  6ED9               	movwf	fsr2l,c
   550  0084FA                     l37:
   551                           ;pomiar.c: 136: DtCO.SCO=DtCO.CO-pop;
   552  0084FA  50D9               	movf	fsr2l,w,c
   553  0084FC  0102               	movlb	(_DtCO+2) shr (0+8)
   554  0084FE  5D0E               	subwf	(_DtCO+2)& (0+255),w,b
   555  008500                     L19:
   556  008500  CFE8 F217          	movff	wreg,_DtCO+11
   557  008504                     l28:
   558                           ;pomiar.c: 137: }
   559  008504  C217  F160         	movff	_DtCO+11,_PFN+9
   560                           ;pomiar.c: 142: if(DtKNF.tpkt!=0)
   561  008508  EE10  F08B         	lfsr	1,_DtKNF+7
   562  00850C  50E7               	movf	indf1,w,c
   563  00850E  E101 D130          	bz	l41
   564                           ;pomiar.c: 143: {
   565  008512  C08B  F000         	movff	_DtKNF+7,btemp
   566  008516  0400               	decf	btemp,w,c
   567  008518  E001 D097          	bnz	l42
   568                           ;pomiar.c: 145: {
   569  00851C  C21D  FFE8         	movff	_DtCW+2,wreg
   570  008520  0102               	movlb	(_DtCW+4) shr (0+8)
   571  008522  5D1F               	subwf	(_DtCW+4)& (0+255),w,b
   572  008524  6EE1               	movwf	fsr1l,c
   573                           ;pomiar.c: 147: if((DtCW.CW>=(DtCW.PPCW+11))||(D
      +                          tCW.CW<=(DtCW.PPCW-11))) DtCW.SCW=DtCW.CW;
   574  008526  0E0B               	movlw	11
   575  008528  C21F  F002         	movff	_DtCW+4,btemp+2
   576  00852C  6A03               	clrf	btemp+3,c
   577  00852E  2602               	addwf	btemp+2,f,c
   578  008530  0E00               	movlw	0
   579  008532  2203               	addwfc	btemp+3,f,c
   580  008534  C21D  F000         	movff	_DtCW+2,btemp
   581  008538  6A01               	clrf	btemp+1,c
   582  00853A  5001               	movf	btemp+1,w,c
   583  00853C  0A80               	xorlw	128
   584  00853E  6E04               	movwf	btemp+4,c
   585  008540  5003               	movf	btemp+3,w,c
   586  008542  0A80               	xorlw	128
   587  008544  5C04               	subwf	btemp+4,w,c
   588  008546  E102               	bnz	u235
   589  008548  5002               	movf	btemp+2,w,c
   590  00854A  5C00               	subwf	btemp,w,c
   591  00854C                     u235:
   592  00854C  E301 D111          	bc	l41
   593  008550  C21D  F000         	movff	_DtCW+2,btemp
   594  008554  6A01               	clrf	btemp+1,c
   595  008556  C21F  F002         	movff	_DtCW+4,btemp+2
   596  00855A  0EF5               	movlw	245
   597  00855C  2402               	addwf	btemp+2,w,c
   598  00855E  6EF6               	movwf	tblptrl,c
   599  008560  6AF7               	clrf	tblptrh,c
   600  008562  0EFF               	movlw	255
   601  008564  22F7               	addwfc	tblptrh,f,c
   602  008566  50F7               	movf	tblptrh,w,c
   603  008568  0A80               	xorlw	128
   604  00856A  6E02               	movwf	btemp+2,c
   605  00856C  5001               	movf	btemp+1,w,c
   606  00856E  0A80               	xorlw	128
   607  008570  5C02               	subwf	btemp+2,w,c
   608  008572  E102               	bnz	u245
   609  008574  5000               	movf	btemp,w,c
   610  008576  5CF6               	subwf	tblptrl,w,c
   611  008578                     u245:
   612  008578  E301 D0FB          	bc	l41
   613                           ;pomiar.c: 148: else
   614  00857C  BEE1               	btfsc	fsr1l,7,c
   615  00857E  D01C               	goto	l45
   616                           ;pomiar.c: 151: {
   617  008580  50E1               	movf	fsr1l,w,c
   618  008582  0A80               	xorlw	128
   619  008584  0F7D               	addlw	-131
   620  008586  E201 D094          	bnc	L32
   621                           ;pomiar.c: 153: else
   622  00858A  50E1               	movf	fsr1l,w,c
   623  00858C  0A80               	xorlw	128
   624  00858E  0F7D               	addlw	-131
   625  008590  E306               	bnc	l48
   626  008592  50E1               	movf	fsr1l,w,c
   627  008594  0A80               	xorlw	128
   628  008596  0F77               	addlw	-137
   629  008598  E202               	bc	l48
   630  00859A  0E03               	movlw	3
   631  00859C  D006               	goto	L21
   632  00859E                     l48:
   633                           ;pomiar.c: 155: else
   634  00859E  50E1               	movf	fsr1l,w,c
   635  0085A0  0A80               	xorlw	128
   636  0085A2  0F77               	addlw	-137
   637  0085A4  E303               	bnc	l62
   638  0085A6  50E1               	movf	fsr1l,w,c
   639  0085A8  080B               	sublw	11
   640  0085AA                     L21:
   641  0085AA  6ED9               	movwf	fsr2l,c
   642  0085AC                     l62:
   643                           ;pomiar.c: 183: DtCW.SCW=DtCW.CW+pop;
   644  0085AC  50D9               	movf	fsr2l,w,c
   645  0085AE  0102               	movlb	(_DtCW+2) shr (0+8)
   646  0085B0  251D               	addwf	(_DtCW+2)& (0+255),w,b
   647                           ;pomiar.c: 157: DtCW.SCW=DtCW.CW+pop;
   648  0085B2                     L22:
   649  0085B2  CFE8 F226          	movff	wreg,_DtCW+11
   650                           ;pomiar.c: 158: }
   651  0085B6  D0DF               	goto	l72
   652  0085B8                     l45:
   653                           ;pomiar.c: 159: else
   654  0085B8  CFE1 F000          	movff	fsr1l,btemp
   655  0085BC  6A01               	clrf	btemp+1,c
   656  0085BE  BE00               	btfsc	btemp,7,c
   657  0085C0  0601               	decf	btemp+1,f,c
   658  0085C2  1E00               	comf	btemp,f,c
   659  0085C4  1E01               	comf	btemp+1,f,c
   660  0085C6  4A00               	infsnz	btemp,f,c
   661  0085C8  2A01               	incf	btemp+1,f,c
   662  0085CA  5001               	movf	btemp+1,w,c
   663  0085CC  0A80               	xorlw	128
   664  0085CE  0F80               	addlw	-128
   665  0085D0  0E03               	movlw	3
   666  0085D2  B4D8               	btfsc	status,2,c
   667  0085D4  5C00               	subwf	btemp,w,c
   668  0085D6  E203               	bc	l52
   669  0085D8  50E1               	movf	fsr1l,w,c
   670  0085DA  0800               	sublw	0
   671  0085DC  D0C5               	goto	L7
   672  0085DE                     l52:
   673                           ;pomiar.c: 162: else
   674  0085DE  CFE1 F000          	movff	fsr1l,btemp
   675  0085E2  6A01               	clrf	btemp+1,c
   676  0085E4  BE00               	btfsc	btemp,7,c
   677  0085E6  0601               	decf	btemp+1,f,c
   678  0085E8  1E00               	comf	btemp,f,c
   679  0085EA  1E01               	comf	btemp+1,f,c
   680  0085EC  4A00               	infsnz	btemp,f,c
   681  0085EE  2A01               	incf	btemp+1,f,c
   682  0085F0  5001               	movf	btemp+1,w,c
   683  0085F2  0A80               	xorlw	128
   684  0085F4  0F80               	addlw	-128
   685  0085F6  0E03               	movlw	3
   686  0085F8  B4D8               	btfsc	status,2,c
   687  0085FA  5C00               	subwf	btemp,w,c
   688  0085FC  E312               	bnc	l54
   689  0085FE  CFE1 F000          	movff	fsr1l,btemp
   690  008602  6A01               	clrf	btemp+1,c
   691  008604  BE00               	btfsc	btemp,7,c
   692  008606  0601               	decf	btemp+1,f,c
   693  008608  1E00               	comf	btemp,f,c
   694  00860A  1E01               	comf	btemp+1,f,c
   695  00860C  4A00               	infsnz	btemp,f,c
   696  00860E  2A01               	incf	btemp+1,f,c
   697  008610  5001               	movf	btemp+1,w,c
   698  008612  0A80               	xorlw	128
   699  008614  0F80               	addlw	-128
   700  008616  0E09               	movlw	9
   701  008618  B4D8               	btfsc	status,2,c
   702  00861A  5C00               	subwf	btemp,w,c
   703  00861C  E202               	bc	l54
   704  00861E  0E03               	movlw	3
   705  008620  D0A3               	goto	L7
   706  008622                     l54:
   707                           ;pomiar.c: 164: else
   708  008622  CFE1 F000          	movff	fsr1l,btemp
   709  008626  6A01               	clrf	btemp+1,c
   710  008628  BE00               	btfsc	btemp,7,c
   711  00862A  0601               	decf	btemp+1,f,c
   712  00862C  1E00               	comf	btemp,f,c
   713  00862E  1E01               	comf	btemp+1,f,c
   714  008630  4A00               	infsnz	btemp,f,c
   715  008632  2A01               	incf	btemp+1,f,c
   716  008634  5001               	movf	btemp+1,w,c
   717  008636  0A80               	xorlw	128
   718  008638  0F80               	addlw	-128
   719  00863A  0E09               	movlw	9
   720  00863C  B4D8               	btfsc	status,2,c
   721  00863E  5C00               	subwf	btemp,w,c
   722  008640  E201 D093          	bnc	l68
   723  008644  50E1               	movf	fsr1l,w,c
   724  008646  0F0B               	addlw	11
   725  008648  D08F               	goto	L7
   726                           ;pomiar.c: 166: DtCW.SCW=DtCW.CW-pop;
   727                           ;pomiar.c: 167: }
   728  00864A                     l42:
   729                           ;pomiar.c: 170: else
   730  00864A  C21D  FFE8         	movff	_DtCW+2,wreg
   731  00864E  0102               	movlb	(_DtCW+4) shr (0+8)
   732  008650  5D1F               	subwf	(_DtCW+4)& (0+255),w,b
   733  008652  6EE1               	movwf	fsr1l,c
   734                           ;pomiar.c: 173: if((DtCW.CW>=(DtCW.PPCW+8))||(Dt
      +                          CW.CW<=(DtCW.PPCW-8))) DtCW.SCW=DtCW.CW;
   735  008654  0E08               	movlw	8
   736  008656  C21F  F002         	movff	_DtCW+4,btemp+2
   737  00865A  6A03               	clrf	btemp+3,c
   738  00865C  2602               	addwf	btemp+2,f,c
   739  00865E  0E00               	movlw	0
   740  008660  2203               	addwfc	btemp+3,f,c
   741  008662  C21D  F000         	movff	_DtCW+2,btemp
   742  008666  6A01               	clrf	btemp+1,c
   743  008668  5001               	movf	btemp+1,w,c
   744  00866A  0A80               	xorlw	128
   745  00866C  6E04               	movwf	btemp+4,c
   746  00866E  5003               	movf	btemp+3,w,c
   747  008670  0A80               	xorlw	128
   748  008672  5C04               	subwf	btemp+4,w,c
   749  008674  E102               	bnz	u375
   750  008676  5002               	movf	btemp+2,w,c
   751  008678  5C00               	subwf	btemp,w,c
   752  00867A                     u375:
   753  00867A  E27B               	bc	l41
   754  00867C  C21D  F000         	movff	_DtCW+2,btemp
   755  008680  6A01               	clrf	btemp+1,c
   756  008682  C21F  F002         	movff	_DtCW+4,btemp+2
   757  008686  0EF8               	movlw	248
   758  008688  2402               	addwf	btemp+2,w,c
   759  00868A  6EF6               	movwf	tblptrl,c
   760  00868C  6AF7               	clrf	tblptrh,c
   761  00868E  0EFF               	movlw	255
   762  008690  22F7               	addwfc	tblptrh,f,c
   763  008692  50F7               	movf	tblptrh,w,c
   764  008694  0A80               	xorlw	128
   765  008696  6E02               	movwf	btemp+2,c
   766  008698  5001               	movf	btemp+1,w,c
   767  00869A  0A80               	xorlw	128
   768  00869C  5C02               	subwf	btemp+2,w,c
   769  00869E  E102               	bnz	u385
   770  0086A0  5000               	movf	btemp,w,c
   771  0086A2  5CF6               	subwf	tblptrl,w,c
   772  0086A4                     u385:
   773  0086A4  E266               	bc	l41
   774                           ;pomiar.c: 174: else
   775  0086A6  BEE1               	btfsc	fsr1l,7,c
   776  0086A8  D018               	goto	l60
   777                           ;pomiar.c: 177: {
   778  0086AA  50E1               	movf	fsr1l,w,c
   779  0086AC  0A80               	xorlw	128
   780  0086AE  0F7E               	addlw	-130
   781  0086B0  E202               	bc	l61
   782  0086B2                     L32:
   783  0086B2  50E1               	movf	fsr1l,w,c
   784  0086B4  D77A               	goto	L21
   785  0086B6                     l61:
   786                           ;pomiar.c: 179: else
   787  0086B6  50E1               	movf	fsr1l,w,c
   788  0086B8  0A80               	xorlw	128
   789  0086BA  0F7E               	addlw	-130
   790  0086BC  E306               	bnc	l63
   791  0086BE  50E1               	movf	fsr1l,w,c
   792  0086C0  0A80               	xorlw	128
   793  0086C2  0F79               	addlw	-135
   794  0086C4  E202               	bc	l63
   795  0086C6  0E02               	movlw	2
   796  0086C8  D770               	goto	L21
   797  0086CA                     l63:
   798                           ;pomiar.c: 181: else
   799  0086CA  50E1               	movf	fsr1l,w,c
   800  0086CC  0A80               	xorlw	128
   801  0086CE  0F79               	addlw	-135
   802  0086D0  E201 D76C          	bnc	l62
   803  0086D4  50E1               	movf	fsr1l,w,c
   804  0086D6  0808               	sublw	8
   805  0086D8  D768               	goto	L21
   806                           ;pomiar.c: 184: }
   807  0086DA                     l60:
   808                           ;pomiar.c: 185: else
   809  0086DA  CFE1 F000          	movff	fsr1l,btemp
   810  0086DE  6A01               	clrf	btemp+1,c
   811  0086E0  BE00               	btfsc	btemp,7,c
   812  0086E2  0601               	decf	btemp+1,f,c
   813  0086E4  1E00               	comf	btemp,f,c
   814  0086E6  1E01               	comf	btemp+1,f,c
   815  0086E8  4A00               	infsnz	btemp,f,c
   816  0086EA  2A01               	incf	btemp+1,f,c
   817  0086EC  5001               	movf	btemp+1,w,c
   818  0086EE  0A80               	xorlw	128
   819  0086F0  0F80               	addlw	-128
   820  0086F2  0E02               	movlw	2
   821  0086F4  B4D8               	btfsc	status,2,c
   822  0086F6  5C00               	subwf	btemp,w,c
   823  0086F8  E203               	bc	l67
   824  0086FA  50E1               	movf	fsr1l,w,c
   825  0086FC  0F02               	addlw	2
   826  0086FE  D034               	goto	L7
   827  008700                     l67:
   828                           ;pomiar.c: 188: else
   829  008700  CFE1 F000          	movff	fsr1l,btemp
   830  008704  6A01               	clrf	btemp+1,c
   831  008706  BE00               	btfsc	btemp,7,c
   832  008708  0601               	decf	btemp+1,f,c
   833  00870A  1E00               	comf	btemp,f,c
   834  00870C  1E01               	comf	btemp+1,f,c
   835  00870E  4A00               	infsnz	btemp,f,c
   836  008710  2A01               	incf	btemp+1,f,c
   837  008712  5001               	movf	btemp+1,w,c
   838  008714  0A80               	xorlw	128
   839  008716  0F80               	addlw	-128
   840  008718  0E02               	movlw	2
   841  00871A  B4D8               	btfsc	status,2,c
   842  00871C  5C00               	subwf	btemp,w,c
   843  00871E  E312               	bnc	l69
   844  008720  CFE1 F000          	movff	fsr1l,btemp
   845  008724  6A01               	clrf	btemp+1,c
   846  008726  BE00               	btfsc	btemp,7,c
   847  008728  0601               	decf	btemp+1,f,c
   848  00872A  1E00               	comf	btemp,f,c
   849  00872C  1E01               	comf	btemp+1,f,c
   850  00872E  4A00               	infsnz	btemp,f,c
   851  008730  2A01               	incf	btemp+1,f,c
   852  008732  5001               	movf	btemp+1,w,c
   853  008734  0A80               	xorlw	128
   854  008736  0F80               	addlw	-128
   855  008738  0E07               	movlw	7
   856  00873A  B4D8               	btfsc	status,2,c
   857  00873C  5C00               	subwf	btemp,w,c
   858  00873E  E202               	bc	l69
   859  008740  0E02               	movlw	2
   860  008742  D012               	goto	L7
   861  008744                     l69:
   862                           ;pomiar.c: 190: else
   863  008744  CFE1 F000          	movff	fsr1l,btemp
   864  008748  6A01               	clrf	btemp+1,c
   865  00874A  BE00               	btfsc	btemp,7,c
   866  00874C  0601               	decf	btemp+1,f,c
   867  00874E  1E00               	comf	btemp,f,c
   868  008750  1E01               	comf	btemp+1,f,c
   869  008752  4A00               	infsnz	btemp,f,c
   870  008754  2A01               	incf	btemp+1,f,c
   871  008756  5001               	movf	btemp+1,w,c
   872  008758  0A80               	xorlw	128
   873  00875A  0F80               	addlw	-128
   874  00875C  0E07               	movlw	7
   875  00875E  B4D8               	btfsc	status,2,c
   876  008760  5C00               	subwf	btemp,w,c
   877  008762  E303               	bnc	l68
   878  008764  50E1               	movf	fsr1l,w,c
   879  008766  0F08               	addlw	8
   880  008768                     L7:
   881  008768  6ED9               	movwf	fsr2l,c
   882  00876A                     l68:
   883                           ;pomiar.c: 192: DtCW.SCW=DtCW.CW-pop;
   884  00876A  50D9               	movf	fsr2l,w,c
   885  00876C  0102               	movlb	(_DtCW+2) shr (0+8)
   886  00876E  5D1D               	subwf	(_DtCW+2)& (0+255),w,b
   887  008770  D720               	goto	L22
   888                           ;pomiar.c: 193: }
   889  008772                     l41:
   890                           ;pomiar.c: 197: else DtCW.SCW=DtCW.CW;
   891  008772  C21D  F226         	movff	_DtCW+2,_DtCW+11
   892  008776                     l72:
   893                           ;pomiar.c: 198: PFN.CW=DtCW.SCW;
   894  008776  C226  F161         	movff	_DtCW+11,_PFN+10
   895                           ;pomiar.c: 199: }
   896  00877A  0012               	return	
   897  00877C                     __end_of_GoldenEye:
   898                           ;pomiar.c: 202: void PredkoscZmianCW(void)
   899                           ;pomiar.c: 203: {
   900  00877C                     _PredkoscZmianCW:
   901  000000                     
   902                           ;pomiar.c: 204: static unsigned char ffcw,indff;
   903  00877C  0101               	movlb	(_M+27) shr (0+8)
   904  00877E  B595               	btfsc	(_M+27)& (0+255),2,b
   905  008780  D005               	goto	l74
   906                           ;pomiar.c: 208: {
   907  008782  010E               	movlb	F1574 shr (0+8)
   908  008784  6B9E               	clrf	F1574& (0+255),b
   909                           ;pomiar.c: 210: indff=0;
   910  008786  010E               	movlb	F1575 shr (0+8)
   911  008788  6B9F               	clrf	F1575& (0+255),b
   912                           ;pomiar.c: 211: }
   913  00878A  D036               	goto	l75
   914  00878C                     l74:
   915                           ;pomiar.c: 212: else
   916  00878C  010E               	movlb	F1575 shr (0+8)
   917  00878E  539F               	movf	F1575& (0+255),f,b
   918  008790  E10C               	bnz	l76
   919                           ;pomiar.c: 215: {
   920  008792  6AD9               	clrf	fsr2l,c
   921  008794                     l77:
   922  008794  50D9               	movf	fsr2l,w,c
   923  008796  EE0E  F0A9         	lfsr	0,_wff
   924  00879A  26E9               	addwf	fsr0l,f,c
   925  00879C  0E00               	movlw	0
   926  00879E  22EA               	addwfc	fsr0h,f,c
   927  0087A0  6AEF               	clrf	indf0,c
   928  0087A2  2AD9               	incf	fsr2l,f,c
   929  0087A4  0E09               	movlw	9
   930  0087A6  64D9               	cpfsgt	fsr2l,c
   931  0087A8  D7F5               	goto	l77
   932  0087AA                     l76:
   933                           ;pomiar.c: 217: }
   934  0087AA  010E               	movlb	F1575 shr (0+8)
   935  0087AC  2B9F               	incf	F1575& (0+255),f,b
   936                           ;pomiar.c: 219: if(indff>=9)
   937  0087AE  0E08               	movlw	8
   938  0087B0  659F               	cpfsgt	F1575& (0+255),b
   939  0087B2  D016               	goto	l80
   940                           ;pomiar.c: 220: {
   941  0087B4  0E09               	movlw	9
   942  0087B6  CFE8 FE9F          	movff	wreg,F1575
   943                           ;pomiar.c: 222: for(i=0;i<9;i++) wff[i]=wff[i+1]
      +                          ;
   944  0087BA  6AD9               	clrf	fsr2l,c
   945  0087BC                     l81:
   946  0087BC  50D9               	movf	fsr2l,w,c
   947  0087BE  EE1E  F0AA         	lfsr	1,_wff+1
   948  0087C2  26E1               	addwf	fsr1l,f,c
   949  0087C4  0E00               	movlw	0
   950  0087C6  22E2               	addwfc	fsr1h,f,c
   951  0087C8  50D9               	movf	fsr2l,w,c
   952  0087CA  EE0E  F0A9         	lfsr	0,_wff
   953  0087CE  26E9               	addwf	fsr0l,f,c
   954  0087D0  0E00               	movlw	0
   955  0087D2  22EA               	addwfc	fsr0h,f,c
   956  0087D4  CFE7 FFEF          	movff	indf1,indf0
   957  0087D8  2AD9               	incf	fsr2l,f,c
   958  0087DA  0E08               	movlw	8
   959  0087DC  64D9               	cpfsgt	fsr2l,c
   960  0087DE  D7EE               	goto	l81
   961  0087E0                     l80:
   962                           ;pomiar.c: 223: }
   963  0087E0  CE9F  FFE8         	movff	F1575,wreg
   964  0087E4  EE0E  F0A9         	lfsr	0,_wff
   965  0087E8  26E9               	addwf	fsr0l,f,c
   966  0087EA  0E00               	movlw	0
   967  0087EC  22EA               	addwfc	fsr0h,f,c
   968  0087EE  CE9E  FFE8         	movff	F1574,wreg
   969  0087F2  0102               	movlb	(_DtCW+2) shr (0+8)
   970  0087F4  5D1D               	subwf	(_DtCW+2)& (0+255),w,b
   971  0087F6  6EEF               	movwf	indf0,c
   972  0087F8                     l75:
   973                           ;pomiar.c: 225: }
   974  0087F8  C21D  FE9E         	movff	_DtCW+2,F1574
   975                           ;pomiar.c: 227: w=0;
   976  0087FC  6AE1               	clrf	fsr1l,c
   977                           ;pomiar.c: 228: for(i=0;i<10;i++) w+=wff[i];
   978  0087FE  6AD9               	clrf	fsr2l,c
   979  008800                     l84:
   980  008800  50D9               	movf	fsr2l,w,c
   981  008802  EE0E  F0A9         	lfsr	0,_wff
   982  008806  26E9               	addwf	fsr0l,f,c
   983  008808  0E00               	movlw	0
   984  00880A  22EA               	addwfc	fsr0h,f,c
   985  00880C  50EF               	movf	indf0,w,c
   986  00880E  26E1               	addwf	fsr1l,f,c
   987  008810  2AD9               	incf	fsr2l,f,c
   988  008812  0E09               	movlw	9
   989  008814  64D9               	cpfsgt	fsr2l,c
   990  008816  D7F4               	goto	l84
   991                           ;pomiar.c: 229: DtCW.ddDCW=w;
   992  008818  CFE1 F224          	movff	fsr1l,_DtCW+9
   993                           ;pomiar.c: 230: }
   994  00881C  0C09               	retlw	9
   995  00881E                     __end_of_PredkoscZmianCW:
   996                           ;pomiar.c: 233: void FltParMod(void)
   997                           ;pomiar.c: 234: {
   998  00881E                     _FltParMod:
   999  000000                     
  1000                           ;pomiar.c: 235: static unsigned char indtm,fco,f
      +                          cw;
  1001  00881E  C20E  FFE8         	movff	_DtCO+2,wreg
  1002  008822  010E               	movlb	F1581 shr (0+8)
  1003  008824  61A1               	cpfslt	F1581& (0+255),b
  1004  008826  D005               	goto	l88
  1005  008828  CEA1  FFE8         	movff	F1581,wreg
  1006  00882C  0102               	movlb	(_DtCO+2) shr (0+8)
  1007  00882E  5D0E               	subwf	(_DtCO+2)& (0+255),w,b
  1008  008830  D004               	goto	L8
  1009  008832                     l88:
  1010                           ;pomiar.c: 242: else wr=fco-DtCO.CO;
  1011  008832  C20E  FFE8         	movff	_DtCO+2,wreg
  1012  008836  010E               	movlb	F1581 shr (0+8)
  1013  008838  5DA1               	subwf	F1581& (0+255),w,b
  1014  00883A                     L8:
  1015  00883A  6ED9               	movwf	fsr2l,c
  1016                           ;pomiar.c: 243: if(wr) DtCO.indCO++;
  1017  00883C  50D9               	movf	fsr2l,w,c
  1018  00883E  E002               	bz	l90
  1019  008840  0102               	movlb	(_DtCO+10) shr (0+8)
  1020  008842  2B16               	incf	(_DtCO+10)& (0+255),f,b
  1021  008844                     l90:
  1022                           ;pomiar.c: 244: if(wr>=2) DtCO.indCO=10;
  1023  008844  0E01               	movlw	1
  1024  008846  64D9               	cpfsgt	fsr2l,c
  1025  008848  D003               	goto	l91
  1026  00884A  0E0A               	movlw	10
  1027  00884C  CFE8 F216          	movff	wreg,_DtCO+10
  1028  008850                     l91:
  1029                           ;pomiar.c: 246: if(DtCW.CW>fcw) wr=DtCW.CW-fcw;
  1030  008850  C21D  FFE8         	movff	_DtCW+2,wreg
  1031  008854  010E               	movlb	F1582 shr (0+8)
  1032  008856  61A2               	cpfslt	F1582& (0+255),b
  1033  008858  D005               	goto	l92
  1034  00885A  CEA2  FFE8         	movff	F1582,wreg
  1035  00885E  0102               	movlb	(_DtCW+2) shr (0+8)
  1036  008860  5D1D               	subwf	(_DtCW+2)& (0+255),w,b
  1037  008862  D004               	goto	L9
  1038  008864                     l92:
  1039                           ;pomiar.c: 247: else wr=fcw-DtCW.CW;
  1040  008864  C21D  FFE8         	movff	_DtCW+2,wreg
  1041  008868  010E               	movlb	F1582 shr (0+8)
  1042  00886A  5DA2               	subwf	F1582& (0+255),w,b
  1043  00886C                     L9:
  1044  00886C  6ED9               	movwf	fsr2l,c
  1045                           ;pomiar.c: 248: if(wr) DtCW.indCW++;
  1046  00886E  50D9               	movf	fsr2l,w,c
  1047  008870  E002               	bz	l94
  1048  008872  0102               	movlb	(_DtCW+10) shr (0+8)
  1049  008874  2B25               	incf	(_DtCW+10)& (0+255),f,b
  1050  008876                     l94:
  1051                           ;pomiar.c: 249: if(wr>=2) DtCW.indCW=10;
  1052  008876  0E01               	movlw	1
  1053  008878  64D9               	cpfsgt	fsr2l,c
  1054  00887A  D003               	goto	l95
  1055  00887C  0E0A               	movlw	10
  1056  00887E  CFE8 F225          	movff	wreg,_DtCW+10
  1057  008882                     l95:
  1058                           ;pomiar.c: 250: PredkoscZmianCW();
  1059  008882  DF7C               	call	_PredkoscZmianCW	;wreg free
  1060                           ;pomiar.c: 253: indtm++;
  1061  008884  010E               	movlb	F1580 shr (0+8)
  1062  008886  2BA0               	incf	F1580& (0+255),f,b
  1063                           ;pomiar.c: 254: if(indtm>9)
  1064  008888  0E09               	movlw	9
  1065  00888A  65A0               	cpfsgt	F1580& (0+255),b
  1066  00888C  0C09               	retlw	9
  1067                           ;pomiar.c: 255: {
  1068  00888E  6BA0               	clrf	F1580& (0+255),b
  1069                           ;pomiar.c: 258: DtZW.SZW=DtZW.ZW;
  1070  008890  C20A  F20B         	movff	_DtZW+2,_DtZW+3
  1071                           ;pomiar.c: 261: if(DtCO.indCO<=7) DtCO.dDCO=0;
  1072  008894  0E08               	movlw	8
  1073  008896  0102               	movlb	(_DtCO+10) shr (0+8)
  1074  008898  6116               	cpfslt	(_DtCO+10)& (0+255),b
  1075  00889A  D002               	goto	l97
  1076  00889C  6B15               	clrf	(_DtCO+9)& (0+255),b
  1077  00889E  D008               	goto	l98
  1078  0088A0                     l97:
  1079                           ;pomiar.c: 262: else
  1080  0088A0  CEA1  FFE8         	movff	F1581,wreg
  1081  0088A4  0102               	movlb	(_DtCO+2) shr (0+8)
  1082  0088A6  5D0E               	subwf	(_DtCO+2)& (0+255),w,b
  1083  0088A8  CFE8 F215          	movff	wreg,_DtCO+9
  1084                           ;pomiar.c: 265: fco=DtCO.CO;
  1085  0088AC  C20E  FEA1         	movff	_DtCO+2,F1581
  1086  0088B0                     l98:
  1087                           ;pomiar.c: 266: }
  1088  0088B0  0102               	movlb	(_DtCO+10) shr (0+8)
  1089  0088B2  6B16               	clrf	(_DtCO+10)& (0+255),b
  1090                           ;pomiar.c: 269: if(DtCW.indCW<=7)
  1091  0088B4  0E08               	movlw	8
  1092  0088B6  6125               	cpfslt	(_DtCW+10)& (0+255),b
  1093  0088B8  D003               	goto	l99
  1094                           ;pomiar.c: 270: {
  1095  0088BA  6B23               	clrf	(_DtCW+8)& (0+255),b
  1096                           ;pomiar.c: 272: DtCW._fpCW=1;
  1097  0088BC  851C               	bsf	(_DtCW+1)& (0+255),2,b
  1098                           ;pomiar.c: 273: }
  1099  0088BE  D009               	goto	l100
  1100  0088C0                     l99:
  1101                           ;pomiar.c: 274: else
  1102  0088C0  CEA2  FFE8         	movff	F1582,wreg
  1103  0088C4  0102               	movlb	(_DtCW+2) shr (0+8)
  1104  0088C6  5D1D               	subwf	(_DtCW+2)& (0+255),w,b
  1105  0088C8  CFE8 F223          	movff	wreg,_DtCW+8
  1106                           ;pomiar.c: 277: DtCW._fpCW=1;
  1107  0088CC  851C               	bsf	(_DtCW+1)& (0+255),2,b
  1108                           ;pomiar.c: 278: fcw=DtCW.CW;
  1109  0088CE  C21D  FEA2         	movff	_DtCW+2,F1582
  1110  0088D2                     l100:
  1111                           ;pomiar.c: 279: }
  1112  0088D2  0102               	movlb	(_DtCW+10) shr (0+8)
  1113  0088D4  6B25               	clrf	(_DtCW+10)& (0+255),b
  1114                           ;pomiar.c: 281: }
  1115  0088D6  0012               	return	
  1116  0088D8                     __end_of_FltParMod:
  1117                           ;pomiar.c: 286: void FiltrPomiarowyCOCW(void)
  1118                           ;pomiar.c: 287: {
  1119  0088D8                     _FiltrPomiarowyCOCW:
  1120  000000                     
  1121                           ;pomiar.c: 290: if(PmrTim1(20))
  1122  0088D8  0E14               	movlw	20
  1123  0088DA  DD51               	call	_PmrTim1
  1124  0088DC  E302               	bnc	l102
  1125                           ;pomiar.c: 291: {
  1126  0088DE  DD4C               	call	_StartTim1	;wreg free
  1127                           ;pomiar.c: 293: GoldenEye();
  1128  0088E0  DD78               	call	_GoldenEye	;wreg free
  1129  0088E2                     l102:
  1130                           ;pomiar.c: 294: }
  1131  0088E2  C20E  F000         	movff	_DtCO+2,btemp
  1132  0088E6  C210  F001         	movff	_DtCO+4,btemp+1
  1133  0088EA  0EFF               	movlw	-1
  1134  0088EC  2601               	addwf	btemp+1,f,c
  1135  0088EE  5000               	movf	btemp,w,c
  1136  0088F0  5C01               	subwf	btemp+1,w,c
  1137  0088F2  CFE8 F214          	movff	wreg,_DtCO+8
  1138                           ;pomiar.c: 299: DtCW.DCW=(DtCW.PPCW-(2-1))-DtCW.
      +                          CW;
  1139  0088F6  C21D  F000         	movff	_DtCW+2,btemp
  1140  0088FA  C21F  F001         	movff	_DtCW+4,btemp+1
  1141  0088FE  0EFF               	movlw	-1
  1142  008900  2601               	addwf	btemp+1,f,c
  1143  008902  5000               	movf	btemp,w,c
  1144  008904  5C01               	subwf	btemp+1,w,c
  1145  008906  CFE8 F222          	movff	wreg,_DtCW+7
  1146                           ;pomiar.c: 301: if(!DtIN._err_IN)
  1147  00890A  0102               	movlb	_DtIN shr (0+8)
  1148  00890C  B12A               	btfsc	_DtIN& (0+255),0,b
  1149  00890E  D019               	goto	l103
  1150                           ;pomiar.c: 302: {
  1151  008910  C20E  FFE8         	movff	_DtCO+2,wreg
  1152  008914  612C               	cpfslt	(_DtIN+2)& (0+255),b
  1153  008916  D006               	goto	l104
  1154  008918  C22C  FFE8         	movff	_DtIN+2,wreg
  1155  00891C  5D0E               	subwf	(_DtCO+2)& (0+255),w,b
  1156  00891E  CFE8 F22D          	movff	wreg,_DtIN+3
  1157  008922  D002               	goto	l105
  1158  008924                     l104:
  1159                           ;pomiar.c: 305: else DtIN.DIN=0;
  1160  008924  0102               	movlb	(_DtIN+3) shr (0+8)
  1161  008926  6B2D               	clrf	(_DtIN+3)& (0+255),b
  1162  008928                     l105:
  1163                           ;pomiar.c: 307: if((DtCO.PPCO-(1-1))>DtIN.IN) Dt
      +                          IN.DIN2=(DtCO.PPCO-(1-1))-DtIN.IN;
  1164  008928  C210  FFE8         	movff	_DtCO+4,wreg
  1165  00892C  0102               	movlb	(_DtIN+2) shr (0+8)
  1166  00892E  612C               	cpfslt	(_DtIN+2)& (0+255),b
  1167  008930  D006               	goto	l106
  1168  008932  C22C  FFE8         	movff	_DtIN+2,wreg
  1169  008936  5D10               	subwf	(_DtCO+4)& (0+255),w,b
  1170  008938  CFE8 F22E          	movff	wreg,_DtIN+4
  1171  00893C  D002               	goto	l103
  1172  00893E                     l106:
  1173                           ;pomiar.c: 308: else DtIN.DIN2=0;
  1174  00893E  0102               	movlb	(_DtIN+4) shr (0+8)
  1175  008940  6B2E               	clrf	(_DtIN+4)& (0+255),b
  1176  008942                     l103:
  1177                           ;pomiar.c: 309: }
  1178  008942  0E0A               	movlw	10
  1179  008944  DD28               	call	_PmrTim2
  1180  008946  E302               	bnc	l108
  1181                           ;pomiar.c: 312: {
  1182  008948  DD23               	call	_StartTim2	;wreg free
  1183                           ;pomiar.c: 314: FltParMod();
  1184  00894A  DF69               	call	_FltParMod	;wreg free
  1185  00894C                     l108:
  1186                           ;pomiar.c: 315: }
  1187  00894C  C215  FFE8         	movff	_DtCO+9,wreg
  1188  008950  0A80               	xorlw	128
  1189  008952  0F7A               	addlw	-134
  1190  008954  0102               	movlb	(_DtCO+1) shr (0+8)
  1191  008956  E302               	bnc	L38
  1192  008958  890D               	bsf	(_DtCO+1)& (0+255),4,b
  1193  00895A  0012               	return	
  1194                           ;pomiar.c: 317: else DtCO._ldDCO=0;
  1195  00895C                     L38:
  1196  00895C  990D               	bcf	(_DtCO+1)& (0+255),4,b
  1197                           ;pomiar.c: 318: }
  1198  00895E  0012               	return	
  1199  008960                     __end_of_FiltrPomiarowyCOCW:
  1200                           ;pomiar.c: 321: void PomiarCO(void)
  1201                           ;pomiar.c: 322: {
  1202  008960                     _PomiarCO:
  1203  000000                     
  1204                           ;pomiar.c: 323: DtCO.AC_CO=ReadAC(0);
  1205  008960  0E00               	movlw	0
  1206  008962  ECD5  F06F         	call	_ReadAC
  1207  008966  CFE8 F218          	movff	wreg,_DtCO+12
  1208                           ;pomiar.c: 324: DtCO.CO=ReadTabNTC(DtCO.AC_CO);
  1209  00896A  C218  FFE8         	movff	_DtCO+12,wreg
  1210  00896E  EC0B  F070         	call	_ReadTabNTC
  1211  008972  CFE8 F20E          	movff	wreg,_DtCO+2
  1212                           ;pomiar.c: 326: if(DtCO.AC_CO<=0X28||DtCO.AC_CO>
      +                          =0XF5)
  1213  008976  0E29               	movlw	41
  1214  008978  0102               	movlb	(_DtCO+12) shr (0+8)
  1215  00897A  6118               	cpfslt	(_DtCO+12)& (0+255),b
  1216  00897C  D001               	goto	u721
  1217  00897E  D003               	goto	u740
  1218  008980                     u721:
  1219  008980  0EF4               	movlw	-12
  1220  008982  6518               	cpfsgt	(_DtCO+12)& (0+255),b
  1221  008984  D00E               	goto	l112
  1222  008986                     u740:
  1223                           ;pomiar.c: 327: {
  1224  008986  0102               	movlb	_DtCO shr (0+8)
  1225  008988  810C               	bsf	_DtCO& (0+255),0,b
  1226                           ;pomiar.c: 329: DtCO._su_CO=0;
  1227  00898A  930C               	bcf	_DtCO& (0+255),1,b
  1228                           ;pomiar.c: 330: DtCO._ad_CO=0;
  1229  00898C  950C               	bcf	_DtCO& (0+255),2,b
  1230                           ;pomiar.c: 331: DtCO._cold_CO=0;
  1231  00898E  950D               	bcf	(_DtCO+1)& (0+255),2,b
  1232                           ;pomiar.c: 332: DtCO._hot_CO=0;
  1233  008990  970D               	bcf	(_DtCO+1)& (0+255),3,b
  1234                           ;pomiar.c: 333: DtCO._on_DZ_CO=0;
  1235  008992  9B0C               	bcf	_DtCO& (0+255),5,b
  1236                           ;pomiar.c: 334: DtCO._su_DZ_CO=0;
  1237  008994  9D0C               	bcf	_DtCO& (0+255),6,b
  1238                           ;pomiar.c: 335: DtCO._ad_DZ_CO=0;
  1239  008996  9F0C               	bcf	_DtCO& (0+255),7,b
  1240                           ;pomiar.c: 336: DtCO._ptwp_CO=0;
  1241  008998  910D               	bcf	(_DtCO+1)& (0+255),0,b
  1242                           ;pomiar.c: 337: DtCO._pz_CO=0;
  1243  00899A  930D               	bcf	(_DtCO+1)& (0+255),1,b
  1244                           ;pomiar.c: 338: DtCO._su_SRW_CO=0;
  1245  00899C  970C               	bcf	_DtCO& (0+255),3,b
  1246                           ;pomiar.c: 339: DtCO._ad_SRW_CO=0;
  1247  00899E  990C               	bcf	_DtCO& (0+255),4,b
  1248                           ;pomiar.c: 340: return;
  1249  0089A0  0012               	return	
  1250  0089A2                     l112:
  1251                           ;pomiar.c: 342: else DtCO._err_CO=0;
  1252  0089A2  0102               	movlb	_DtCO shr (0+8)
  1253  0089A4  910C               	bcf	_DtCO& (0+255),0,b
  1254                           ;pomiar.c: 343: switch(DtKNF.tpkt)
  1255  0089A6  D0AF               	goto	l115
  1256  0089A8                     l117:
  1257                           ;pomiar.c: 346: case 2:
  1258  0089A8  C210  FFE8         	movff	_DtCO+4,wreg
  1259  0089AC  C20E  F000         	movff	_DtCO+2,btemp
  1260  0089B0  6A01               	clrf	btemp+1,c
  1261  0089B2  5E00               	subwf	btemp,f,c
  1262  0089B4  0E00               	movlw	0
  1263  0089B6  5A01               	subwfb	btemp+1,f,c
  1264  0089B8  5001               	movf	btemp+1,w,c
  1265  0089BA  0A80               	xorlw	128
  1266  0089BC  0F80               	addlw	-128
  1267  0089BE  0E05               	movlw	5
  1268  0089C0  B4D8               	btfsc	status,2,c
  1269  0089C2  5C00               	subwf	btemp,w,c
  1270  0089C4  0102               	movlb	_DtCO shr (0+8)
  1271  0089C6  E302               	bnc	L39
  1272  0089C8  850C               	bsf	_DtCO& (0+255),2,b
  1273  0089CA  D001               	goto	l119
  1274                           ;pomiar.c: 349: else DtCO._ad_CO=0;
  1275  0089CC                     L39:
  1276  0089CC  950C               	bcf	_DtCO& (0+255),2,b
  1277  0089CE                     l119:
  1278                           ;pomiar.c: 350: if((DtCO.PPCO-DtCO.CO)>=5) DtCO.
      +                          _su_CO=1;
  1279  0089CE  C20E  FFE8         	movff	_DtCO+2,wreg
  1280  0089D2  C210  F000         	movff	_DtCO+4,btemp
  1281  0089D6  6A01               	clrf	btemp+1,c
  1282  0089D8  5E00               	subwf	btemp,f,c
  1283  0089DA  0E00               	movlw	0
  1284  0089DC  5A01               	subwfb	btemp+1,f,c
  1285  0089DE  5001               	movf	btemp+1,w,c
  1286  0089E0  0A80               	xorlw	128
  1287  0089E2  0F80               	addlw	-128
  1288  0089E4  0E05               	movlw	5
  1289  0089E6  B4D8               	btfsc	status,2,c
  1290  0089E8  5C00               	subwf	btemp,w,c
  1291  0089EA  0102               	movlb	_DtCO shr (0+8)
  1292  0089EC  E302               	bnc	L40
  1293  0089EE  830C               	bsf	_DtCO& (0+255),1,b
  1294  0089F0  D001               	goto	l121
  1295                           ;pomiar.c: 351: else DtCO._su_CO=0;
  1296  0089F2                     L40:
  1297  0089F2  930C               	bcf	_DtCO& (0+255),1,b
  1298  0089F4                     l121:
  1299                           ;pomiar.c: 352: if(DtCO.CO<=50) DtCO._ptwp_CO=1;
  1300  0089F4  0E33               	movlw	51
  1301  0089F6  0102               	movlb	(_DtCO+2) shr (0+8)
  1302  0089F8  610E               	cpfslt	(_DtCO+2)& (0+255),b
  1303  0089FA  D001               	goto	l122
  1304  0089FC  810D               	bsf	(_DtCO+1)& (0+255),0,b
  1305  0089FE                     l122:
  1306                           ;pomiar.c: 353: if(DtCO.CO>50+1) DtCO._ptwp_CO=0
      +                          ;
  1307  0089FE  0E33               	movlw	51
  1308  008A00  D05F               	goto	L33
  1309                           ;pomiar.c: 354: if(DtCO.CO<=82) DtCO._pz_CO=1;
  1310                           ;pomiar.c: 355: if(DtCO.CO>88) DtCO._pz_CO=0;
  1311                           ;pomiar.c: 356: if(DtCO.CO<=7) DtCO._cold_CO=1;
  1312                           ;pomiar.c: 357: if(DtCO.CO>7+1) DtCO._cold_CO=0;
  1313                           ;pomiar.c: 358: if(DtCO.CO>=88) DtCO._hot_CO=1;
  1314                           ;pomiar.c: 359: if(DtCO.CO<88-1) DtCO._hot_CO=0;
  1315                           ;pomiar.c: 360: break;
  1316  008A02                     l130:
  1317                           ;pomiar.c: 361: }
  1318                           ;pomiar.c: 363: {
  1319  008A02  C210  FFE8         	movff	_DtCO+4,wreg
  1320  008A06  C20E  F000         	movff	_DtCO+2,btemp
  1321  008A0A  6A01               	clrf	btemp+1,c
  1322  008A0C  5E00               	subwf	btemp,f,c
  1323  008A0E  0E00               	movlw	0
  1324  008A10  5A01               	subwfb	btemp+1,f,c
  1325  008A12  5001               	movf	btemp+1,w,c
  1326  008A14  0A80               	xorlw	128
  1327  008A16  0F80               	addlw	-128
  1328  008A18  0E05               	movlw	5
  1329  008A1A  B4D8               	btfsc	status,2,c
  1330  008A1C  5C00               	subwf	btemp,w,c
  1331  008A1E  E312               	bnc	l144
  1332  008A20                     L36:
  1333  008A20  0102               	movlb	_DtCO shr (0+8)
  1334  008A22  850C               	bsf	_DtCO& (0+255),2,b
  1335  008A24  D011               	goto	l145
  1336                           ;pomiar.c: 365: else DtCO._ad_CO=0;
  1337                           ;pomiar.c: 366: if((DtCO.PPCO-DtCO.CO)>=5) DtCO.
      +                          _su_CO=1;
  1338                           ;pomiar.c: 367: else DtCO._su_CO=0;
  1339                           ;pomiar.c: 368: if(DtCO.CO<=82) DtCO._ptwp_CO=1;
  1340                           ;pomiar.c: 369: if(DtCO.CO>82+1) DtCO._ptwp_CO=0
      +                          ;
  1341                           ;pomiar.c: 370: if(DtCO.CO<=82) DtCO._pz_CO=1;
  1342                           ;pomiar.c: 371: if(DtCO.CO>88) DtCO._pz_CO=0;
  1343                           ;pomiar.c: 372: if(DtCO.CO<=7) DtCO._cold_CO=1;
  1344                           ;pomiar.c: 373: if(DtCO.CO>7+1) DtCO._cold_CO=0;
  1345                           ;pomiar.c: 374: if(DtCO.CO>=88) DtCO._hot_CO=1;
  1346                           ;pomiar.c: 375: if(DtCO.CO<88-1) DtCO._hot_CO=0;
  1347                           ;pomiar.c: 376: break;
  1348  008A26                     l143:
  1349                           ;pomiar.c: 377: }
  1350                           ;pomiar.c: 379: {
  1351  008A26  C210  FFE8         	movff	_DtCO+4,wreg
  1352  008A2A  C20E  F000         	movff	_DtCO+2,btemp
  1353  008A2E  6A01               	clrf	btemp+1,c
  1354  008A30  5E00               	subwf	btemp,f,c
  1355  008A32  0E00               	movlw	0
  1356  008A34  5A01               	subwfb	btemp+1,f,c
  1357  008A36  5001               	movf	btemp+1,w,c
  1358  008A38  0A80               	xorlw	128
  1359  008A3A  0F80               	addlw	-128
  1360  008A3C  0E05               	movlw	5
  1361  008A3E  B4D8               	btfsc	status,2,c
  1362  008A40  5C00               	subwf	btemp,w,c
  1363  008A42  E2EE               	bc	L36
  1364  008A44                     l144:
  1365                           ;pomiar.c: 381: else DtCO._ad_CO=0;
  1366  008A44  0102               	movlb	_DtCO shr (0+8)
  1367  008A46  950C               	bcf	_DtCO& (0+255),2,b
  1368  008A48                     l145:
  1369                           ;pomiar.c: 382: if((DtCO.PPCO-DtCO.CO)>=5) DtCO.
      +                          _su_CO=1;
  1370  008A48  C20E  FFE8         	movff	_DtCO+2,wreg
  1371  008A4C  C210  F000         	movff	_DtCO+4,btemp
  1372  008A50  6A01               	clrf	btemp+1,c
  1373  008A52  5E00               	subwf	btemp,f,c
  1374  008A54  0E00               	movlw	0
  1375  008A56  5A01               	subwfb	btemp+1,f,c
  1376  008A58  5001               	movf	btemp+1,w,c
  1377  008A5A  0A80               	xorlw	128
  1378  008A5C  0F80               	addlw	-128
  1379  008A5E  0E05               	movlw	5
  1380  008A60  B4D8               	btfsc	status,2,c
  1381  008A62  5C00               	subwf	btemp,w,c
  1382  008A64  E325               	bnc	l159
  1383  008A66                     L35:
  1384  008A66  0102               	movlb	_DtCO shr (0+8)
  1385  008A68  830C               	bsf	_DtCO& (0+255),1,b
  1386  008A6A  D024               	goto	l160
  1387                           ;pomiar.c: 383: else DtCO._su_CO=0;
  1388                           ;pomiar.c: 384: if(DtCO.CO<=82) DtCO._ptwp_CO=1;
  1389                           ;pomiar.c: 385: if(DtCO.CO>82+1) DtCO._ptwp_CO=0
      +                          ;
  1390                           ;pomiar.c: 386: if(DtCO.CO<=82) DtCO._pz_CO=1;
  1391                           ;pomiar.c: 387: if(DtCO.CO>88) DtCO._pz_CO=0;
  1392                           ;pomiar.c: 388: if(DtCO.CO<=7) DtCO._cold_CO=1;
  1393                           ;pomiar.c: 389: if(DtCO.CO>7+1) DtCO._cold_CO=0;
  1394                           ;pomiar.c: 390: if(DtCO.CO>=88) DtCO._hot_CO=1;
  1395                           ;pomiar.c: 391: if(DtCO.CO<88-1) DtCO._hot_CO=0;
  1396                           ;pomiar.c: 392: break;
  1397  008A6C                     l156:
  1398                           ;pomiar.c: 393: }
  1399                           ;pomiar.c: 395: {
  1400  008A6C  C210  FFE8         	movff	_DtCO+4,wreg
  1401  008A70  C20E  F000         	movff	_DtCO+2,btemp
  1402  008A74  6A01               	clrf	btemp+1,c
  1403  008A76  5E00               	subwf	btemp,f,c
  1404  008A78  0E00               	movlw	0
  1405  008A7A  5A01               	subwfb	btemp+1,f,c
  1406  008A7C  5001               	movf	btemp+1,w,c
  1407  008A7E  0A80               	xorlw	128
  1408  008A80  0F80               	addlw	-128
  1409  008A82  0E05               	movlw	5
  1410  008A84  B4D8               	btfsc	status,2,c
  1411  008A86  5C00               	subwf	btemp,w,c
  1412  008A88  0102               	movlb	_DtCO shr (0+8)
  1413  008A8A  E302               	bnc	L41
  1414  008A8C  850C               	bsf	_DtCO& (0+255),2,b
  1415  008A8E  D001               	goto	l158
  1416                           ;pomiar.c: 397: else DtCO._ad_CO=0;
  1417  008A90                     L41:
  1418  008A90  950C               	bcf	_DtCO& (0+255),2,b
  1419  008A92                     l158:
  1420                           ;pomiar.c: 398: if((DtCO.PPCO-DtCO.CO)>=5) DtCO.
      +                          _su_CO=1;
  1421  008A92  C20E  FFE8         	movff	_DtCO+2,wreg
  1422  008A96  C210  F000         	movff	_DtCO+4,btemp
  1423  008A9A  6A01               	clrf	btemp+1,c
  1424  008A9C  5E00               	subwf	btemp,f,c
  1425  008A9E  0E00               	movlw	0
  1426  008AA0  5A01               	subwfb	btemp+1,f,c
  1427  008AA2  5001               	movf	btemp+1,w,c
  1428  008AA4  0A80               	xorlw	128
  1429  008AA6  0F80               	addlw	-128
  1430  008AA8  0E05               	movlw	5
  1431  008AAA  B4D8               	btfsc	status,2,c
  1432  008AAC  5C00               	subwf	btemp,w,c
  1433  008AAE  E2DB               	bc	L35
  1434  008AB0                     l159:
  1435                           ;pomiar.c: 399: else DtCO._su_CO=0;
  1436  008AB0  0102               	movlb	_DtCO shr (0+8)
  1437  008AB2  930C               	bcf	_DtCO& (0+255),1,b
  1438  008AB4                     l160:
  1439                           ;pomiar.c: 400: if(DtCO.CO<=82) DtCO._ptwp_CO=1;
  1440  008AB4  0E53               	movlw	83
  1441  008AB6  0102               	movlb	(_DtCO+2) shr (0+8)
  1442  008AB8  610E               	cpfslt	(_DtCO+2)& (0+255),b
  1443  008ABA  D001               	goto	l161
  1444  008ABC  810D               	bsf	(_DtCO+1)& (0+255),0,b
  1445  008ABE                     l161:
  1446                           ;pomiar.c: 401: if(DtCO.CO>82+1) DtCO._ptwp_CO=0
      +                          ;
  1447  008ABE  0E53               	movlw	83
  1448  008AC0                     L33:
  1449  008AC0  0102               	movlb	(_DtCO+2) shr (0+8)
  1450  008AC2  650E               	cpfsgt	(_DtCO+2)& (0+255),b
  1451  008AC4  D001               	goto	l162
  1452  008AC6  910D               	bcf	(_DtCO+1)& (0+255),0,b
  1453  008AC8                     l162:
  1454                           ;pomiar.c: 402: if(DtCO.CO<=82) DtCO._pz_CO=1;
  1455  008AC8  0E53               	movlw	83
  1456  008ACA  0102               	movlb	(_DtCO+2) shr (0+8)
  1457  008ACC  610E               	cpfslt	(_DtCO+2)& (0+255),b
  1458  008ACE  D001               	goto	l163
  1459  008AD0  830D               	bsf	(_DtCO+1)& (0+255),1,b
  1460  008AD2                     l163:
  1461                           ;pomiar.c: 403: if(DtCO.CO>88) DtCO._pz_CO=0;
  1462  008AD2  0E58               	movlw	88
  1463  008AD4  0102               	movlb	(_DtCO+2) shr (0+8)
  1464  008AD6  650E               	cpfsgt	(_DtCO+2)& (0+255),b
  1465  008AD8  D001               	goto	l164
  1466  008ADA  930D               	bcf	(_DtCO+1)& (0+255),1,b
  1467  008ADC                     l164:
  1468                           ;pomiar.c: 404: if(DtCO.CO<=7) DtCO._cold_CO=1;
  1469  008ADC  0E08               	movlw	8
  1470  008ADE  0102               	movlb	(_DtCO+2) shr (0+8)
  1471  008AE0  610E               	cpfslt	(_DtCO+2)& (0+255),b
  1472  008AE2  D001               	goto	l165
  1473  008AE4  850D               	bsf	(_DtCO+1)& (0+255),2,b
  1474  008AE6                     l165:
  1475                           ;pomiar.c: 405: if(DtCO.CO>7+1) DtCO._cold_CO=0;
  1476  008AE6  0E08               	movlw	8
  1477  008AE8  0102               	movlb	(_DtCO+2) shr (0+8)
  1478  008AEA  650E               	cpfsgt	(_DtCO+2)& (0+255),b
  1479  008AEC  D001               	goto	l166
  1480  008AEE  950D               	bcf	(_DtCO+1)& (0+255),2,b
  1481  008AF0                     l166:
  1482                           ;pomiar.c: 406: if(DtCO.CO>=88) DtCO._hot_CO=1;
  1483  008AF0  0E57               	movlw	87
  1484  008AF2  0102               	movlb	(_DtCO+2) shr (0+8)
  1485  008AF4  650E               	cpfsgt	(_DtCO+2)& (0+255),b
  1486  008AF6  D001               	goto	l167
  1487  008AF8  870D               	bsf	(_DtCO+1)& (0+255),3,b
  1488  008AFA                     l167:
  1489                           ;pomiar.c: 407: if(DtCO.CO<88-1) DtCO._hot_CO=0;
  1490  008AFA  0E57               	movlw	87
  1491  008AFC  0102               	movlb	(_DtCO+2) shr (0+8)
  1492  008AFE  610E               	cpfslt	(_DtCO+2)& (0+255),b
  1493  008B00  D010               	goto	l114
  1494  008B02  970D               	bcf	(_DtCO+1)& (0+255),3,b
  1495                           ;pomiar.c: 408: break;
  1496  008B04  D00E               	goto	l114
  1497  008B06                     l115:
  1498  008B06  C08B  FFE8         	movff	_DtKNF+7,wreg
  1499  008B0A  0A00               	xorlw	0
  1500  008B0C  E08C               	bz	l143
  1501  008B0E  0A01               	xorlw	1
  1502  008B10  E101 D74A          	bz	l117
  1503  008B14  0A03               	xorlw	3
  1504  008B16  E101 D747          	bz	l117
  1505  008B1A  0A01               	xorlw	1
  1506  008B1C  E101 D771          	bz	l130
  1507  008B20  D7A5               	goto	l156
  1508  008B22                     l114:
  1509                           ;pomiar.c: 412: if(DtCO.CO<=8)
  1510  008B22  0E09               	movlw	9
  1511  008B24  0102               	movlb	(_DtCO+2) shr (0+8)
  1512  008B26  610E               	cpfslt	(_DtCO+2)& (0+255),b
  1513  008B28  D003               	goto	l169
  1514                           ;pomiar.c: 413: {
  1515  008B2A  8D0C               	bsf	_DtCO& (0+255),6,b
  1516                           ;pomiar.c: 415: DtCO._on_DZ_CO=1;
  1517  008B2C  8B0C               	bsf	_DtCO& (0+255),5,b
  1518                           ;pomiar.c: 416: }
  1519  008B2E  D002               	goto	l170
  1520  008B30                     l169:
  1521                           ;pomiar.c: 417: else DtCO._su_DZ_CO=0;
  1522  008B30  0102               	movlb	_DtCO shr (0+8)
  1523  008B32  9D0C               	bcf	_DtCO& (0+255),6,b
  1524  008B34                     l170:
  1525                           ;pomiar.c: 418: if(DtCO.CO>20)
  1526  008B34  0E14               	movlw	20
  1527  008B36  0102               	movlb	(_DtCO+2) shr (0+8)
  1528  008B38  650E               	cpfsgt	(_DtCO+2)& (0+255),b
  1529  008B3A  D003               	goto	l171
  1530                           ;pomiar.c: 419: {
  1531  008B3C  8F0C               	bsf	_DtCO& (0+255),7,b
  1532                           ;pomiar.c: 421: DtCO._on_DZ_CO=0;
  1533  008B3E  9B0C               	bcf	_DtCO& (0+255),5,b
  1534                           ;pomiar.c: 422: }
  1535  008B40  D002               	goto	l172
  1536  008B42                     l171:
  1537                           ;pomiar.c: 423: else DtCO._ad_DZ_CO=0;
  1538  008B42  0102               	movlb	_DtCO shr (0+8)
  1539  008B44  9F0C               	bcf	_DtCO& (0+255),7,b
  1540  008B46                     l172:
  1541                           ;pomiar.c: 425: if(!DtKNF.opdg)
  1542  008B46  EE00  F093         	lfsr	0,_DtKNF+15
  1543  008B4A  50EF               	movf	indf0,w,c
  1544  008B4C  E111               	bnz	l173
  1545                           ;pomiar.c: 426: {
  1546  008B4E  0E4F               	movlw	79
  1547  008B50  0102               	movlb	(_DtCO+2) shr (0+8)
  1548  008B52  610E               	cpfslt	(_DtCO+2)& (0+255),b
  1549  008B54  D002               	goto	l174
  1550  008B56  870C               	bsf	_DtCO& (0+255),3,b
  1551  008B58  D002               	goto	l175
  1552  008B5A                     l174:
  1553                           ;pomiar.c: 428: else DtCO._su_SRW_CO=0;
  1554  008B5A  0102               	movlb	_DtCO shr (0+8)
  1555  008B5C  970C               	bcf	_DtCO& (0+255),3,b
  1556  008B5E                     l175:
  1557                           ;pomiar.c: 429: if(DtCO.CO>88) DtCO._ad_SRW_CO=1
      +                          ;
  1558  008B5E  0E58               	movlw	88
  1559  008B60  0102               	movlb	(_DtCO+2) shr (0+8)
  1560  008B62  650E               	cpfsgt	(_DtCO+2)& (0+255),b
  1561  008B64  D002               	goto	l176
  1562  008B66  890C               	bsf	_DtCO& (0+255),4,b
  1563  008B68  0C58               	retlw	88
  1564  008B6A                     l176:
  1565                           ;pomiar.c: 430: else DtCO._ad_SRW_CO=0;
  1566  008B6A  0102               	movlb	_DtCO shr (0+8)
  1567  008B6C  990C               	bcf	_DtCO& (0+255),4,b
  1568                           ;pomiar.c: 431: }
  1569  008B6E  0012               	return	
  1570  008B70                     l173:
  1571                           ;pomiar.c: 432: else
  1572  008B70  0E31               	movlw	49
  1573  008B72  0102               	movlb	(_DtCO+2) shr (0+8)
  1574  008B74  610E               	cpfslt	(_DtCO+2)& (0+255),b
  1575  008B76  D002               	goto	l179
  1576  008B78  870C               	bsf	_DtCO& (0+255),3,b
  1577  008B7A  D002               	goto	l180
  1578  008B7C                     l179:
  1579                           ;pomiar.c: 435: else DtCO._su_SRW_CO=0;
  1580  008B7C  0102               	movlb	_DtCO shr (0+8)
  1581  008B7E  970C               	bcf	_DtCO& (0+255),3,b
  1582  008B80                     l180:
  1583                           ;pomiar.c: 436: if(DtCO.CO>58) DtCO._ad_SRW_CO=1
      +                          ;
  1584  008B80  0E3A               	movlw	58
  1585  008B82  0102               	movlb	(_DtCO+2) shr (0+8)
  1586  008B84  650E               	cpfsgt	(_DtCO+2)& (0+255),b
  1587  008B86  D002               	goto	l181
  1588  008B88  890C               	bsf	_DtCO& (0+255),4,b
  1589  008B8A  0C3A               	retlw	58
  1590  008B8C                     l181:
  1591                           ;pomiar.c: 437: else DtCO._ad_SRW_CO=0;
  1592  008B8C  0102               	movlb	_DtCO shr (0+8)
  1593  008B8E  990C               	bcf	_DtCO& (0+255),4,b
  1594                           ;pomiar.c: 438: }
  1595  008B90  0012               	return	
  1596  008B92                     __end_of_PomiarCO:
  1597                           ;pomiar.c: 443: void PomiarIN(void)
  1598                           ;pomiar.c: 444: {
  1599  008B92                     _PomiarIN:
  1600  000000                     
  1601                           ;pomiar.c: 445: signed char delta;
  1602  008B92  0E04               	movlw	4
  1603  008B94  ECD5  F06F         	call	_ReadAC
  1604  008B98  CFE8 F22B          	movff	wreg,_DtIN+1
  1605                           ;pomiar.c: 448: DtIN.IN=ReadTabNTC(DtIN.AC_IN);
  1606  008B9C  C22B  FFE8         	movff	_DtIN+1,wreg
  1607  008BA0  EC0B  F070         	call	_ReadTabNTC
  1608  008BA4  CFE8 F22C          	movff	wreg,_DtIN+2
  1609                           ;pomiar.c: 449: PFN.IN=DtIN.IN;
  1610  008BA8  C22C  F163         	movff	_DtIN+2,_PFN+12
  1611                           ;pomiar.c: 450: if(DtIN.AC_IN<=0X28||DtIN.AC_IN>
      +                          =0XF5)
  1612  008BAC  0E29               	movlw	41
  1613  008BAE  0102               	movlb	(_DtIN+1) shr (0+8)
  1614  008BB0  612B               	cpfslt	(_DtIN+1)& (0+255),b
  1615  008BB2  D001               	goto	u1221
  1616  008BB4  D003               	goto	u1240
  1617  008BB6                     u1221:
  1618  008BB6  0EF4               	movlw	-12
  1619  008BB8  652B               	cpfsgt	(_DtIN+1)& (0+255),b
  1620  008BBA  D003               	goto	l184
  1621  008BBC                     u1240:
  1622                           ;pomiar.c: 451: {
  1623  008BBC  0102               	movlb	_DtIN shr (0+8)
  1624  008BBE  812A               	bsf	_DtIN& (0+255),0,b
  1625                           ;pomiar.c: 453: return;
  1626  008BC0  0012               	return	
  1627  008BC2                     l184:
  1628                           ;pomiar.c: 455: else DtIN._err_IN=0;
  1629  008BC2  0102               	movlb	_DtIN shr (0+8)
  1630  008BC4  912A               	bcf	_DtIN& (0+255),0,b
  1631                           ;pomiar.c: 456: }
  1632  008BC6  0012               	return	
  1633  008BC8                     __end_of_PomiarIN:
  1634                           ;pomiar.c: 459: void PomiarCW(void)
  1635                           ;pomiar.c: 460: {
  1636  008BC8                     _PomiarCW:
  1637  000000                     
  1638                           ;pomiar.c: 461: DtCW.AC_CW=ReadAC(1);
  1639  008BC8  0E01               	movlw	1
  1640  008BCA  ECD5  F06F         	call	_ReadAC
  1641  008BCE  CFE8 F227          	movff	wreg,_DtCW+12
  1642                           ;pomiar.c: 462: DtCW.CW=ReadTabNTC(DtCW.AC_CW);
  1643  008BD2  C227  FFE8         	movff	_DtCW+12,wreg
  1644  008BD6  EC0B  F070         	call	_ReadTabNTC
  1645  008BDA  CFE8 F21D          	movff	wreg,_DtCW+2
  1646                           ;pomiar.c: 464: if(DtCW.AC_CW<=0X28||DtCW.AC_CW>
      +                          =0XF5)
  1647  008BDE  0E29               	movlw	41
  1648  008BE0  0102               	movlb	(_DtCW+12) shr (0+8)
  1649  008BE2  6127               	cpfslt	(_DtCW+12)& (0+255),b
  1650  008BE4  D001               	goto	u1251
  1651  008BE6  D003               	goto	u1270
  1652  008BE8                     u1251:
  1653  008BE8  0EF4               	movlw	-12
  1654  008BEA  6527               	cpfsgt	(_DtCW+12)& (0+255),b
  1655  008BEC  D00A               	goto	l187
  1656  008BEE                     u1270:
  1657                           ;pomiar.c: 465: {
  1658  008BEE  0102               	movlb	_DtCW shr (0+8)
  1659  008BF0  811B               	bsf	_DtCW& (0+255),0,b
  1660                           ;pomiar.c: 467: DtCW._su_CW=0;
  1661  008BF2  931B               	bcf	_DtCW& (0+255),1,b
  1662                           ;pomiar.c: 468: DtCW._ad_CW=0;
  1663  008BF4  951B               	bcf	_DtCW& (0+255),2,b
  1664                           ;pomiar.c: 469: DtCW._cold_CW=0;
  1665  008BF6  9F1B               	bcf	_DtCW& (0+255),7,b
  1666                           ;pomiar.c: 470: DtCW._on_DZ_CW=0;
  1667  008BF8  991B               	bcf	_DtCW& (0+255),4,b
  1668                           ;pomiar.c: 471: DtCW._su_DZ_CW=0;
  1669  008BFA  9B1B               	bcf	_DtCW& (0+255),5,b
  1670                           ;pomiar.c: 472: DtCW._ad_DZ_CW=0;
  1671  008BFC  9D1B               	bcf	_DtCW& (0+255),6,b
  1672                           ;pomiar.c: 473: DtCW._wpz_CW=0;
  1673  008BFE  971B               	bcf	_DtCW& (0+255),3,b
  1674                           ;pomiar.c: 474: return;
  1675  008C00  0012               	return	
  1676  008C02                     l187:
  1677                           ;pomiar.c: 476: else DtCW._err_CW=0;
  1678  008C02  0102               	movlb	_DtCW shr (0+8)
  1679  008C04  911B               	bcf	_DtCW& (0+255),0,b
  1680                           ;pomiar.c: 477: switch(DtKNF.tpkt)
  1681  008C06  D060               	goto	l190
  1682  008C08                     l192:
  1683                           ;pomiar.c: 480: case 2:
  1684  008C08  0E37               	movlw	55
  1685  008C0A  0102               	movlb	(_DtCW+3) shr (0+8)
  1686  008C0C  611E               	cpfslt	(_DtCW+3)& (0+255),b
  1687  008C0E  D010               	goto	l193
  1688                           ;pomiar.c: 487: {
  1689  008C10  0E41               	movlw	65
  1690  008C12  651D               	cpfsgt	(_DtCW+2)& (0+255),b
  1691  008C14  D002               	goto	l194
  1692  008C16  851B               	bsf	_DtCW& (0+255),2,b
  1693  008C18  D002               	goto	l205
  1694  008C1A                     l194:
  1695                           ;pomiar.c: 489: else DtCW._ad_CW=0;
  1696  008C1A  0102               	movlb	_DtCW shr (0+8)
  1697  008C1C  951B               	bcf	_DtCW& (0+255),2,b
  1698                           ;pomiar.c: 506: else DtCW._ad_CW=0;
  1699  008C1E                     l205:
  1700                           ;pomiar.c: 507: if(DtCW.CW<=65-2) DtCW._su_CW=1;
  1701  008C1E  0E40               	movlw	64
  1702                           ;pomiar.c: 490: if(DtCW.CW<=65-2) DtCW._su_CW=1;
  1703  008C20                     L25:
  1704  008C20  0102               	movlb	(_DtCW+2) shr (0+8)
  1705  008C22  611D               	cpfslt	(_DtCW+2)& (0+255),b
  1706  008C24  D002               	goto	l196
  1707  008C26  831B               	bsf	_DtCW& (0+255),1,b
  1708  008C28  D05A               	goto	l189
  1709  008C2A                     l196:
  1710                           ;pomiar.c: 491: else DtCW._su_CW=0;
  1711  008C2A  0102               	movlb	_DtCW shr (0+8)
  1712  008C2C  931B               	bcf	_DtCW& (0+255),1,b
  1713                           ;pomiar.c: 492: }
  1714  008C2E  D057               	goto	l189
  1715  008C30                     l193:
  1716                           ;pomiar.c: 493: else
  1717  008C30  0E46               	movlw	70
  1718  008C32  0102               	movlb	(_DtCW+2) shr (0+8)
  1719  008C34  651D               	cpfsgt	(_DtCW+2)& (0+255),b
  1720  008C36  D002               	goto	l199
  1721  008C38  851B               	bsf	_DtCW& (0+255),2,b
  1722  008C3A  D002               	goto	l200
  1723  008C3C                     l199:
  1724                           ;pomiar.c: 496: else DtCW._ad_CW=0;
  1725  008C3C  0102               	movlb	_DtCW shr (0+8)
  1726  008C3E  951B               	bcf	_DtCW& (0+255),2,b
  1727  008C40                     l200:
  1728                           ;pomiar.c: 497: if(DtCW.CW<=70-2) DtCW._su_CW=1;
  1729  008C40  0E45               	movlw	69
  1730  008C42  D7EE               	goto	L25
  1731                           ;pomiar.c: 498: else DtCW._su_CW=0;
  1732                           ;pomiar.c: 499: }
  1733  008C44                     l203:
  1734  008C44  D03B               	goto	l219
  1735                           ;pomiar.c: 502: }
  1736                           ;pomiar.c: 504: {
  1737                           ;pomiar.c: 508: else DtCW._su_CW=0;
  1738                           ;pomiar.c: 509: break;
  1739  008C46                     l208:
  1740                           ;pomiar.c: 510: }
  1741                           ;pomiar.c: 512: {
  1742  008C46  C21F  FFE8         	movff	_DtCW+4,wreg
  1743  008C4A  C21D  F000         	movff	_DtCW+2,btemp
  1744  008C4E  6A01               	clrf	btemp+1,c
  1745  008C50  5E00               	subwf	btemp,f,c
  1746  008C52  0E00               	movlw	0
  1747  008C54  5A01               	subwfb	btemp+1,f,c
  1748  008C56  5001               	movf	btemp+1,w,c
  1749  008C58  0A80               	xorlw	128
  1750  008C5A  0F80               	addlw	-128
  1751  008C5C  0E01               	movlw	1
  1752  008C5E  B4D8               	btfsc	status,2,c
  1753  008C60  5C00               	subwf	btemp,w,c
  1754  008C62  0102               	movlb	_DtCW shr (0+8)
  1755  008C64  E302               	bnc	L42
  1756  008C66  851B               	bsf	_DtCW& (0+255),2,b
  1757  008C68  D001               	goto	l210
  1758                           ;pomiar.c: 514: else DtCW._ad_CW=0;
  1759  008C6A                     L42:
  1760  008C6A  951B               	bcf	_DtCW& (0+255),2,b
  1761  008C6C                     l210:
  1762                           ;pomiar.c: 515: if((DtCW.PPCW-DtCW.CW)>=5) DtCW.
      +                          _su_CW=1;
  1763  008C6C  C21D  FFE8         	movff	_DtCW+2,wreg
  1764  008C70  C21F  F000         	movff	_DtCW+4,btemp
  1765  008C74  6A01               	clrf	btemp+1,c
  1766  008C76  5E00               	subwf	btemp,f,c
  1767  008C78  0E00               	movlw	0
  1768  008C7A  5A01               	subwfb	btemp+1,f,c
  1769  008C7C  5001               	movf	btemp+1,w,c
  1770  008C7E  0A80               	xorlw	128
  1771  008C80  0F80               	addlw	-128
  1772  008C82  0E05               	movlw	5
  1773  008C84  B4D8               	btfsc	status,2,c
  1774  008C86  5C00               	subwf	btemp,w,c
  1775  008C88  0102               	movlb	_DtCW shr (0+8)
  1776  008C8A  E302               	bnc	L43
  1777  008C8C  831B               	bsf	_DtCW& (0+255),1,b
  1778  008C8E  D001               	goto	l212
  1779                           ;pomiar.c: 516: else DtCW._su_CW=0;
  1780  008C90                     L43:
  1781  008C90  931B               	bcf	_DtCW& (0+255),1,b
  1782  008C92                     l212:
  1783                           ;pomiar.c: 517: if(RdPrt(11))
  1784  008C92  0E0B               	movlw	11
  1785  008C94  ECA6  F068         	call	_RdPrt
  1786  008C98  E30F               	bnc	l213
  1787                           ;pomiar.c: 518: {
  1788  008C9A  0102               	movlb	_DtCW shr (0+8)
  1789  008C9C  A31B               	btfss	_DtCW& (0+255),1,b
  1790  008C9E  D002               	goto	l214
  1791  008CA0  871B               	bsf	_DtCW& (0+255),3,b
  1792  008CA2  D005               	goto	l215
  1793  008CA4                     l214:
  1794                           ;pomiar.c: 520: else if(!M._PRACA) DtCW._wpz_CW=
      +                          0;
  1795  008CA4  0101               	movlb	(_M+27) shr (0+8)
  1796  008CA6  B595               	btfsc	(_M+27)& (0+255),2,b
  1797  008CA8  D002               	goto	l215
  1798  008CAA  0102               	movlb	_DtCW shr (0+8)
  1799  008CAC  971B               	bcf	_DtCW& (0+255),3,b
  1800  008CAE                     l215:
  1801                           ;pomiar.c: 521: if (DtCW._ad_CW) DtCW._wpz_CW=0;
  1802  008CAE  0102               	movlb	_DtCW shr (0+8)
  1803  008CB0  A51B               	btfss	_DtCW& (0+255),2,b
  1804  008CB2  D015               	goto	l189
  1805  008CB4                     u1400:
  1806  008CB4  971B               	bcf	_DtCW& (0+255),3,b
  1807                           ;pomiar.c: 522: }
  1808  008CB6  D013               	goto	l189
  1809  008CB8                     l213:
  1810                           ;pomiar.c: 523: else DtCW._wpz_CW=0;
  1811  008CB8  0102               	movlb	_DtCW shr (0+8)
  1812  008CBA  D7FC               	goto	u1400
  1813                           ;pomiar.c: 524: break;
  1814  008CBC                     l219:
  1815                           ;pomiar.c: 525: }
  1816                           ;pomiar.c: 527: {
  1817  008CBC  0E41               	movlw	65
  1818  008CBE  0102               	movlb	(_DtCW+2) shr (0+8)
  1819  008CC0  651D               	cpfsgt	(_DtCW+2)& (0+255),b
  1820  008CC2  D7AB               	goto	l194
  1821  008CC4  851B               	bsf	_DtCW& (0+255),2,b
  1822  008CC6  D7AB               	goto	l205
  1823                           ;pomiar.c: 529: else DtCW._ad_CW=0;
  1824                           ;pomiar.c: 530: if(DtCW.CW<=65-2) DtCW._su_CW=1;
  1825                           ;pomiar.c: 531: else DtCW._su_CW=0;
  1826                           ;pomiar.c: 532: break;
  1827  008CC8                     l190:
  1828  008CC8  C08B  FFE8         	movff	_DtKNF+7,wreg
  1829  008CCC  0A00               	xorlw	0
  1830  008CCE  E0BB               	bz	l208
  1831  008CD0  0A01               	xorlw	1
  1832  008CD2  E09A               	bz	l192
  1833  008CD4  0A03               	xorlw	3
  1834  008CD6  E098               	bz	l192
  1835  008CD8  0A01               	xorlw	1
  1836  008CDA  E0B4               	bz	l203
  1837  008CDC  D7EF               	goto	l219
  1838  008CDE                     l189:
  1839                           ;pomiar.c: 535: if(DtCW.CW<=5)
  1840  008CDE  0E06               	movlw	6
  1841  008CE0  0102               	movlb	(_DtCW+2) shr (0+8)
  1842  008CE2  611D               	cpfslt	(_DtCW+2)& (0+255),b
  1843  008CE4  D003               	goto	l224
  1844                           ;pomiar.c: 536: {
  1845  008CE6  8B1B               	bsf	_DtCW& (0+255),5,b
  1846                           ;pomiar.c: 538: DtCW._on_DZ_CW=1;
  1847  008CE8  891B               	bsf	_DtCW& (0+255),4,b
  1848                           ;pomiar.c: 539: }
  1849  008CEA  D002               	goto	l225
  1850  008CEC                     l224:
  1851                           ;pomiar.c: 540: else DtCW._su_DZ_CW=0;
  1852  008CEC  0102               	movlb	_DtCW shr (0+8)
  1853  008CEE  9B1B               	bcf	_DtCW& (0+255),5,b
  1854  008CF0                     l225:
  1855                           ;pomiar.c: 541: if(DtCW.CW>10)
  1856  008CF0  0E0A               	movlw	10
  1857  008CF2  0102               	movlb	(_DtCW+2) shr (0+8)
  1858  008CF4  651D               	cpfsgt	(_DtCW+2)& (0+255),b
  1859  008CF6  D003               	goto	l226
  1860                           ;pomiar.c: 542: {
  1861  008CF8  8D1B               	bsf	_DtCW& (0+255),6,b
  1862                           ;pomiar.c: 544: DtCW._on_DZ_CW=0;
  1863  008CFA  991B               	bcf	_DtCW& (0+255),4,b
  1864                           ;pomiar.c: 545: }
  1865  008CFC  D002               	goto	l227
  1866  008CFE                     l226:
  1867                           ;pomiar.c: 546: else DtCW._ad_DZ_CW=0;
  1868  008CFE  0102               	movlb	_DtCW shr (0+8)
  1869  008D00  9D1B               	bcf	_DtCW& (0+255),6,b
  1870  008D02                     l227:
  1871                           ;pomiar.c: 547: if(DtCW.CW<=5) DtCW._cold_CW=1;
  1872  008D02  0E06               	movlw	6
  1873  008D04  0102               	movlb	(_DtCW+2) shr (0+8)
  1874  008D06  611D               	cpfslt	(_DtCW+2)& (0+255),b
  1875  008D08  D001               	goto	l228
  1876  008D0A  8F1B               	bsf	_DtCW& (0+255),7,b
  1877  008D0C                     l228:
  1878                           ;pomiar.c: 548: if(DtCW.CW>5+1) DtCW._cold_CW=0;
  1879  008D0C  0E06               	movlw	6
  1880  008D0E  0102               	movlb	(_DtCW+2) shr (0+8)
  1881  008D10  651D               	cpfsgt	(_DtCW+2)& (0+255),b
  1882  008D12  0C06               	retlw	6
  1883  008D14  9F1B               	bcf	_DtCW& (0+255),7,b
  1884                           ;pomiar.c: 549: }
  1885  008D16  0C06               	retlw	6
  1886  008D18                     __end_of_PomiarCW:
  1887                           ;pomiar.c: 552: void PomiarZW(void)
  1888                           ;pomiar.c: 553: {
  1889  008D18                     _PomiarZW:
  1890  000000                     
  1891                           ;pomiar.c: 554: DtZW.AC_ZW=ReadAC(2);
  1892  008D18  0E02               	movlw	2
  1893  008D1A  ECD5  F06F         	call	_ReadAC
  1894  008D1E  CFE8 F209          	movff	wreg,_DtZW+1
  1895                           ;pomiar.c: 555: DtZW.ZW=ReadTabZNTC(DtZW.AC_ZW);
  1896  008D22  C209  FFE8         	movff	_DtZW+1,wreg
  1897  008D26  EC5C  F070         	call	_ReadTabZNTC
  1898  008D2A  CFE8 F20A          	movff	wreg,_DtZW+2
  1899                           ;pomiar.c: 556: if(DtZW.AC_ZW<=0x0F||DtZW.AC_ZW>
      +                          =0xF0) DtZW._on_ZW=0;
  1900  008D2E  0E10               	movlw	16
  1901  008D30  0102               	movlb	(_DtZW+1) shr (0+8)
  1902  008D32  6109               	cpfslt	(_DtZW+1)& (0+255),b
  1903  008D34  D001               	goto	u1471
  1904  008D36  D003               	goto	u1490
  1905  008D38                     u1471:
  1906  008D38  0EEF               	movlw	-17
  1907  008D3A  6509               	cpfsgt	(_DtZW+1)& (0+255),b
  1908  008D3C  D003               	goto	l231
  1909  008D3E                     u1490:
  1910  008D3E  0102               	movlb	_DtZW shr (0+8)
  1911  008D40  9108               	bcf	_DtZW& (0+255),0,b
  1912  008D42  0012               	return	
  1913  008D44                     l231:
  1914                           ;pomiar.c: 557: else DtZW._on_ZW=1;
  1915  008D44  0102               	movlb	_DtZW shr (0+8)
  1916  008D46  8108               	bsf	_DtZW& (0+255),0,b
  1917                           ;pomiar.c: 558: }
  1918  008D48  0012               	return	
  1919  008D4A                     __end_of_PomiarZW:
  1920                           ;pomiar.c: 561: void SetModPCO(void)
  1921                           ;pomiar.c: 562: {
  1922  008D4A                     _SetModPCO:
  1923  000000                     
  1924                           ;pomiar.c: 563: if(M._AKTYWNE_KNF)
  1925  008D4A  0101               	movlb	(_M+24) shr (0+8)
  1926  008D4C  5192               	movf	(_M+24)& (0+255),w,b
  1927  008D4E  1193               	iorwf	(_M+25)& (0+255),w,b
  1928  008D50  E00A               	bz	l234
  1929                           ;pomiar.c: 564: {
  1930  008D52  EE00  F093         	lfsr	0,_DtKNF+15
  1931  008D56  50EF               	movf	indf0,w,c
  1932  008D58  E104               	bnz	l235
  1933                           ;pomiar.c: 570: {
  1934  008D5A                     l242:
  1935                           ;pomiar.c: 574: case 2:
  1936  008D5A  0E55               	movlw	85
  1937  008D5C                     L10:
  1938  008D5C  CFE8 F210          	movff	wreg,_DtCO+4
  1939  008D60  D01C               	goto	l237
  1940  008D62                     l235:
  1941                           ;pomiar.c: 566: else DtCO.PPCO=55;
  1942  008D62  0E37               	movlw	55
  1943  008D64  D7FB               	goto	L10
  1944                           ;pomiar.c: 567: }
  1945  008D66                     l234:
  1946                           ;pomiar.c: 568: else
  1947  008D66  0101               	movlb	(_M+8) shr (0+8)
  1948  008D68  5182               	movf	(_M+8)& (0+255),w,b
  1949  008D6A  1183               	iorwf	(_M+9)& (0+255),w,b
  1950  008D6C  E102               	bnz	l240
  1951  008D6E  D00C               	goto	l238
  1952                           ;pomiar.c: 577: break;
  1953  008D70                     l243:
  1954                           ;pomiar.c: 578: }
  1955                           ;pomiar.c: 580: {
  1956                           ;pomiar.c: 582: break;
  1957  008D70                     l244:
  1958  008D70  D7F4               	goto	l242
  1959                           ;pomiar.c: 583: }
  1960                           ;pomiar.c: 585: {
  1961                           ;pomiar.c: 587: break;
  1962                           ;pomiar.c: 588: }
  1963                           ;pomiar.c: 590: {
  1964                           ;pomiar.c: 592: break;
  1965  008D72                     l240:
  1966  008D72  C08B  FFE8         	movff	_DtKNF+7,wreg
  1967  008D76  0A00               	xorlw	0
  1968  008D78  E0FB               	bz	l244
  1969  008D7A  0A01               	xorlw	1
  1970  008D7C  E0EE               	bz	l242
  1971  008D7E  0A03               	xorlw	3
  1972  008D80  E0EC               	bz	l242
  1973  008D82  0A01               	xorlw	1
  1974  008D84  E0F5               	bz	l243
  1975  008D86  D7E9               	goto	l242
  1976                           ;pomiar.c: 595: }
  1977  008D88                     l238:
  1978                           ;pomiar.c: 596: else
  1979  008D88  0101               	movlb	(_M+22) shr (0+8)
  1980  008D8A  5190               	movf	(_M+22)& (0+255),w,b
  1981  008D8C  1191               	iorwf	(_M+23)& (0+255),w,b
  1982  008D8E  E003               	bz	l247
  1983  008D90  C213  F210         	movff	_DtCO+7,_DtCO+4
  1984  008D94  D002               	goto	l237
  1985  008D96                     l247:
  1986                           ;pomiar.c: 598: else
  1987  008D96  C20F  F210         	movff	_DtCO+3,_DtCO+4
  1988  008D9A                     l237:
  1989                           ;pomiar.c: 601: }
  1990  008D9A  EE00  F093         	lfsr	0,_DtKNF+15
  1991  008D9E  50EF               	movf	indf0,w,c
  1992  008DA0  E109               	bnz	l249
  1993                           ;pomiar.c: 603: {
  1994  008DA2  0101               	movlb	(_M+4) shr (0+8)
  1995  008DA4  517E               	movf	(_M+4)& (0+255),w,b
  1996  008DA6  117F               	iorwf	(_M+5)& (0+255),w,b
  1997  008DA8  E103               	bnz	l250
  1998  008DAA                     u1550:
  1999  008DAA  C210  F164         	movff	_DtCO+4,_PFN+13
  2000  008DAE  D009               	goto	l252
  2001  008DB0                     l250:
  2002                           ;pomiar.c: 605: else PFN.PPCO=88;
  2003  008DB0  0E58               	movlw	88
  2004  008DB2  D005               	goto	L26
  2005                           ;pomiar.c: 606: }
  2006  008DB4                     l249:
  2007                           ;pomiar.c: 607: else
  2008  008DB4  0101               	movlb	(_M+4) shr (0+8)
  2009  008DB6  517E               	movf	(_M+4)& (0+255),w,b
  2010  008DB8  117F               	iorwf	(_M+5)& (0+255),w,b
  2011  008DBA  E0F7               	bz	u1550
  2012                           ;pomiar.c: 610: else PFN.PPCO=58;
  2013  008DBC  0E3A               	movlw	58
  2014  008DBE                     L26:
  2015  008DBE  CFE8 F164          	movff	wreg,_PFN+13
  2016  008DC2                     l252:
  2017                           ;pomiar.c: 611: }
  2018  008DC2  0101               	movlb	(_M+12) shr (0+8)
  2019  008DC4  5186               	movf	(_M+12)& (0+255),w,b
  2020  008DC6  1187               	iorwf	(_M+13)& (0+255),w,b
  2021  008DC8  B4D8               	btfsc	status,2,c
  2022  008DCA  0012               	return	
  2023  008DCC  0E15               	movlw	21
  2024  008DCE  CFE8 F164          	movff	wreg,_PFN+13
  2025                           ;pomiar.c: 613: }
  2026  008DD2  0C15               	retlw	21
  2027  008DD4                     __end_of_SetModPCO:
  2028                           ;pomiar.c: 649: unsigned char GetPGD_PCO(void)
  2029                           ;pomiar.c: 650: {
  2030  008DD4                     _GetPGD_PCO:
  2031  000000                     
  2032                           ;pomiar.c: 651: unsigned char p;
  2033  008DD4  EE00  F093         	lfsr	0,_DtKNF+15
  2034  008DD8  50EF               	movf	indf0,w,c
  2035  008DDA  E001 D08A          	bnz	l257
  2036                           ;pomiar.c: 655: {
  2037  008DDE  EE02  F00F         	lfsr	0,_DtCO+3
  2038  008DE2  50EF               	movf	indf0,w,c
  2039  008DE4  E101 D084          	bz	l258
  2040                           ;pomiar.c: 657: {
  2041  008DE8  C20B  FFE8         	movff	_DtZW+3,wreg
  2042  008DEC  0A80               	xorlw	128
  2043  008DEE  0F67               	addlw	-153
  2044  008DF0  E27E               	bc	l259
  2045                           ;pomiar.c: 659: {
  2046  008DF2  C20F  F002         	movff	_DtCO+3,btemp+2
  2047  008DF6  6A03               	clrf	btemp+3,c
  2048  008DF8  C20B  FFF6         	movff	_DtZW+3,tblptrl
  2049  008DFC  6AF7               	clrf	tblptrh,c
  2050  008DFE  BEF6               	btfsc	tblptrl,7,c
  2051  008E00  06F7               	decf	tblptrh,f,c
  2052  008E02  0E19               	movlw	25
  2053  008E04  6E00               	movwf	btemp,c
  2054  008E06  6A01               	clrf	btemp+1,c
  2055  008E08  50F6               	movf	tblptrl,w,c
  2056  008E0A  5E00               	subwf	btemp,f,c
  2057  008E0C  50F7               	movf	tblptrh,w,c
  2058  008E0E  5A01               	subwfb	btemp+1,f,c
  2059  008E10  EC03  F073         	call	awmul
  2060  008E14  0100               	movlb	__Lparam shr (0+8)
  2061  008E16  C004  F0D9         	movff	btemp+4,?a_GetPGD_PCO
  2062  008E1A  C005  F0DA         	movff	btemp+5,?a_GetPGD_PCO+1
  2063  008E1E  0E00               	movlw	0
  2064  008E20  BFDA               	btfsc	(?a_GetPGD_PCO+1)^(__Lparam& (0+65280)),7
      +                          ,b
  2065  008E22  0EFF               	movlw	-1
  2066  008E24  6FDB               	movwf	(?a_GetPGD_PCO+2)^(__Lparam& (0+65280)),b
  2067  008E26  6FDC               	movwf	(?a_GetPGD_PCO+3)^(__Lparam& (0+65280)),b
  2068                           ;pomiar.c: 661: m*=(85-40);
  2069  008E28  0E2D               	movlw	45
  2070  008E2A  6E04               	movwf	btemp+4,c
  2071  008E2C  6A05               	clrf	btemp+5,c
  2072  008E2E  6A06               	clrf	btemp+6,c
  2073  008E30  6A07               	clrf	btemp+7,c
  2074  008E32  0ED9               	movlw	low ?a_GetPGD_PCO
  2075  008E34  6EE9               	movwf	fsr0l,c
  2076  008E36  0E00               	movlw	high ?a_GetPGD_PCO
  2077  008E38  6EEA               	movwf	fsr0h,c
  2078  008E3A  EC2C  F073         	call	almul_f
  2079                           ;pomiar.c: 662: m*=100;
  2080  008E3E  0E64               	movlw	100
  2081  008E40  6E04               	movwf	btemp+4,c
  2082  008E42  6A05               	clrf	btemp+5,c
  2083  008E44  6A06               	clrf	btemp+6,c
  2084  008E46  6A07               	clrf	btemp+7,c
  2085  008E48  0ED9               	movlw	low ?a_GetPGD_PCO
  2086  008E4A  6EE9               	movwf	fsr0l,c
  2087  008E4C  0E00               	movlw	high ?a_GetPGD_PCO
  2088  008E4E  6EEA               	movwf	fsr0h,c
  2089  008E50  EC2C  F073         	call	almul_f
  2090                           ;pomiar.c: 663: m/=1485;
  2091  008E54  0ECD               	movlw	205
  2092  008E56  6E04               	movwf	btemp+4,c
  2093  008E58  0E05               	movlw	5
  2094  008E5A  6E05               	movwf	btemp+5,c
  2095  008E5C  6A06               	clrf	btemp+6,c
  2096  008E5E  6A07               	clrf	btemp+7,c
  2097  008E60  0ED9               	movlw	low ?a_GetPGD_PCO
  2098  008E62  6EE9               	movwf	fsr0l,c
  2099  008E64  0E00               	movlw	high ?a_GetPGD_PCO
  2100  008E66  6EEA               	movwf	fsr0h,c
  2101  008E68  EC36  F073         	call	aldiv_f
  2102                           ;pomiar.c: 664: if((40+m/100)>85) return 85;
  2103  008E6C  0E64               	movlw	100
  2104  008E6E  6E04               	movwf	btemp+4,c
  2105  008E70  6A05               	clrf	btemp+5,c
  2106  008E72  6A06               	clrf	btemp+6,c
  2107  008E74  6A07               	clrf	btemp+7,c
  2108  008E76  C0D9  F000         	movff	?a_GetPGD_PCO,btemp
  2109  008E7A  C0DA  F001         	movff	?a_GetPGD_PCO+1,btemp+1
  2110  008E7E  C0DB  F002         	movff	?a_GetPGD_PCO+2,btemp+2
  2111  008E82  C0DC  F003         	movff	?a_GetPGD_PCO+3,btemp+3
  2112  008E86  EC93  F072         	call	aldiv
  2113  008E8A  0E28               	movlw	40
  2114  008E8C  2400               	addwf	btemp,w,c
  2115  008E8E  6E04               	movwf	btemp+4,c
  2116  008E90  0E00               	movlw	0
  2117  008E92  2001               	addwfc	btemp+1,w,c
  2118  008E94  6E05               	movwf	btemp+5,c
  2119  008E96  0E00               	movlw	0
  2120  008E98  2002               	addwfc	btemp+2,w,c
  2121  008E9A  6E06               	movwf	btemp+6,c
  2122  008E9C  0E00               	movlw	0
  2123  008E9E  2003               	addwfc	btemp+3,w,c
  2124  008EA0  6E07               	movwf	btemp+7,c
  2125  008EA2  5007               	movf	btemp+7,w,c
  2126  008EA4  0A80               	xorlw	128
  2127  008EA6  0F80               	addlw	128
  2128  008EA8  E108               	bnz	u1615
  2129  008EAA  0E00               	movlw	0
  2130  008EAC  5C06               	subwf	btemp+6,w,c
  2131  008EAE  E105               	bnz	u1615
  2132  008EB0  0E00               	movlw	0
  2133  008EB2  5C05               	subwf	btemp+5,w,c
  2134  008EB4  E102               	bnz	u1615
  2135  008EB6  0E56               	movlw	86
  2136  008EB8  5C04               	subwf	btemp+4,w,c
  2137  008EBA                     u1615:
  2138  008EBA  E301               	bnc	l260
  2139  008EBC  0C55               	retlw	85
  2140  008EBE                     l260:
  2141                           ;pomiar.c: 665: else p=40+m/100;
  2142  008EBE  0E64               	movlw	100
  2143  008EC0  6E04               	movwf	btemp+4,c
  2144  008EC2  6A05               	clrf	btemp+5,c
  2145  008EC4  6A06               	clrf	btemp+6,c
  2146  008EC6  6A07               	clrf	btemp+7,c
  2147  008EC8  C0D9  F000         	movff	?a_GetPGD_PCO,btemp
  2148  008ECC  C0DA  F001         	movff	?a_GetPGD_PCO+1,btemp+1
  2149  008ED0  C0DB  F002         	movff	?a_GetPGD_PCO+2,btemp+2
  2150  008ED4  C0DC  F003         	movff	?a_GetPGD_PCO+3,btemp+3
  2151  008ED8  EC93  F072         	call	aldiv
  2152  008EDC  5000               	movf	btemp,w,c
  2153  008EDE  0F28               	addlw	40
  2154  008EE0  6ED9               	movwf	fsr2l,c
  2155                           ;pomiar.c: 666: if(p<40) return 40;
  2156  008EE2  0E28               	movlw	40
  2157  008EE4  60D9               	cpfslt	fsr2l,c
  2158  008EE6  D001               	goto	l262
  2159  008EE8  0C28               	retlw	40
  2160  008EEA                     l262:
  2161                           ;pomiar.c: 667: return p;
  2162  008EEA  50D9               	movf	fsr2l,w,c
  2163  008EEC  0012               	return	
  2164  008EEE                     l259:
  2165                           ;pomiar.c: 669: else return 40;
  2166  008EEE  0C28               	retlw	40
  2167  008EF0                     l258:
  2168                           ;pomiar.c: 671: else return 40;
  2169  008EF0  0C28               	retlw	40
  2170  008EF2                     l257:
  2171                           ;pomiar.c: 673: else
  2172  008EF2  EE02  F00F         	lfsr	0,_DtCO+3
  2173  008EF6  50EF               	movf	indf0,w,c
  2174  008EF8  E101 D084          	bz	l266
  2175                           ;pomiar.c: 676: {
  2176  008EFC  C20B  FFE8         	movff	_DtZW+3,wreg
  2177  008F00  0A80               	xorlw	128
  2178  008F02  0F67               	addlw	-153
  2179  008F04  E27E               	bc	l267
  2180                           ;pomiar.c: 678: {
  2181  008F06  C20F  F002         	movff	_DtCO+3,btemp+2
  2182  008F0A  6A03               	clrf	btemp+3,c
  2183  008F0C  C20B  FFF6         	movff	_DtZW+3,tblptrl
  2184  008F10  6AF7               	clrf	tblptrh,c
  2185  008F12  BEF6               	btfsc	tblptrl,7,c
  2186  008F14  06F7               	decf	tblptrh,f,c
  2187  008F16  0E19               	movlw	25
  2188  008F18  6E00               	movwf	btemp,c
  2189  008F1A  6A01               	clrf	btemp+1,c
  2190  008F1C  50F6               	movf	tblptrl,w,c
  2191  008F1E  5E00               	subwf	btemp,f,c
  2192  008F20  50F7               	movf	tblptrh,w,c
  2193  008F22  5A01               	subwfb	btemp+1,f,c
  2194  008F24  EC03  F073         	call	awmul
  2195  008F28  0100               	movlb	__Lparam shr (0+8)
  2196  008F2A  C004  F0D9         	movff	btemp+4,?a_GetPGD_PCO
  2197  008F2E  C005  F0DA         	movff	btemp+5,?a_GetPGD_PCO+1
  2198  008F32  0E00               	movlw	0
  2199  008F34  BFDA               	btfsc	(?a_GetPGD_PCO+1)^(__Lparam& (0+65280)),7
      +                          ,b
  2200  008F36  0EFF               	movlw	-1
  2201  008F38  6FDB               	movwf	(?a_GetPGD_PCO+2)^(__Lparam& (0+65280)),b
  2202  008F3A  6FDC               	movwf	(?a_GetPGD_PCO+3)^(__Lparam& (0+65280)),b
  2203                           ;pomiar.c: 680: m*=(55-35);
  2204  008F3C  0E14               	movlw	20
  2205  008F3E  6E04               	movwf	btemp+4,c
  2206  008F40  6A05               	clrf	btemp+5,c
  2207  008F42  6A06               	clrf	btemp+6,c
  2208  008F44  6A07               	clrf	btemp+7,c
  2209  008F46  0ED9               	movlw	low ?a_GetPGD_PCO
  2210  008F48  6EE9               	movwf	fsr0l,c
  2211  008F4A  0E00               	movlw	high ?a_GetPGD_PCO
  2212  008F4C  6EEA               	movwf	fsr0h,c
  2213  008F4E  EC2C  F073         	call	almul_f
  2214                           ;pomiar.c: 681: m*=100;
  2215  008F52  0E64               	movlw	100
  2216  008F54  6E04               	movwf	btemp+4,c
  2217  008F56  6A05               	clrf	btemp+5,c
  2218  008F58  6A06               	clrf	btemp+6,c
  2219  008F5A  6A07               	clrf	btemp+7,c
  2220  008F5C  0ED9               	movlw	low ?a_GetPGD_PCO
  2221  008F5E  6EE9               	movwf	fsr0l,c
  2222  008F60  0E00               	movlw	high ?a_GetPGD_PCO
  2223  008F62  6EEA               	movwf	fsr0h,c
  2224  008F64  EC2C  F073         	call	almul_f
  2225                           ;pomiar.c: 682: m/=1485;
  2226  008F68  0ECD               	movlw	205
  2227  008F6A  6E04               	movwf	btemp+4,c
  2228  008F6C  0E05               	movlw	5
  2229  008F6E  6E05               	movwf	btemp+5,c
  2230  008F70  6A06               	clrf	btemp+6,c
  2231  008F72  6A07               	clrf	btemp+7,c
  2232  008F74  0ED9               	movlw	low ?a_GetPGD_PCO
  2233  008F76  6EE9               	movwf	fsr0l,c
  2234  008F78  0E00               	movlw	high ?a_GetPGD_PCO
  2235  008F7A  6EEA               	movwf	fsr0h,c
  2236  008F7C  EC36  F073         	call	aldiv_f
  2237                           ;pomiar.c: 683: if((35+m/100)>55) return 55;
  2238  008F80  0E64               	movlw	100
  2239  008F82  6E04               	movwf	btemp+4,c
  2240  008F84  6A05               	clrf	btemp+5,c
  2241  008F86  6A06               	clrf	btemp+6,c
  2242  008F88  6A07               	clrf	btemp+7,c
  2243  008F8A  C0D9  F000         	movff	?a_GetPGD_PCO,btemp
  2244  008F8E  C0DA  F001         	movff	?a_GetPGD_PCO+1,btemp+1
  2245  008F92  C0DB  F002         	movff	?a_GetPGD_PCO+2,btemp+2
  2246  008F96  C0DC  F003         	movff	?a_GetPGD_PCO+3,btemp+3
  2247  008F9A  EC93  F072         	call	aldiv
  2248  008F9E  0E23               	movlw	35
  2249  008FA0  2400               	addwf	btemp,w,c
  2250  008FA2  6E04               	movwf	btemp+4,c
  2251  008FA4  0E00               	movlw	0
  2252  008FA6  2001               	addwfc	btemp+1,w,c
  2253  008FA8  6E05               	movwf	btemp+5,c
  2254  008FAA  0E00               	movlw	0
  2255  008FAC  2002               	addwfc	btemp+2,w,c
  2256  008FAE  6E06               	movwf	btemp+6,c
  2257  008FB0  0E00               	movlw	0
  2258  008FB2  2003               	addwfc	btemp+3,w,c
  2259  008FB4  6E07               	movwf	btemp+7,c
  2260  008FB6  5007               	movf	btemp+7,w,c
  2261  008FB8  0A80               	xorlw	128
  2262  008FBA  0F80               	addlw	128
  2263  008FBC  E108               	bnz	u1655
  2264  008FBE  0E00               	movlw	0
  2265  008FC0  5C06               	subwf	btemp+6,w,c
  2266  008FC2  E105               	bnz	u1655
  2267  008FC4  0E00               	movlw	0
  2268  008FC6  5C05               	subwf	btemp+5,w,c
  2269  008FC8  E102               	bnz	u1655
  2270  008FCA  0E38               	movlw	56
  2271  008FCC  5C04               	subwf	btemp+4,w,c
  2272  008FCE                     u1655:
  2273  008FCE  E301               	bnc	l268
  2274  008FD0  0C37               	retlw	55
  2275  008FD2                     l268:
  2276                           ;pomiar.c: 684: else p=35+m/100;
  2277  008FD2  0E64               	movlw	100
  2278  008FD4  6E04               	movwf	btemp+4,c
  2279  008FD6  6A05               	clrf	btemp+5,c
  2280  008FD8  6A06               	clrf	btemp+6,c
  2281  008FDA  6A07               	clrf	btemp+7,c
  2282  008FDC  C0D9  F000         	movff	?a_GetPGD_PCO,btemp
  2283  008FE0  C0DA  F001         	movff	?a_GetPGD_PCO+1,btemp+1
  2284  008FE4  C0DB  F002         	movff	?a_GetPGD_PCO+2,btemp+2
  2285  008FE8  C0DC  F003         	movff	?a_GetPGD_PCO+3,btemp+3
  2286  008FEC  EC93  F072         	call	aldiv
  2287  008FF0  5000               	movf	btemp,w,c
  2288  008FF2  0F23               	addlw	35
  2289  008FF4  6ED9               	movwf	fsr2l,c
  2290                           ;pomiar.c: 685: if(p<35) return 35;
  2291  008FF6  0E23               	movlw	35
  2292  008FF8  60D9               	cpfslt	fsr2l,c
  2293  008FFA  D001               	goto	l270
  2294  008FFC  0C23               	retlw	35
  2295  008FFE                     l270:
  2296                           ;pomiar.c: 686: return p;
  2297  008FFE  50D9               	movf	fsr2l,w,c
  2298  009000  0012               	return	
  2299  009002                     l267:
  2300                           ;pomiar.c: 688: else return 35;
  2301  009002  0C23               	retlw	35
  2302  009004                     l266:
  2303                           ;pomiar.c: 690: else return 35;
  2304  009004  0C23               	retlw	35
  2305                           ;pomiar.c: 691: }
  2306  009006                     __end_of_GetPGD_PCO:
  2307                           ;pomiar.c: 695: void WritePCO(void)
  2308                           ;pomiar.c: 696: {
  2309  009006                     _WritePCO:
  2310  000000                     
  2311                           ;pomiar.c: 697: if(DtCO._newPCO&&RTdS(5)>=10)
  2312  009006  0102               	movlb	(_DtCO+1) shr (0+8)
  2313  009008  AF0D               	btfss	(_DtCO+1)& (0+255),7,b
  2314  00900A  0012               	return	
  2315  00900C  0E05               	movlw	5
  2316  00900E  EC98  F06E         	call	_RTdS
  2317  009012  6E00               	movwf	btemp,c
  2318  009014  0E0A               	movlw	10
  2319  009016  5C00               	subwf	btemp,w,c
  2320  009018  A0D8               	btfss	status,0,c
  2321  00901A  0012               	return	
  2322                           ;pomiar.c: 698: {
  2323  00901C  0102               	movlb	(_DtCO+1) shr (0+8)
  2324  00901E  9F0D               	bcf	(_DtCO+1)& (0+255),7,b
  2325                           ;pomiar.c: 700: StartRTdS(5);
  2326  009020  0E05               	movlw	5
  2327  009022  EC86  F06E         	call	_StartRTdS
  2328                           ;pomiar.c: 701: WriteEEPCO();
  2329  009026  EF7C  F05E         	goto	_WriteEEPCO	;wreg free
  2330                           ;pomiar.c: 702: }
  2331  00902A                     __end_of_WritePCO:
  2332                           ;pomiar.c: 706: void PomiarPCO(void)
  2333                           ;pomiar.c: 707: {
  2334  00902A                     _PomiarPCO:
  2335  000000                     
  2336                           ;pomiar.c: 708: static unsigned char pnst;
  2337  00902A  0101               	movlb	(_M+22) shr (0+8)
  2338  00902C  5190               	movf	(_M+22)& (0+255),w,b
  2339  00902E  1191               	iorwf	(_M+23)& (0+255),w,b
  2340  009030  E10E               	bnz	l276
  2341                           ;pomiar.c: 712: {
  2342  009032  EE00  F093         	lfsr	0,_DtKNF+15
  2343  009036  50EF               	movf	indf0,w,c
  2344  009038  E105               	bnz	l277
  2345                           ;pomiar.c: 714: {
  2346  00903A  0E28               	movlw	40
  2347  00903C  CFE8 F211          	movff	wreg,_DtCO+5
  2348                           ;pomiar.c: 716: DtCO.maxPCO=85;
  2349  009040  0E55               	movlw	85
  2350  009042  D008               	goto	L11
  2351                           ;pomiar.c: 717: }
  2352  009044                     l277:
  2353                           ;pomiar.c: 718: else
  2354  009044  0E23               	movlw	35
  2355  009046  CFE8 F211          	movff	wreg,_DtCO+5
  2356                           ;pomiar.c: 721: DtCO.maxPCO=55;
  2357  00904A  0E37               	movlw	55
  2358  00904C  D003               	goto	L11
  2359                           ;pomiar.c: 722: }
  2360  00904E                     l276:
  2361                           ;pomiar.c: 724: else
  2362  00904E  0102               	movlb	(_DtCO+5) shr (0+8)
  2363  009050  6B11               	clrf	(_DtCO+5)& (0+255),b
  2364                           ;pomiar.c: 727: DtCO.maxPCO=99;
  2365  009052  0E63               	movlw	99
  2366  009054                     L11:
  2367  009054  CFE8 F212          	movff	wreg,_DtCO+6
  2368                           ;pomiar.c: 728: }
  2369  009058  C171  FEA3         	movff	_PFN+26,F1603
  2370                           ;pomiar.c: 730: if(pnst<DtCO.minPCO) pnst=DtCO.m
      +                          inPCO;
  2371  00905C  C211  FFE8         	movff	_DtCO+5,wreg
  2372  009060  010E               	movlb	F1603 shr (0+8)
  2373  009062  61A3               	cpfslt	F1603& (0+255),b
  2374  009064  D002               	goto	l280
  2375  009066  C211  FEA3         	movff	_DtCO+5,F1603
  2376  00906A                     l280:
  2377                           ;pomiar.c: 731: if(pnst>DtCO.maxPCO) pnst=DtCO.m
      +                          axPCO;
  2378  00906A  CEA3  FFE8         	movff	F1603,wreg
  2379  00906E  0102               	movlb	(_DtCO+6) shr (0+8)
  2380  009070  6112               	cpfslt	(_DtCO+6)& (0+255),b
  2381  009072  D002               	goto	l281
  2382  009074  C212  FEA3         	movff	_DtCO+6,F1603
  2383  009078                     l281:
  2384                           ;pomiar.c: 732: if(DtCO.PCO!=pnst)
  2385  009078  C20F  FFE8         	movff	_DtCO+3,wreg
  2386  00907C  010E               	movlb	F1603 shr (0+8)
  2387  00907E  19A3               	xorwf	F1603& (0+255),w,b
  2388  009080  E007               	bz	l282
  2389                           ;pomiar.c: 733: {
  2390  009082  CEA3  F20F         	movff	F1603,_DtCO+3
  2391                           ;pomiar.c: 735: DtCO._newPCO=1;
  2392  009086  0102               	movlb	(_DtCO+1) shr (0+8)
  2393  009088  8F0D               	bsf	(_DtCO+1)& (0+255),7,b
  2394                           ;pomiar.c: 736: StartRTdS(5);
  2395  00908A  0E05               	movlw	5
  2396  00908C  EC86  F06E         	call	_StartRTdS
  2397  009090                     l282:
  2398                           ;pomiar.c: 737: }
  2399  009090  DFBA               	call	_WritePCO	;wreg free
  2400                           ;pomiar.c: 739: if(M._AKTYWNE_PGD) DtCO.PGDPCO=G
      +                          etPGD_PCO();
  2401  009092  0101               	movlb	(_M+22) shr (0+8)
  2402  009094  5190               	movf	(_M+22)& (0+255),w,b
  2403  009096  1191               	iorwf	(_M+23)& (0+255),w,b
  2404  009098  E003               	bz	l283
  2405  00909A  DE9C               	call	_GetPGD_PCO	;wreg free
  2406  00909C  CFE8 F213          	movff	wreg,_DtCO+7
  2407  0090A0                     l283:
  2408                           ;pomiar.c: 740: SetModPCO();
  2409  0090A0  DE54               	call	_SetModPCO	;wreg free
  2410                           ;pomiar.c: 741: DtCO.DAD_CO=ReturnACfromNTC(DtCO
      +                          .PPCO-1);
  2411  0090A2  0102               	movlb	(_DtCO+4) shr (0+8)
  2412  0090A4  0510               	decf	(_DtCO+4)& (0+255),w,b
  2413  0090A6  EC3E  F070         	call	_ReturnACfromNTC
  2414  0090AA  CFE8 F21A          	movff	wreg,_DtCO+14
  2415                           ;pomiar.c: 742: DtCO.MAD_CO=ReturnACfromNTC(DtCO
      +                          .PPCO-1-6);
  2416  0090AE  C210  FFE8         	movff	_DtCO+4,wreg
  2417  0090B2  0FF9               	addlw	-7
  2418  0090B4  EC3E  F070         	call	_ReturnACfromNTC
  2419  0090B8  CFE8 F219          	movff	wreg,_DtCO+13
  2420                           ;pomiar.c: 743: }
  2421  0090BC  0012               	return	
  2422  0090BE                     __end_of_PomiarPCO:
  2423                           ;pomiar.c: 747: void WritePCW(void)
  2424                           ;pomiar.c: 748: {
  2425  0090BE                     _WritePCW:
  2426  000000                     
  2427                           ;pomiar.c: 749: if(DtCW._newPCW&&RTdS(6)>=10)
  2428  0090BE  0102               	movlb	(_DtCW+1) shr (0+8)
  2429  0090C0  A11C               	btfss	(_DtCW+1)& (0+255),0,b
  2430  0090C2  0012               	return	
  2431  0090C4  0E06               	movlw	6
  2432  0090C6  EC98  F06E         	call	_RTdS
  2433  0090CA  6E00               	movwf	btemp,c
  2434  0090CC  0E0A               	movlw	10
  2435  0090CE  5C00               	subwf	btemp,w,c
  2436  0090D0  A0D8               	btfss	status,0,c
  2437  0090D2  0012               	return	
  2438                           ;pomiar.c: 750: {
  2439  0090D4  0102               	movlb	(_DtCW+1) shr (0+8)
  2440  0090D6  911C               	bcf	(_DtCW+1)& (0+255),0,b
  2441                           ;pomiar.c: 752: StartRTdS(6);
  2442  0090D8  0E06               	movlw	6
  2443  0090DA  EC86  F06E         	call	_StartRTdS
  2444                           ;pomiar.c: 753: WriteEEPCW();
  2445  0090DE  EF72  F05E         	goto	_WriteEEPCW	;wreg free
  2446                           ;pomiar.c: 754: }
  2447  0090E2                     __end_of_WritePCW:
  2448                           ;pomiar.c: 758: void SetModPCW(void)
  2449                           ;pomiar.c: 759: {
  2450  0090E2                     _SetModPCW:
  2451  000000                     
  2452                           ;pomiar.c: 760: if(M._AKTYWNE_KNF) DtCW.PPCW=60;
  2453  0090E2  0101               	movlb	(_M+24) shr (0+8)
  2454  0090E4  5192               	movf	(_M+24)& (0+255),w,b
  2455  0090E6  1193               	iorwf	(_M+25)& (0+255),w,b
  2456  0090E8  E002               	bz	l287
  2457  0090EA  0E3C               	movlw	60
  2458  0090EC  D009               	goto	L12
  2459  0090EE                     l287:
  2460                           ;pomiar.c: 761: else
  2461  0090EE  EE00  F08B         	lfsr	0,_DtKNF+7
  2462  0090F2  50EF               	movf	indf0,w,c
  2463  0090F4  E108               	bnz	l289
  2464  0090F6  0101               	movlb	(_M+6) shr (0+8)
  2465  0090F8  5180               	movf	(_M+6)& (0+255),w,b
  2466  0090FA  1181               	iorwf	(_M+7)& (0+255),w,b
  2467  0090FC  E004               	bz	l289
  2468  0090FE  0E46               	movlw	70
  2469  009100                     L12:
  2470  009100  CFE8 F21F          	movff	wreg,_DtCW+4
  2471  009104  D002               	goto	l288
  2472  009106                     l289:
  2473                           ;pomiar.c: 763: else DtCW.PPCW=DtCW.PCW;
  2474  009106  C21E  F21F         	movff	_DtCW+3,_DtCW+4
  2475  00910A                     l288:
  2476                           ;pomiar.c: 764: PFN.PPCW=DtCW.PPCW;
  2477  00910A  C21F  F165         	movff	_DtCW+4,_PFN+14
  2478                           ;pomiar.c: 765: if(M._pob_DzCW) PFN.PPCW=21;
  2479  00910E  0101               	movlb	(_M+14) shr (0+8)
  2480  009110  5188               	movf	(_M+14)& (0+255),w,b
  2481  009112  1189               	iorwf	(_M+15)& (0+255),w,b
  2482  009114  B4D8               	btfsc	status,2,c
  2483  009116  0012               	return	
  2484  009118  0E15               	movlw	21
  2485  00911A  CFE8 F165          	movff	wreg,_PFN+14
  2486                           ;pomiar.c: 766: }
  2487  00911E  0C15               	retlw	21
  2488  009120                     __end_of_SetModPCW:
  2489                           ;pomiar.c: 769: void PomiarPCW(void)
  2490                           ;pomiar.c: 770: {
  2491  009120                     _PomiarPCW:
  2492  000000                     
  2493                           ;pomiar.c: 771: static unsigned char pnst;
  2494  009120  D006               	goto	l294
  2495  009122                     l296:
  2496                           ;pomiar.c: 778: case 2:
  2497                           ;pomiar.c: 781: DtCW.maxPCW=60;
  2498                           ;pomiar.c: 782: break;
  2499  009122                     l297:
  2500  009122  D00F               	goto	L29
  2501                           ;pomiar.c: 783: }
  2502                           ;pomiar.c: 785: {
  2503                           ;pomiar.c: 787: DtCW.maxPCW=60;
  2504                           ;pomiar.c: 788: break;
  2505  009124                     l298:
  2506                           ;pomiar.c: 789: }
  2507                           ;pomiar.c: 791: {
  2508  009124  0E23               	movlw	35
  2509  009126  CFE8 F220          	movff	wreg,_DtCW+5
  2510                           ;pomiar.c: 793: DtCW.maxPCW=65;
  2511  00912A  0E41               	movlw	65
  2512  00912C  D00E               	goto	L14
  2513                           ;pomiar.c: 800: break;
  2514  00912E                     l294:
  2515  00912E  C08B  FFE8         	movff	_DtKNF+7,wreg
  2516  009132  0A00               	xorlw	0
  2517  009134  E0F7               	bz	l298
  2518  009136  0A01               	xorlw	1
  2519  009138  E0F4               	bz	l296
  2520  00913A  0A03               	xorlw	3
  2521  00913C  E0F2               	bz	l296
  2522  00913E  0A01               	xorlw	1
  2523  009140  E0F0               	bz	l297
  2524  009142                     L29:
  2525                           ;pomiar.c: 794: break;
  2526                           ;pomiar.c: 795: }
  2527                           ;pomiar.c: 797: {
  2528  009142  0E1E               	movlw	30
  2529  009144  CFE8 F220          	movff	wreg,_DtCW+5
  2530                           ;pomiar.c: 799: DtCW.maxPCW=60;
  2531  009148  0E3C               	movlw	60
  2532  00914A                     L14:
  2533  00914A  CFE8 F221          	movff	wreg,_DtCW+6
  2534                           ;pomiar.c: 803: pnst=PFN.PCW;
  2535  00914E  C173  FEA4         	movff	_PFN+28,F1613
  2536                           ;pomiar.c: 804: if(pnst<DtCW.minPCW) pnst=DtCW.m
      +                          inPCW;
  2537  009152  C220  FFE8         	movff	_DtCW+5,wreg
  2538  009156  010E               	movlb	F1613 shr (0+8)
  2539  009158  61A4               	cpfslt	F1613& (0+255),b
  2540  00915A  D002               	goto	l300
  2541  00915C  C220  FEA4         	movff	_DtCW+5,F1613
  2542  009160                     l300:
  2543                           ;pomiar.c: 805: if(pnst>DtCW.maxPCW) pnst=DtCW.m
      +                          axPCW;
  2544  009160  CEA4  FFE8         	movff	F1613,wreg
  2545  009164  0102               	movlb	(_DtCW+6) shr (0+8)
  2546  009166  6121               	cpfslt	(_DtCW+6)& (0+255),b
  2547  009168  D002               	goto	l301
  2548  00916A  C221  FEA4         	movff	_DtCW+6,F1613
  2549  00916E                     l301:
  2550                           ;pomiar.c: 806: if(DtCW.PCW!=pnst)
  2551  00916E  C21E  FFE8         	movff	_DtCW+3,wreg
  2552  009172  010E               	movlb	F1613 shr (0+8)
  2553  009174  19A4               	xorwf	F1613& (0+255),w,b
  2554  009176  E007               	bz	l302
  2555                           ;pomiar.c: 807: {
  2556  009178  CEA4  F21E         	movff	F1613,_DtCW+3
  2557                           ;pomiar.c: 809: DtCW._newPCW=1;
  2558  00917C  0102               	movlb	(_DtCW+1) shr (0+8)
  2559  00917E  811C               	bsf	(_DtCW+1)& (0+255),0,b
  2560                           ;pomiar.c: 810: StartRTdS(6);
  2561  009180  0E06               	movlw	6
  2562  009182  EC86  F06E         	call	_StartRTdS
  2563  009186                     l302:
  2564                           ;pomiar.c: 811: }
  2565  009186  DF9B               	call	_WritePCW	;wreg free
  2566                           ;pomiar.c: 813: SetModPCW();
  2567  009188  DFAC               	call	_SetModPCW	;wreg free
  2568                           ;pomiar.c: 814: DtCW.DAD_CW=ReturnACfromNTC(DtCW
      +                          .PPCW-(2-1));
  2569  00918A  0102               	movlb	(_DtCW+4) shr (0+8)
  2570  00918C  051F               	decf	(_DtCW+4)& (0+255),w,b
  2571  00918E  EC3E  F070         	call	_ReturnACfromNTC
  2572  009192  CFE8 F229          	movff	wreg,_DtCW+14
  2573                           ;pomiar.c: 815: DtCW.MAD_CW=ReturnACfromNTC(DtCW
      +                          .PPCW-(2-1)-9);
  2574  009196  C21F  FFE8         	movff	_DtCW+4,wreg
  2575  00919A  0FF6               	addlw	-10
  2576  00919C  EC3E  F070         	call	_ReturnACfromNTC
  2577  0091A0  CFE8 F228          	movff	wreg,_DtCW+13
  2578                           ;pomiar.c: 816: }
  2579  0091A4  0012               	return	
  2580  0091A6                     __end_of_PomiarPCW:
  2581                           ;pomiar.c: 865: void WritePFN(void)
  2582                           ;pomiar.c: 866: {
  2583  0091A6                     _WritePFN:
  2584  000000                     
  2585                           ;pomiar.c: 867: if(PFN._newPFN&&RTdS(7)>=10)
  2586  0091A6  0101               	movlb	(_PFN+3) shr (0+8)
  2587  0091A8  A75A               	btfss	(_PFN+3)& (0+255),3,b
  2588  0091AA  0012               	return	
  2589  0091AC  0E07               	movlw	7
  2590  0091AE  EC98  F06E         	call	_RTdS
  2591  0091B2  6E00               	movwf	btemp,c
  2592  0091B4  0E0A               	movlw	10
  2593  0091B6  5C00               	subwf	btemp,w,c
  2594  0091B8  A0D8               	btfss	status,0,c
  2595  0091BA  0012               	return	
  2596                           ;pomiar.c: 868: {
  2597  0091BC  0101               	movlb	(_PFN+3) shr (0+8)
  2598  0091BE  975A               	bcf	(_PFN+3)& (0+255),3,b
  2599                           ;pomiar.c: 870: StartRTdS(7);
  2600  0091C0  0E07               	movlw	7
  2601  0091C2  EC86  F06E         	call	_StartRTdS
  2602                           ;pomiar.c: 871: WriteEEPFN();
  2603  0091C6  EF86  F05E         	goto	_WriteEEPFN	;wreg free
  2604                           ;pomiar.c: 872: }
  2605  0091CA                     __end_of_WritePFN:
  2606                           ;pomiar.c: 876: void PomiarPFN(void)
  2607                           ;pomiar.c: 877: {
  2608  0091CA                     _PomiarPFN:
  2609  000000                     
  2610                           ;pomiar.c: 878: static unsigned char pnst;
  2611  0091CA  0101               	movlb	_PFN shr (0+8)
  2612  0091CC  A157               	btfss	_PFN& (0+255),0,b
  2613  0091CE  D003               	goto	l306
  2614                           ;pomiar.c: 881: {
  2615  0091D0  0101               	movlb	(_PFN+31) shr (0+8)
  2616  0091D2  0E01               	movlw	1
  2617  0091D4  D011               	goto	L27
  2618                           ;pomiar.c: 883: }
  2619  0091D6                     l306:
  2620                           ;pomiar.c: 884: else
  2621  0091D6  0101               	movlb	_PFN shr (0+8)
  2622  0091D8  A557               	btfss	_PFN& (0+255),2,b
  2623  0091DA  D003               	goto	l308
  2624  0091DC  0101               	movlb	_PFN shr (0+8)
  2625  0091DE  A157               	btfss	_PFN& (0+255),0,b
  2626  0091E0  D009               	goto	l310
  2627                           ;pomiar.c: 886: {
  2628                           ;pomiar.c: 888: }
  2629  0091E2                     l308:
  2630                           ;pomiar.c: 889: else
  2631  0091E2  0101               	movlb	_PFN shr (0+8)
  2632  0091E4  A357               	btfss	_PFN& (0+255),1,b
  2633  0091E6  D006               	goto	l310
  2634  0091E8  0101               	movlb	_PFN shr (0+8)
  2635  0091EA  B157               	btfsc	_PFN& (0+255),0,b
  2636  0091EC  D003               	goto	l310
  2637                           ;pomiar.c: 891: {
  2638  0091EE  0101               	movlb	(_PFN+31) shr (0+8)
  2639  0091F0  0E02               	movlw	2
  2640  0091F2  D002               	goto	L27
  2641                           ;pomiar.c: 893: }
  2642  0091F4                     l310:
  2643                           ;pomiar.c: 894: else
  2644  0091F4  0101               	movlb	(_PFN+31) shr (0+8)
  2645  0091F6  0E03               	movlw	3
  2646  0091F8                     L27:
  2647  0091F8  6F76               	movwf	(_PFN+31)& (0+255),b
  2648  0091FA  6B77               	clrf	(_PFN+32)& (0+255),b
  2649                           ;pomiar.c: 897: }
  2650  0091FC  EC8E  F05E         	call	_ReadEEPFN	;wreg free
  2651  009200  CFE8 FEA5          	movff	wreg,F1620
  2652                           ;pomiar.c: 899: if(PFN.poz!=pnst)
  2653  009204  CEA5  F000         	movff	F1620,btemp
  2654  009208  6A01               	clrf	btemp+1,c
  2655  00920A  C177  FFE8         	movff	_PFN+32,wreg
  2656  00920E  1801               	xorwf	btemp+1,w,c
  2657  009210  E103               	bnz	u1975
  2658  009212  C176  FFE8         	movff	_PFN+31,wreg
  2659  009216  1800               	xorwf	btemp,w,c
  2660  009218                     u1975:
  2661  009218  E008               	bz	l312
  2662                           ;pomiar.c: 900: {
  2663  00921A  0101               	movlb	(_PFN+3) shr (0+8)
  2664  00921C  B75A               	btfsc	(_PFN+3)& (0+255),3,b
  2665  00921E  D003               	goto	l313
  2666  009220  0E07               	movlw	7
  2667  009222  EC86  F06E         	call	_StartRTdS
  2668  009226                     l313:
  2669                           ;pomiar.c: 902: PFN._newPFN=1;
  2670  009226  0101               	movlb	(_PFN+3) shr (0+8)
  2671  009228  875A               	bsf	(_PFN+3)& (0+255),3,b
  2672  00922A                     l312:
  2673                           ;pomiar.c: 903: }
  2674  00922A  D7BD               	goto	_WritePFN	;wreg free
  2675                           ;pomiar.c: 905: }
  2676  00922C                     __end_of_PomiarPFN:
  2677                           ;pomiar.c: 908: void PomiarCS(void)
  2678                           ;pomiar.c: 909: {
  2679  00922C                     _PomiarCS:
  2680  000000                     
  2681                           ;pomiar.c: 910: static unsigned char pcs;
  2682  00922C  0E03               	movlw	3
  2683  00922E  ECD5  F06F         	call	_ReadAC
  2684  009232  0100               	movlb	__Lparam shr (0+8)
  2685  009234  6FD9               	movwf	?a_PomiarCS^(__Lparam& (0+65280)),b
  2686                           ;pomiar.c: 914: if((!DtKNF.tpcs&&(dac<16||dac>23
      +                          5))||(DtKNF.tpcs&&(dac<16||dac>235)))
  2687  009236  EE00  F094         	lfsr	0,_DtKNF+16
  2688  00923A  50EF               	movf	indf0,w,c
  2689  00923C  E108               	bnz	u2021
  2690  00923E  0E10               	movlw	16
  2691  009240  61D9               	cpfslt	?a_PomiarCS^(__Lparam& (0+65280)),b
  2692  009242  D001               	goto	u2001
  2693  009244  D010               	goto	u2090
  2694  009246                     u2001:
  2695  009246  0EEB               	movlw	-21
  2696  009248  65D9               	cpfsgt	?a_PomiarCS^(__Lparam& (0+65280)),b
  2697  00924A  D001               	goto	u2021
  2698  00924C  D00C               	goto	u2090
  2699  00924E                     u2021:
  2700  00924E  EE00  F094         	lfsr	0,_DtKNF+16
  2701  009252  50EF               	movf	indf0,w,c
  2702  009254  E022               	bz	l315
  2703  009256  0E10               	movlw	16
  2704  009258  0100               	movlb	__Lparam shr (0+8)
  2705  00925A  61D9               	cpfslt	?a_PomiarCS^(__Lparam& (0+65280)),b
  2706  00925C  D001               	goto	u2051
  2707  00925E  D003               	goto	u2090
  2708  009260                     u2051:
  2709  009260  0EEB               	movlw	-21
  2710  009262  65D9               	cpfsgt	?a_PomiarCS^(__Lparam& (0+65280)),b
  2711  009264  D01A               	goto	l315
  2712  009266                     u2090:
  2713                           ;pomiar.c: 915: {
  2714  009266  EE00  F092         	lfsr	0,_DtKNF+14
  2715  00926A  50EF               	movf	indf0,w,c
  2716                           ;pomiar.c: 917: {
  2717  00926C  0102               	movlb	_DtCS shr (0+8)
  2718  00926E  E10B               	bnz	L44
  2719  009270  9704               	bcf	_DtCS& (0+255),3,b
  2720                           ;pomiar.c: 919: DtCS._no=0;
  2721  009272  9504               	bcf	_DtCS& (0+255),2,b
  2722                           ;pomiar.c: 920: DtCS._lo=0;
  2723  009274  9304               	bcf	_DtCS& (0+255),1,b
  2724                           ;pomiar.c: 921: DtCS._hi=0;
  2725  009276  9104               	bcf	_DtCS& (0+255),0,b
  2726                           ;pomiar.c: 922: DtCS._work=1;
  2727  009278  8904               	bsf	_DtCS& (0+255),4,b
  2728                           ;pomiar.c: 923: DtCS._no_mont=1;
  2729  00927A  0E01               	movlw	1
  2730  00927C  6F05               	movwf	(_DtCS+1)& (0+255),b
  2731  00927E  0E00               	movlw	0
  2732  009280  6B06               	clrf	(_DtCS+2)& (0+255),b
  2733                           ;pomiar.c: 924: DtCS.CS=0;
  2734  009282  6B07               	clrf	(_DtCS+3)& (0+255),b
  2735                           ;pomiar.c: 925: }
  2736  009284  0012               	return	
  2737                           ;pomiar.c: 926: else
  2738  009286                     L44:
  2739  009286  8704               	bsf	_DtCS& (0+255),3,b
  2740                           ;pomiar.c: 929: DtCS._no=0;
  2741  009288  9504               	bcf	_DtCS& (0+255),2,b
  2742                           ;pomiar.c: 930: DtCS._lo=0;
  2743  00928A  9304               	bcf	_DtCS& (0+255),1,b
  2744                           ;pomiar.c: 931: DtCS._hi=0;
  2745  00928C  9104               	bcf	_DtCS& (0+255),0,b
  2746                           ;pomiar.c: 932: DtCS._work=0;
  2747  00928E  9904               	bcf	_DtCS& (0+255),4,b
  2748                           ;pomiar.c: 933: DtCS._no_mont=0;
  2749  009290  EE02  F005         	lfsr	0,_DtCS+1
  2750  009294  6AEE               	clrf	postinc0,c
  2751  009296  6AEE               	clrf	postinc0,c
  2752                           ;pomiar.c: 934: }
  2753  009298  0012               	return	
  2754  00929A                     l315:
  2755                           ;pomiar.c: 936: else
  2756  00929A  0102               	movlb	_DtCS shr (0+8)
  2757  00929C  9704               	bcf	_DtCS& (0+255),3,b
  2758                           ;pomiar.c: 939: DtCS._no_mont=0;
  2759  00929E  EE02  F005         	lfsr	0,_DtCS+1
  2760  0092A2  6AEE               	clrf	postinc0,c
  2761  0092A4  6AEE               	clrf	postinc0,c
  2762                           ;pomiar.c: 940: if(!DtKNF.tpcs)
  2763  0092A6  EE00  F094         	lfsr	0,_DtKNF+16
  2764  0092AA  50EF               	movf	indf0,w,c
  2765  0092AC  E121               	bnz	l319
  2766                           ;pomiar.c: 941: {
  2767  0092AE  0E1E               	movlw	30
  2768  0092B0  0100               	movlb	__Lparam shr (0+8)
  2769  0092B2  61D9               	cpfslt	?a_PomiarCS^(__Lparam& (0+65280)),b
  2770  0092B4  D001               	goto	l320
  2771  0092B6  6FD9               	movwf	?a_PomiarCS^(__Lparam& (0+65280)),b
  2772  0092B8                     l320:
  2773                           ;pomiar.c: 943: if(dac>210) dac=210;
  2774  0092B8  0ED2               	movlw	-46
  2775  0092BA  0100               	movlb	__Lparam shr (0+8)
  2776  0092BC  65D9               	cpfsgt	?a_PomiarCS^(__Lparam& (0+65280)),b
  2777  0092BE  D002               	goto	l321
  2778  0092C0  0ED2               	movlw	210
  2779  0092C2  6FD9               	movwf	?a_PomiarCS^(__Lparam& (0+65280)),b
  2780  0092C4                     l321:
  2781                           ;pomiar.c: 944: cs=((dac-30)*10)/(((210-30)*10)/
      +                          40);
  2782  0092C4  0E0A               	movlw	10
  2783  0092C6  6E02               	movwf	btemp+2,c
  2784  0092C8  6A03               	clrf	btemp+3,c
  2785  0092CA  0100               	movlb	__Lparam shr (0+8)
  2786  0092CC  0EE2               	movlw	226
  2787  0092CE  25D9               	addwf	?a_PomiarCS^(__Lparam& (0+65280)),w
  2788  0092D0  6E00               	movwf	btemp,c
  2789  0092D2  6A01               	clrf	btemp+1,c
  2790  0092D4  0EFF               	movlw	255
  2791  0092D6  2201               	addwfc	btemp+1,f,c
  2792  0092D8  EC03  F073         	call	awmul
  2793  0092DC  C004  F000         	movff	btemp+4,btemp
  2794  0092E0  C005  F001         	movff	btemp+5,btemp+1
  2795  0092E4  0E2D               	movlw	45
  2796  0092E6  6E02               	movwf	btemp+2,c
  2797  0092E8  6A03               	clrf	btemp+3,c
  2798  0092EA  ECCC  F072         	call	awdiv
  2799  0092EE  D020               	goto	L31
  2800                           ;pomiar.c: 945: if(cs<40)
  2801                           ;pomiar.c: 946: if((cs-pcs>0)&&(cs-pcs)<2) cs=pc
      +                          s;
  2802                           ;pomiar.c: 947: if(cs>40) cs=40;
  2803                           ;pomiar.c: 948: }
  2804  0092F0                     l319:
  2805                           ;pomiar.c: 949: else
  2806  0092F0  0E23               	movlw	35
  2807  0092F2  0100               	movlb	__Lparam shr (0+8)
  2808  0092F4  61D9               	cpfslt	?a_PomiarCS^(__Lparam& (0+65280)),b
  2809  0092F6  D001               	goto	l326
  2810  0092F8  6FD9               	movwf	?a_PomiarCS^(__Lparam& (0+65280)),b
  2811  0092FA                     l326:
  2812                           ;pomiar.c: 952: if(dac>190) dac=190;
  2813  0092FA  0EBE               	movlw	-66
  2814  0092FC  0100               	movlb	__Lparam shr (0+8)
  2815  0092FE  65D9               	cpfsgt	?a_PomiarCS^(__Lparam& (0+65280)),b
  2816  009300  D002               	goto	l327
  2817  009302  0EBE               	movlw	190
  2818  009304  6FD9               	movwf	?a_PomiarCS^(__Lparam& (0+65280)),b
  2819  009306                     l327:
  2820                           ;pomiar.c: 953: cs=((dac-35)*10)/(((190-35)*10)/
      +                          40);
  2821  009306  0E0A               	movlw	10
  2822  009308  6E02               	movwf	btemp+2,c
  2823  00930A  6A03               	clrf	btemp+3,c
  2824  00930C  0100               	movlb	__Lparam shr (0+8)
  2825  00930E  0EDD               	movlw	221
  2826  009310  25D9               	addwf	?a_PomiarCS^(__Lparam& (0+65280)),w
  2827  009312  6E00               	movwf	btemp,c
  2828  009314  6A01               	clrf	btemp+1,c
  2829  009316  0EFF               	movlw	255
  2830  009318  2201               	addwfc	btemp+1,f,c
  2831  00931A  EC03  F073         	call	awmul
  2832  00931E  C004  F000         	movff	btemp+4,btemp
  2833  009322  C005  F001         	movff	btemp+5,btemp+1
  2834  009326  0E26               	movlw	38
  2835  009328  6E02               	movwf	btemp+2,c
  2836  00932A  6A03               	clrf	btemp+3,c
  2837  00932C  ECCC  F072         	call	awdiv
  2838  009330                     L31:
  2839  009330  5004               	movf	btemp+4,w,c
  2840  009332  6ED9               	movwf	fsr2l,c
  2841                           ;pomiar.c: 954: if(cs<40)
  2842  009334  0E28               	movlw	40
  2843  009336  60D9               	cpfslt	fsr2l,c
  2844  009338  D020               	goto	l328
  2845                           ;pomiar.c: 955: if((cs-pcs>0)&&(cs-pcs)<2) cs=pc
      +                          s;
  2846  00933A  CEA6  FFE8         	movff	F1623,wreg
  2847  00933E  CFD9 F000          	movff	fsr2l,btemp
  2848  009342  6A01               	clrf	btemp+1,c
  2849  009344  5E00               	subwf	btemp,f,c
  2850  009346  0E00               	movlw	0
  2851  009348  5A01               	subwfb	btemp+1,f,c
  2852  00934A  5001               	movf	btemp+1,w,c
  2853  00934C  0A80               	xorlw	128
  2854  00934E  0F80               	addlw	-128
  2855  009350  0E01               	movlw	1
  2856  009352  B4D8               	btfsc	status,2,c
  2857  009354  5C00               	subwf	btemp,w,c
  2858  009356  E311               	bnc	l328
  2859  009358  CEA6  FFE8         	movff	F1623,wreg
  2860  00935C  CFD9 F000          	movff	fsr2l,btemp
  2861  009360  6A01               	clrf	btemp+1,c
  2862  009362  5E00               	subwf	btemp,f,c
  2863  009364  0E00               	movlw	0
  2864  009366  5A01               	subwfb	btemp+1,f,c
  2865  009368  5001               	movf	btemp+1,w,c
  2866  00936A  0A80               	xorlw	128
  2867  00936C  0F80               	addlw	-128
  2868  00936E  0E02               	movlw	2
  2869  009370  B4D8               	btfsc	status,2,c
  2870  009372  5C00               	subwf	btemp,w,c
  2871  009374  A0D8               	btfss	status,0,c
  2872  009376  CEA6  FFD9         	movff	F1623,fsr2l
  2873  00937A                     l328:
  2874                           ;pomiar.c: 956: if(cs>40) cs=40;
  2875  00937A  0E28               	movlw	40
  2876  00937C  64D9               	cpfsgt	fsr2l,c
  2877  00937E  D001               	goto	l325
  2878  009380  6ED9               	movwf	fsr2l,c
  2879  009382                     l325:
  2880                           ;pomiar.c: 957: }
  2881  009382  CFD9 FEA6          	movff	fsr2l,F1623
  2882                           ;pomiar.c: 959: DtCS.CS=cs;
  2883  009386  CFD9 F207          	movff	fsr2l,_DtCS+3
  2884                           ;pomiar.c: 960: PFN.CS=DtCS.CS;
  2885  00938A  C207  F162         	movff	_DtCS+3,_PFN+11
  2886                           ;pomiar.c: 961: if(DtKNF.robg==0)
  2887  00938E  EE00  F092         	lfsr	0,_DtKNF+14
  2888  009392  50EF               	movf	indf0,w,c
  2889  009394  E10D               	bnz	l331
  2890                           ;pomiar.c: 962: {
  2891  009396  0102               	movlb	_DtCS shr (0+8)
  2892  009398  9504               	bcf	_DtCS& (0+255),2,b
  2893                           ;pomiar.c: 965: DtCS._lo=0;
  2894  00939A  9304               	bcf	_DtCS& (0+255),1,b
  2895                           ;pomiar.c: 966: if(DtCS.CS<=27) DtCS._work=1;
  2896  00939C  0E1C               	movlw	28
  2897  00939E  6107               	cpfslt	(_DtCS+3)& (0+255),b
  2898  0093A0  D002               	goto	l332
  2899  0093A2                     L17:
  2900  0093A2  8904               	bsf	_DtCS& (0+255),4,b
  2901  0093A4  D02B               	goto	l335
  2902  0093A6                     l332:
  2903                           ;pomiar.c: 967: else
  2904  0093A6  0E1C               	movlw	28
  2905  0093A8  0102               	movlb	(_DtCS+3) shr (0+8)
  2906  0093AA  6507               	cpfsgt	(_DtCS+3)& (0+255),b
  2907  0093AC  D027               	goto	l335
  2908  0093AE  D025               	goto	L28
  2909                           ;pomiar.c: 969: }
  2910  0093B0                     l331:
  2911                           ;pomiar.c: 970: else
  2912  0093B0  0E03               	movlw	3
  2913  0093B2  0102               	movlb	(_DtCS+3) shr (0+8)
  2914  0093B4  6107               	cpfslt	(_DtCS+3)& (0+255),b
  2915  0093B6  D002               	goto	l336
  2916  0093B8  8504               	bsf	_DtCS& (0+255),2,b
  2917  0093BA  D002               	goto	l337
  2918  0093BC                     l336:
  2919                           ;pomiar.c: 974: else DtCS._no=0;
  2920  0093BC  0102               	movlb	_DtCS shr (0+8)
  2921  0093BE  9504               	bcf	_DtCS& (0+255),2,b
  2922  0093C0                     l337:
  2923                           ;pomiar.c: 975: if(!DtCS._no&&DtCS.CS<5) DtCS._l
      +                          o=1;
  2924  0093C0  0102               	movlb	_DtCS shr (0+8)
  2925  0093C2  B504               	btfsc	_DtCS& (0+255),2,b
  2926  0093C4  D006               	goto	l338
  2927  0093C6  0E05               	movlw	5
  2928  0093C8  6107               	cpfslt	(_DtCS+3)& (0+255),b
  2929  0093CA  D003               	goto	l338
  2930  0093CC  0102               	movlb	_DtCS shr (0+8)
  2931  0093CE  8304               	bsf	_DtCS& (0+255),1,b
  2932  0093D0  D002               	goto	l339
  2933  0093D2                     l338:
  2934                           ;pomiar.c: 976: else DtCS._lo=0;
  2935  0093D2  0102               	movlb	_DtCS shr (0+8)
  2936  0093D4  9304               	bcf	_DtCS& (0+255),1,b
  2937  0093D6                     l339:
  2938                           ;pomiar.c: 977: if((DtCS.CS>=6)&&(DtCS.CS<=27)) 
      +                          DtCS._work=1;
  2939  0093D6  0E05               	movlw	5
  2940  0093D8  0102               	movlb	(_DtCS+3) shr (0+8)
  2941  0093DA  6507               	cpfsgt	(_DtCS+3)& (0+255),b
  2942  0093DC  D005               	goto	l340
  2943  0093DE  0E1C               	movlw	28
  2944  0093E0  6107               	cpfslt	(_DtCS+3)& (0+255),b
  2945  0093E2  D002               	goto	l340
  2946  0093E4  0102               	movlb	_DtCS shr (0+8)
  2947  0093E6  D7DD               	goto	L17
  2948  0093E8                     l340:
  2949                           ;pomiar.c: 978: else
  2950  0093E8  0E05               	movlw	5
  2951  0093EA  0102               	movlb	(_DtCS+3) shr (0+8)
  2952  0093EC  6107               	cpfslt	(_DtCS+3)& (0+255),b
  2953  0093EE  D001               	goto	u2361
  2954  0093F0  D003               	goto	u2380
  2955  0093F2                     u2361:
  2956  0093F2  0E1C               	movlw	28
  2957  0093F4  6507               	cpfsgt	(_DtCS+3)& (0+255),b
  2958  0093F6  D002               	goto	l335
  2959  0093F8                     u2380:
  2960  0093F8  0102               	movlb	_DtCS shr (0+8)
  2961  0093FA                     L28:
  2962  0093FA  9904               	bcf	_DtCS& (0+255),4,b
  2963  0093FC                     l335:
  2964                           ;pomiar.c: 980: }
  2965  0093FC  0E1C               	movlw	28
  2966  0093FE  0102               	movlb	(_DtCS+3) shr (0+8)
  2967  009400  6507               	cpfsgt	(_DtCS+3)& (0+255),b
  2968  009402  D002               	goto	l343
  2969  009404  8104               	bsf	_DtCS& (0+255),0,b
  2970  009406  0C1C               	retlw	28
  2971  009408                     l343:
  2972                           ;pomiar.c: 982: else DtCS._hi=0;
  2973  009408  0102               	movlb	_DtCS shr (0+8)
  2974  00940A  9104               	bcf	_DtCS& (0+255),0,b
  2975                           ;pomiar.c: 983: }
  2976  00940C  0012               	return	
  2977  00940E                     __end_of_PomiarCS:
  2978  000000                     
  2979  000000                     
  2980  000000                     
  2981  000000                     
  2982  000000                     
  2983  000000                     
  2984  000000                     
  2985  000000                     
  2986  000000                     
  2987  000000                     
  2988  000000                     
  2989  000000                     
  2990  000000                     
  2991  000000                     
  2992  000000                     
  2993  000000                     
  2994  000000                     
  2995  000000                     
  2996  000000                     
  2997  000000                     
  2998  000000                     
  2999  000000                     
  3000  000000                     
  3001  000000                     
  3002  000000                     
  3003  000000                     
  3004  000000                     
  3005  000000                     
  3006  000000                     
  3007  000000                     
  3008  000000                     
  3009  000000                     
  3010  000000                     
  3011  000000                     
  3012  000000                     
  3013  000000                     
  3014  000000                     
  3015  000000                     
  3016  000000                     
  3017  000000                     
  3018  000000                     
  3019  000000                     
  3020  000000                     
  3021  000000                     
  3022  000000                     
  3023  000000                     
  3024  000000                     
  3025  000000                     
  3026  000000                     
  3027  000000                     
  3028  000000                     
  3029  000000                     
  3030  000000                     
  3031  000000                     
  3032  000000                     
  3033  000000                     
  3034  000000                     
  3035  000000                     
  3036  000000                     
  3037  000000                     
  3038  000000                     
  3039  000000                     
  3040  000000                     
  3041  000000                     
  3042  000000                     
  3043  000000                     
  3044  000000                     
  3045  000000                     
  3046  000000                     
  3047  000000                     
  3048  000000                     
  3049  000000                     
  3050  000000                     
  3051  000000                     
  3052  000000                     
  3053  000000                     
  3054  000000                     
  3055  000000                     
  3056  000000                     
  3057  000000                     
  3058  000000                     
  3059  000000                     
  3060  000000                     
  3061  000000                     
  3062  000000                     
  3063  000000                     
  3064  000000                     
  3065  000000                     
  3066  000000                     
  3067  000000                     
  3068  000000                     
  3069  000000                     
  3070  000000                     
  3071  000000                     
  3072  000000                     
  3073  000000                     
  3074  000000                     
  3075  000000                     
  3076  000000                     
  3077  000000                     
  3078  000000                     
  3079  000000                     
  3080  000000                     
  3081  000000                     
  3082  000000                     
  3083  000000                     
  3084  000000                     
  3085  000000                     
  3086  000000                     
  3087  000000                     
  3088  000000                     
  3089  000000                     
  3090  000000                     
  3091  000000                     
  3092  000000                     
  3093  000000                     
  3094  000000                     
  3095  000000                     
  3096  000000                     
  3097  000000                     
  3098  000000                     
  3099  000000                     
  3100  000000                     
  3101  000000                     
  3102  000000                     
  3103  000000                     
  3104  000000                     
  3105  000000                     
  3106  000000                     
  3107  000000                     
  3108  000000                     
  3109  000000                     
  3110  000000                     
  3111  000000                     
  3112  000000                     
  3113  000000                     
  3114  000000                     
  3115  000000                     
  3116  000000                     
  3117  000000                     
  3118  000000                     
  3119  000000                     
  3120  000000                     
  3121  000000                     
  3122  000000                     
  3123  000000                     
  3124  000000                     
  3125  000000                     
  3126  000000                     
  3127  000000                     
  3128  000000                     
  3129  000000                     
  3130  000000                     
  3131  000000                     
  3132  000000                     
  3133  000000                     
  3134  000000                     
  3135  000000                     
  3136  000000                     
  3137  000000                     
  3138  000000                     
  3139  000000                     
  3140  000000                     
  3141  000000                     
  3142  000000                     
  3143  000000                     
  3144  000000                     
  3145  000000                     
  3146  000000                     
  3147  000000                     
  3148  000000                     
  3149  000000                     
  3150  000000                     
  3151  000000                     
  3152  000000                     
  3153  000000                     
  3154  000000                     
  3155  000000                     
  3156  000000                     
  3157  000000                     
  3158  000000                     
  3159  000000                     
  3160  000000                     
  3161  000000                     
  3162  000000                     
  3163  000000                     
  3164  000000                     
  3165  000000                     
  3166  000000                     
  3167  000000                     
  3168  000000                     
  3169  000000                     
  3170  000000                     
  3171  000000                     
  3172  000000                     
  3173  000000                     
  3174  000000                     
  3175  000000                     
  3176  000000                     
  3177  000000                     
  3178  000000                     
  3179  000000                     
  3180  000000                     
  3181  000000                     
  3182  000000                     
  3183  000000                     
  3184  000000                     
  3185  000000                     
  3186  000000                     
  3187  000000                     
  3188  000000                     
  3189  000000                     
  3190  000000                     
  3191  000000                     
  3192  000000                     
  3193  000000                     
  3194  000000                     
  3195  000000                     
  3196  000000                     
  3197  000000                     
  3198  000000                     
  3199  000000                     
  3200  000000                     
  3201  000000                     
  3202  000000                     
  3203  000000                     
  3204  000000                     
  3205  000000                     
  3206  000000                     
  3207  000000                     
  3208  000000                     
  3209  000000                     
  3210  000000                     
  3211  000000                     
  3212  000000                     
  3213  000000                     
  3214  000000                     
  3215  000000                     
  3216  000000                     
  3217  000000                     
  3218  000000                     
  3219  000000                     
  3220  000000                     
  3221  000000                     
  3222  000000                     
  3223  000000                     
  3224  000000                     
  3225  000000                     
  3226  000000                     
  3227  000000                     
  3228  000000                     
  3229  000000                     
  3230  000000                     
  3231  000000                     
  3232  000000                     
  3233  000000                     
  3234  000000                     
  3235  000000                     
  3236  000000                     
  3237  000000                     
  3238  000000                     
  3239  000000                     
  3240  000000                     
  3241  000000                     
  3242  000000                     
  3243  000000                     
  3244  000000                     
  3245  000000                     
  3246  000000                     
  3247  000000                     
  3248  000000                     
  3249  000000                     
  3250  000000                     
  3251  000000                     
  3252  000000                     
  3253  000000                     
  3254  000000                     
  3255  000000                     
  3256  000000                     
  3257  000000                     
  3258  000000                     
  3259  000000                     
  3260  000000                     
  3261  000000                     
  3262  000000                     
  3263  000000                     
  3264  000000                     
  3265  000000                     
  3266  000000                     
  3267  000000                     
  3268  000000                     
  3269  000000                     
  3270  000000                     
  3271  000000                     
  3272  000000                     
  3273  000000                     
  3274  000000                     
  3275  000000                     
  3276  000000                     
  3277  000000                     
  3278  000000                     
  3279  000000                     
  3280  000000                     
  3281  000000                     
  3282  000000                     
  3283  000000                     
  3284  000000                     
  3285  000000                     
  3286  000000                     
  3287  000000                     
  3288  000000                     
  3289  000000                     
  3290  000000                     
  3291  000000                     
  3292  000000                     
  3293  000000                     
  3294  000000                     
  3295  000000                     
  3296  000000                     
  3297  000000                     
  3298  000000                     
  3299  000000                     
  3300  000000                     
  3301  000000                     
  3302  000000                     
  3303  000000                     
  3304  000000                     
  3305  000000                     
  3306  000000                     
  3307  000000                     
  3308  000000                     
  3309  000000                     
  3310  000000                     
  3311  000000                     
  3312  000000                     
  3313  000000                     
  3314  000000                     
  3315  000000                     
  3316  000000                     
  3317  000000                     
  3318  000000                     
  3319  000000                     
  3320  000000                     
  3321  000000                     
  3322  000000                     
  3323  000000                     
  3324  000000                     
  3325  000000                     
  3326  000000                     
  3327  000000                     
  3328  000000                     
  3329  000000                     
  3330  000000                     
  3331  000000                     
  3332  000000                     
  3333  000000                     
  3334  000000                     
  3335  000000                     
  3336  000000                     
  3337  000000                     
  3338  000000                     
  3339  000000                     
  3340  000000                     
  3341  000000                     
  3342  000000                     
  3343  000000                     
  3344  000000                     
  3345  000000                     
  3346  000000                     
  3347  000000                     
  3348  000000                     
  3349  000000                     
  3350  000000                     
  3351  000000                     
  3352  000000                     
  3353  000000                     
  3354  000000                     
  3355  000000                     
  3356  000000                     
  3357  000000                     
  3358  000000                     
  3359  000000                     
  3360  000000                     
  3361  000000                     
  3362  000000                     
  3363  000000                     
  3364  000000                     
  3365  000000                     
  3366  000000                     
  3367  000000                     
  3368  000000                     
  3369  000000                     
  3370  000000                     
  3371  000000                     
  3372  000000                     
  3373  000000                     
  3374  000000                     
  3375  000000                     
  3376  000000                     
  3377  000000                     
  3378  000000                     
  3379  000000                     
  3380  000000                     
  3381  000000                     
  3382  000000                     
  3383  000000                     
  3384  000000                     
  3385  000000                     
  3386  000000                     
  3387  000000                     
  3388  000000                     
  3389  000000                     
  3390  000000                     
  3391  000000                     
  3392  000000                     
  3393  000000                     
  3394  000000                     
  3395  000000                     
  3396  000000                     
  3397  000000                     
  3398  000000                     
  3399  000000                     
  3400  000000                     
  3401  000000                     
  3402  000000                     
  3403  000000                     
  3404  000000                     
  3405  000000                     
  3406  000000                     
  3407  000000                     
  3408  000000                     
  3409  000000                     
  3410  000000                     
  3411  000000                     
  3412  000000                     
  3413  000000                     
  3414                           
  3415                           	psect	bigbss
  3416  000E9E                     F1574:
  3417  000E9E                     	ds	1
  3418  000E9E                     F1575:
  3419  000E9E                     	ds	1
  3420  000E9E                     F1580:
  3421  000E9E                     	ds	1
  3422  000E9E                     F1581:
  3423  000E9E                     	ds	1
  3424  000E9E                     F1582:
  3425  000E9E                     	ds	1
  3426  000E9E                     F1603:
  3427  000E9E                     	ds	1
  3428  000E9E                     F1613:
  3429  000E9E                     	ds	1
  3430  000E9E                     F1620:
  3431  000E9E                     	ds	1
  3432  000E9E                     F1623:
  3433  000E9E                     	ds	1
  3434  000000                     
  3435  000000                     
  3436  000000                     
  3437  000000                     
  3438  000000                     
  3439  000000                     
  3440  000000                     
  3441  000000                     
  3442  000000                     
  3443  000000                     
  3444  000000                     
  3445  000000                     
  3446  000000                     
  3447  000000                     
  3448  000000                     
  3449  000000                     
  3450  000000                     
  3451  000000                     
  3452  000000                     
  3453  000000                     
  3454  000000                     
  3455  000000                     
  3456  000000                     
  3457  000000                     
  3458  000000                     
  3459  000000                     
  3460  000000                     
  3461  000000                     
  3462  000000                     
  3463  000000                     
  3464  000000                     
  3465  000000                     
  3466  000000                     
  3467  000000                     
  3468  000000                     
  3469  000000                     
  3470  000000                     
  3471  000000                     
  3472  000000                     
  3473  000000                     
  3474  000000                     
  3475  000000                     
  3476  000000                     
  3477  000000                     
  3478  000000                     
  3479  000000                     
  3480  000000                     
  3481  000000                     
  3482  000000                     
  3483  000000                     
  3484  000000                     
  3485  000000                     
  3486  000000                     
  3487  000000                     
  3488  000000                     
  3489  000000                     
  3490  000000                     
  3491  000000                     
  3492  000000                     
  3493  000000                     
  3494  000000                     
  3495  000000                     
  3496  000000                     
  3497  000000                     
  3498  000000                     
  3499  000000                     
  3500  000000                     
  3501  000000                     
  3502  000000                     
  3503  000000                     
  3504  000000                     
  3505  000000                     
  3506  000000                     
  3507  000000                     
  3508  000000                     
  3509  000000                     
  3510  000000                     
  3511  000000                     
  3512  000E9E                     _PmrtimFlt1:
  3513  000E9E                     	ds	1
  3514  000E9E                     _PmrtimFlt2:
  3515  000E9E                     	ds	1
  3516  000000                     
  3517  000000                     
  3518  000000                     
  3519  000000                     
  3520  000000                     
  3521  000000                     
  3522  000000                     
  3523  000000                     
  3524  000000                     
  3525  000000                     
  3526  000000                     
  3527  000000                     
  3528  000000                     
  3529  000000                     
  3530  000000                     
  3531  000000                     
  3532  000000                     
  3533  000000                     
  3534  000000                     
  3535  000000                     
  3536  000000                     
  3537  000000                     
  3538  000000                     
  3539  000000                     
  3540  000000                     
  3541  000000                     
  3542  000000                     
  3543  000000                     
  3544  000000                     
  3545  000000                     
  3546  000000                     
  3547  000000                     
  3548  000000                     
  3549  000000                     
  3550  000000                     
  3551  000000                     
  3552  000000                     
  3553  000000                     
  3554  000000                     
  3555  000000                     
  3556  000000                     
  3557  000000                     
  3558  000000                     
  3559  000000                     
  3560  000000                     
  3561  000000                     
  3562  000000                     
  3563  000000                     
  3564  000000                     
  3565  000000                     
  3566  000E9E                     _wff:
  3567  000E9E                     	ds	12
  3568                           
  3569                           	psect	bss
  3570  000200                     _PmrtimFlt3:
  3571  000200                     	ds	2
  3572  000000                     
  3573  000000                     
  3574  000000                     
  3575  000000                     
  3576  000200                     _pbf:
  3577  000200                     	ds	2
  3578  000200                     _DtCS:
  3579  000200                     	ds	4
  3580  000200                     _DtZW:
  3581  000200                     	ds	4
  3582  000200                     _DtCO:
  3583  000200                     	ds	15
  3584  000200                     _DtCW:
  3585  000200                     	ds	15
  3586  000200                     _DtIN:
  3587  000200                     	ds	20
  3588                           
  3589                           	psect	temp
  3590  000000                     btemp:
  3591  000000                     	ds	8
  3592                           tblptrh	equ	0xFF7
  3593                           tblptrl	equ	0xFF6
  3594                           indf0	equ	0xFEF
  3595                           postinc0	equ	0xFEE
  3596                           fsr0h	equ	0xFEA
  3597                           fsr0l	equ	0xFE9
  3598                           wreg	equ	0xFE8
  3599                           indf1	equ	0xFE7
  3600                           fsr1h	equ	0xFE2
  3601                           fsr1l	equ	0xFE1
  3602                           fsr2l	equ	0xFD9
  3603                           status	equ	0xFD8


HI-TECH Software PICC-18 Macro Assembler V9.51PL3
Symbol Table                                           Wed Mar 20 08:54:38 2013

                         _M 017A                    _PomiarCO 8960  
                  _PomiarCS 922C                    _PomiarCW 8BC8  
                  _PomiarIN 8B92                    _PomiarZW 8D18  
                        l22 83A4                          l14 8358  
                        l31 8464                          l15 8364  
                        l32 8456                          l41 8772  
                        l25 83CE                          l42 864A  
                        l27 8434                          l19 838C  
                        l60 86DA                          l52 85DE  
                        l36 8490                          l28 8504  
                        l61 86B6                          l45 85B8  
                        l37 84FA                          l29 846C  
                        l62 85AC                          l54 8622  
                        l38 84D4                          l63 86CA  
                        l80 87E0                          l72 8776  
                        l48 859E                          l81 87BC  
                        l90 8844                          l74 878C  
                        l91 8850                          l75 87F8  
                        l67 8700                          l92 8864  
                        l84 8800                          l76 87AA  
                        l68 876A                          l77 8794  
                        l69 8744                          l94 8876  
                        l95 8882                          l88 8832  
                        l97 88A0                          l98 88B0  
                        l99 88C0                          u65 83C8  
                        u90 842E                          u75 8402  
                        u85 842C                   _PomiarPCO 902A  
                 _PomiarPFN 91CA                   _PomiarPCW 9120  
         __end_of_PomiarPCO 90BE           __end_of_PomiarPFN 922C  
         __end_of_PomiarPCW 91A6                ?a_GetPGD_PCO 00D9  
__end_of_FiltrPomiarowyCOCW 8960                         l100 88D2  
                       l102 88E2                         l103 8942  
                       l200 8C40                         l112 89A2  
                       l104 8924                         l121 89F4  
                       l105 8928                         l210 8C6C  
                       l130 8A02                         l114 8B22  
                       l122 89FE                         l106 893E  
                       l203 8C44                         l115 8B06  
                       l300 9160                         l212 8C92  
                       l108 894C                         l301 916E  
                       l213 8CB8                         l205 8C1E  
                       l117 89A8                         l310 91F4  
                       l302 9186                         l214 8CA4  
                       l231 8D44                         l215 8CAE  
                       l143 8A26                         l119 89CE  
                       l320 92B8                         l312 922A  
                       l240 8D72                         l224 8CEC  
                       l208 8C46                         l160 8AB4  
                       l144 8A44                         l321 92C4  
                       l313 9226                         l225 8CF0  
                       l161 8ABE                         l145 8A48  
                       l306 91D6                         l250 8DB0  
                       l242 8D5A                         l234 8D66  
                       l226 8CFE                         l170 8B34  
                       l162 8AC8                         l331 93B0  
                       l315 929A                         l243 8D70  
                       l235 8D62                         l227 8D02  
                       l219 8CBC                         l171 8B42  
                       l163 8AD2                         l340 93E8  
                       l332 93A6                         l308 91E2  
                       l260 8EBE                         l252 8DC2  
                       l244 8D70                         l228 8D0C  
                       l180 8B80                         l172 8B46  
                       l164 8ADC                         l156 8A6C  
                       l325 9382                         l237 8D9A  
                       l181 8B8C                         l173 8B70  
                       l165 8AE6                         l326 92FA  
                       l270 8FFE                         l262 8EEA  
                       l238 8D88                         l190 8CC8  
                       l174 8B5A                         l166 8AF0  
                       l158 8A92                         l343 9408  
                       l335 93FC                         l327 9306  
                       l319 92F0                         l247 8D96  
                       l175 8B5E                         l167 8AFA  
                       l159 8AB0                         l336 93BC  
                       l328 937A                         l280 906A  
                       l192 8C08                         l184 8BC2  
                       l176 8B6A                         l337 93C0  
                       l281 9078                         l257 8EF2  
                       l249 8DB4                         l193 8C30  
                       l169 8B30                         l338 93D2  
                       l282 9090                         l266 9004  
                       l258 8EF0                         l194 8C1A  
                       l339 93D6                         l283 90A0  
                       l267 9002                         l259 8EEE  
                       l187 8C02                         l179 8B7C  
                       l276 904E                         l268 8FD2  
                       l196 8C2A                         l277 9044  
                       l189 8CDE                         l294 912E  
                       l287 90EE                         l199 8C3C  
                       l296 9122                         l288 910A  
                       l297 9122                         l289 9106  
                       l298 9124                         u235 854C  
                       u245 8578                         _PFN 0157  
                       u375 867A                         u721 8980  
                       u385 86A4                    _WritePCO 9006  
                       u740 8986                    _WritePFN 91A6  
                  _WritePCW 90BE                         _pbf 0202  
                       _wff 0EA9                         wreg 000FE8  
                 _StartRTdS DD0C                   _StartTim1 8378  
                 _StartTim2 8390                   _StartTim3 83A8  
           _ReturnACfromNTC E07C                        F1603 0EA3  
                      F1620 0EA5                        F1613 0EA4  
                      F1623 0EA6           __end_of_StartTim1 837E  
         __end_of_StartTim2 8396                        F1580 0EA0  
         __end_of_StartTim3 83B2                        F1581 0EA1  
                      F1582 0EA2                        F1574 0E9E  
                      F1575 0E9F                  ?a_PomiarCS 00D9  
                _PmrtimFlt1 0EA7                  _PmrtimFlt2 0EA8  
                _PmrtimFlt3 0200                        u2001 9246  
                      u2021 924E                        u1221 8BB6  
                      u1400 8CB4                        u1240 8BBC  
                      u2051 9260                        u1251 8BE8  
                      u1270 8BEE                        u2090 9266  
                      u1550 8DAA                        u1615 8EBA  
                      u1471 8D38                        u2361 93F2  
                      u1490 8D3E                        u2380 93F8  
                      u1655 8FCE                        u1975 9218  
                      _DtCO 020C                        _DtCS 0204  
                      _DtCW 021B                        _DtIN 022A  
                      _RTdS DD30                        _DtZW 0208  
                      aldiv E526                        fsr0h 000FEA  
                      fsr1h 000FE2                        indf0 000FEF  
                      fsr0l 000FE9                        indf1 000FE7  
                      fsr1l 000FE1                        fsr2l 000FD9  
                      btemp 0000                        awdiv E598  
                      awmul E606             __end_of_PmrTim1 8390  
           __end_of_PmrTim2 83A8             __end_of_PmrTim3 83D2  
           _PredkoscZmianCW 877C                  _WriteEEPCO BCF8  
                _WriteEEPFN BD0C                  _WriteEEPCW BCE4  
                     _DtKNF 0084                       _RdPrt D14C  
                used_btemp0 0001                  used_btemp1 0001  
                used_btemp2 0001                  used_btemp3 0001  
                used_btemp4 0001                  used_btemp5 0001  
                used_btemp6 0001                  used_btemp7 0001  
               _IncPmrTimer 834C         __end_of_IncPmrTimer 8378  
                     status 000FD8                     _PmrTim1 837E  
                   _PmrTim2 8396                     _PmrTim3 83B4  
                   __Lparam 00D7                    ?_PmrTim3 00D7  
                _GetPGD_PCO 8DD4          _FiltrPomiarowyCOCW 88D8  
        __end_of_GetPGD_PCO 9006            __end_of_PomiarCO 8B92  
          __end_of_PomiarCS 940E            __end_of_PomiarCW 8D18  
          __end_of_PomiarIN 8BC8            __end_of_PomiarZW 8D4A  
                   __ramtop 1000            __end_of_WritePCO 902A  
          __end_of_WritePFN 91CA            __end_of_WritePCW 90E2  
   __end_of_PredkoscZmianCW 881E                 _InitDataPmr 8316  
       __end_of_InitDataPmr 834C                 _ReadTabZNTC E0B8  
                    _ReadAC DFAA                     postinc0 000FEE  
                    aldiv_f E66C                      almul_f E658  
                 _FltParMod 881E                  _ReadTabNTC E016  
         __end_of_FltParMod 88D8                      tblptrh 000FF7  
                    tblptrl 000FF6                   _ReadEEPFN BD1C  
                 _GoldenEye 83D2           __end_of_GoldenEye 877C  
                 _SetModPCO 8D4A                   _SetModPCW 90E2  
         __end_of_SetModPCO 8DD4           __end_of_SetModPCW 9120  
