

HI-TECH Software PICC-18 Macro Assembler V9.51PL3
                                                       Mon Sep 14 17:44:51 2020


     1                           	processor	18F46K20
     2                           	opt	pw 80
     3                           	psect	text,global,reloc=2,class=CODE,delta=1
     4                           	psect	intcode,global,reloc=2,class=CODE,delta=1
     5                           	psect	temp,global,ovrld,common,class=COMRAM,spa
      +                          ce=1,delta=1
     6                           	psect	intsave_regs,global,class=BIGRAM,space=1,
      +                          delta=1
     7  000000                     
     8  000000                     
     9  000000                     
    10  000000                     
    11  000000                     
    12  000000                     
    13  000000                     
    14  000000                     
    15  000000                     
    16  000000                     
    17  000000                     
    18  000000                     
    19  000000                     
    20  000000                     
    21  000000                     
    22  000000                     
    23  000000                     
    24  000000                     
    25  000000                     
    26  000000                     
    27  000000                     
    28  000000                     
    29  000000                     
    30  000000                     
    31  000000                     
    32  000000                     
    33  000000                     
    34  000000                     
    35  000000                     
    36  000000                     
    37  000000                     
    38  000000                     
    39  000000                     
    40  000000                     
    41  000000                     
    42  000000                     
    43  000000                     
    44  000000                     
    45  000000                     
    46  000000                     
    47  000000                     
    48  000000                     
    49  000000                     
    50  000000                     
    51  000000                     
    52  000000                     
    53  000000                     
    54  000000                     
    55  000000                     
    56  000000                     
    57  000000                     
    58  000000                     
    59  000000                     
    60  000000                     
    61  000000                     
    62  000000                     
    63  000000                     
    64  000000                     
    65  000000                     
    66  000000                     
    67  000000                     
    68  000000                     
    69  000000                     
    70  000000                     
    71  000000                     
    72  000000                     
    73  000000                     
    74  000000                     
    75  000000                     
    76  000000                     
    77  000000                     
    78  000000                     
    79  000000                     
    80  000000                     
    81  000000                     
    82  000000                     
    83  000000                     
    84  000000                     
    85  000000                     
    86  000000                     
    87  000000                     
    88  000000                     
    89  000000                     
    90  000000                     
    91  000000                     
    92  000000                     
    93  000000                     
    94  000000                     
    95  000000                     
    96                           
    97                           	psect	text
    98  00EB54                     save:
    99  00EB54  CFE9 FF5E          	movff	fsr0l,saved_regsh+25
   100  00EB58  CFEA FF5D          	movff	fsr0h,saved_regsh+24
   101  00EB5C  CFE1 FF5C          	movff	fsr1l,saved_regsh+23
   102  00EB60  CFE2 FF5B          	movff	fsr1h,saved_regsh+22
   103  00EB64  CFD9 FF5A          	movff	fsr2l,saved_regsh+21
   104  00EB68  CFDA FF59          	movff	fsr2h,saved_regsh+20
   105  00EB6C  C00E  FF58         	movff	btemp+14,saved_regsh+19
   106  00EB70  C00D  FF57         	movff	btemp+13,saved_regsh+18
   107  00EB74  C00C  FF56         	movff	btemp+12,saved_regsh+17
   108  00EB78  C00B  FF55         	movff	btemp+11,saved_regsh+16
   109  00EB7C  C00A  FF54         	movff	btemp+10,saved_regsh+15
   110  00EB80  C009  FF53         	movff	btemp+9,saved_regsh+14
   111  00EB84  C008  FF52         	movff	btemp+8,saved_regsh+13
   112  00EB88  C007  FF51         	movff	btemp+7,saved_regsh+12
   113  00EB8C  C006  FF50         	movff	btemp+6,saved_regsh+11
   114  00EB90  C005  FF4F         	movff	btemp+5,saved_regsh+10
   115  00EB94  C004  FF4E         	movff	btemp+4,saved_regsh+9
   116  00EB98  C003  FF4D         	movff	btemp+3,saved_regsh+8
   117  00EB9C  C002  FF4C         	movff	btemp+2,saved_regsh+7
   118  00EBA0  C001  FF4B         	movff	btemp+1,saved_regsh+6
   119  00EBA4  C000  FF4A         	movff	btemp,saved_regsh+5
   120  00EBA8  CFF7 FF49          	movff	tblptrh,saved_regsh+4
   121  00EBAC  CFF6 FF48          	movff	tblptrl,saved_regsh+3
   122  00EBB0  CFF5 FF47          	movff	tablat,saved_regsh+2
   123  00EBB4  CFF4 FF46          	movff	prodh,saved_regsh+1
   124  00EBB8  CFF3 FF45          	movff	prodl,saved_regsh
   125                           ;pic18f45k20.h: 20: static volatile near unsigne
      +                          d char TOSU @ 0xFFF;
   126                           ;pic18f45k20.h: 21: static volatile near unsigne
      +                          d char TOSH @ 0xFFE;
   127                           ;pic18f45k20.h: 22: static volatile near unsigne
      +                          d char TOSL @ 0xFFD;
   128                           ;pic18f45k20.h: 23: static volatile near unsigne
      +                          d char STKPTR @ 0xFFC;
   129                           ;pic18f45k20.h: 24: static volatile near unsigne
      +                          d char PCLATU @ 0xFFB;
   130                           ;pic18f45k20.h: 25: static volatile near unsigne
      +                          d char PCLATH @ 0xFFA;
   131                           ;pic18f45k20.h: 26: static volatile near unsigne
      +                          d char PCL @ 0xFF9;
   132                           ;pic18f45k20.h: 27: static volatile far unsigned
      +                           char * TBLPTR @ 0xFF6;
   133                           ;pic18f45k20.h: 28: static volatile near unsigne
      +                          d char TBLPTRU @ 0xFF8;
   134                           ;pic18f45k20.h: 29: static volatile near unsigne
      +                          d char TBLPTRH @ 0xFF7;
   135                           ;pic18f45k20.h: 30: static volatile near unsigne
      +                          d char TBLPTRL @ 0xFF6;
   136                           ;pic18f45k20.h: 31: static volatile near unsigne
      +                          d char TABLAT @ 0xFF5;
   137                           ;pic18f45k20.h: 32: static volatile near unsigne
      +                          d char PRODH @ 0xFF4;
   138                           ;pic18f45k20.h: 33: static volatile near unsigne
      +                          d char PRODL @ 0xFF3;
   139                           ;pic18f45k20.h: 34: static volatile near unsigne
      +                          d char INTCON @ 0xFF2;
   140                           ;pic18f45k20.h: 35: static near unsigned char IN
      +                          TCON2 @ 0xFF1;
   141                           ;pic18f45k20.h: 36: static volatile near unsigne
      +                          d char INTCON3 @ 0xFF0;
   142                           ;pic18f45k20.h: 37: static volatile near unsigne
      +                          d char INDF0 @ 0xFEF;
   143                           ;pic18f45k20.h: 38: static volatile near unsigne
      +                          d char POSTINC0 @ 0xFEE;
   144                           ;pic18f45k20.h: 39: static volatile near unsigne
      +                          d char POSTDEC0 @ 0xFED;
   145                           ;pic18f45k20.h: 40: static volatile near unsigne
      +                          d char PREINC0 @ 0xFEC;
   146                           ;pic18f45k20.h: 41: static volatile near unsigne
      +                          d char PLUSW0 @ 0xFEB;
   147                           ;pic18f45k20.h: 42: static volatile near unsigne
      +                          d char FSR0H @ 0xFEA;
   148                           ;pic18f45k20.h: 43: static volatile near unsigne
      +                          d char FSR0L @ 0xFE9;
   149                           ;pic18f45k20.h: 44: static volatile near unsigne
      +                          d char WREG @ 0xFE8;
   150                           ;pic18f45k20.h: 45: static volatile near unsigne
      +                          d char INDF1 @ 0xFE7;
   151                           ;pic18f45k20.h: 46: static volatile near unsigne
      +                          d char POSTINC1 @ 0xFE6;
   152                           ;pic18f45k20.h: 47: static volatile near unsigne
      +                          d char POSTDEC1 @ 0xFE5;
   153                           ;pic18f45k20.h: 48: static volatile near unsigne
      +                          d char PREINC1 @ 0xFE4;
   154                           ;pic18f45k20.h: 49: static volatile near unsigne
      +                          d char PLUSW1 @ 0xFE3;
   155                           ;pic18f45k20.h: 50: static volatile near unsigne
      +                          d char FSR1H @ 0xFE2;
   156                           ;pic18f45k20.h: 51: static volatile near unsigne
      +                          d char FSR1L @ 0xFE1;
   157                           ;pic18f45k20.h: 52: static near unsigned char BS
      +                          R @ 0xFE0;
   158                           ;pic18f45k20.h: 53: static volatile near unsigne
      +                          d char INDF2 @ 0xFDF;
   159                           ;pic18f45k20.h: 54: static volatile near unsigne
      +                          d char POSTINC2 @ 0xFDE;
   160                           ;pic18f45k20.h: 55: static volatile near unsigne
      +                          d char POSTDEC2 @ 0xFDD;
   161                           ;pic18f45k20.h: 56: static volatile near unsigne
      +                          d char PREINC2 @ 0xFDC;
   162                           ;pic18f45k20.h: 57: static volatile near unsigne
      +                          d char PLUSW2 @ 0xFDB;
   163                           ;pic18f45k20.h: 58: static volatile near unsigne
      +                          d char FSR2H @ 0xFDA;
   164                           ;pic18f45k20.h: 59: static volatile near unsigne
      +                          d char FSR2L @ 0xFD9;
   165                           ;pic18f45k20.h: 60: static volatile near unsigne
      +                          d char STATUS @ 0xFD8;
   166                           ;pic18f45k20.h: 61: static volatile near unsigne
      +                          d char TMR0H @ 0xFD7;
   167                           ;pic18f45k20.h: 62: static volatile near unsigne
      +                          d char TMR0L @ 0xFD6;
   168                           ;pic18f45k20.h: 64: static volatile near unsigne
      +                          d int TMR0 @ 0xFD6;
   169                           ;pic18f45k20.h: 65: static near unsigned char T0
      +                          CON @ 0xFD5;
   170                           ;pic18f45k20.h: 66: static volatile near unsigne
      +                          d char OSCCON @ 0xFD3;
   171                           ;pic18f45k20.h: 67: static volatile near unsigne
      +                          d char HLVDCON @ 0xFD2;
   172                           ;pic18f45k20.h: 68: static volatile near unsigne
      +                          d char WDTCON @ 0xFD1;
   173                           ;pic18f45k20.h: 69: static volatile near unsigne
      +                          d char RCON @ 0xFD0;
   174                           ;pic18f45k20.h: 70: static volatile near unsigne
      +                          d char TMR1H @ 0xFCF;
   175                           ;pic18f45k20.h: 71: static volatile near unsigne
      +                          d char TMR1L @ 0xFCE;
   176                           ;pic18f45k20.h: 73: static volatile near unsigne
      +                          d int TMR1 @ 0xFCE;
   177                           ;pic18f45k20.h: 74: static near unsigned char T1
      +                          CON @ 0xFCD;
   178                           ;pic18f45k20.h: 75: static volatile near unsigne
      +                          d char TMR2 @ 0xFCC;
   179                           ;pic18f45k20.h: 76: static near unsigned char PR
      +                          2 @ 0xFCB;
   180                           ;pic18f45k20.h: 77: static near unsigned char T2
      +                          CON @ 0xFCA;
   181                           ;pic18f45k20.h: 78: static volatile near unsigne
      +                          d char SSPBUF @ 0xFC9;
   182                           ;pic18f45k20.h: 79: static near unsigned char SS
      +                          PADD @ 0xFC8;
   183                           ;pic18f45k20.h: 80: static volatile near unsigne
      +                          d char SSPSTAT @ 0xFC7;
   184                           ;pic18f45k20.h: 81: static volatile near unsigne
      +                          d char SSPCON1 @ 0xFC6;
   185                           ;pic18f45k20.h: 82: static volatile near unsigne
      +                          d char SSPCON2 @ 0xFC5;
   186                           ;pic18f45k20.h: 83: static volatile near unsigne
      +                          d char ADRESH @ 0xFC4;
   187                           ;pic18f45k20.h: 84: static volatile near unsigne
      +                          d char ADRESL @ 0xFC3;
   188                           ;pic18f45k20.h: 86: static volatile near unsigne
      +                          d int ADRES @ 0xFC3;
   189                           ;pic18f45k20.h: 87: static volatile near unsigne
      +                          d char ADCON0 @ 0xFC2;
   190                           ;pic18f45k20.h: 88: static near unsigned char AD
      +                          CON1 @ 0xFC1;
   191                           ;pic18f45k20.h: 89: static near unsigned char AD
      +                          CON2 @ 0xFC0;
   192                           ;pic18f45k20.h: 90: static volatile near unsigne
      +                          d char CCPR1H @ 0xFBF;
   193                           ;pic18f45k20.h: 91: static volatile near unsigne
      +                          d char CCPR1L @ 0xFBE;
   194                           ;pic18f45k20.h: 93: static volatile near unsigne
      +                          d int CCPR1 @ 0xFBE;
   195                           ;pic18f45k20.h: 94: static volatile near unsigne
      +                          d char CCP1CON @ 0xFBD;
   196                           ;pic18f45k20.h: 95: static volatile near unsigne
      +                          d char CCPR2H @ 0xFBC;
   197                           ;pic18f45k20.h: 96: static volatile near unsigne
      +                          d char CCPR2L @ 0xFBB;
   198                           ;pic18f45k20.h: 98: static volatile near unsigne
      +                          d int CCPR2 @ 0xFBB;
   199                           ;pic18f45k20.h: 99: static volatile near unsigne
      +                          d char CCP2CON @ 0xFBA;
   200                           ;pic18f45k20.h: 100: static near unsigned char P
      +                          STRCON @ 0xFB9;
   201                           ;pic18f45k20.h: 101: static volatile near unsign
      +                          ed char BAUDCTL @ 0xFB8;
   202                           ;pic18f45k20.h: 102: static volatile near unsign
      +                          ed char PWM1CON @ 0xFB7;
   203                           ;pic18f45k20.h: 103: static volatile near unsign
      +                          ed char ECCP1AS @ 0xFB6;
   204                           ;pic18f45k20.h: 104: static volatile near unsign
      +                          ed char CVRCON @ 0xFB5;
   205                           ;pic18f45k20.h: 105: static volatile near unsign
      +                          ed char CVRCON2 @ 0xFB4;
   206                           ;pic18f45k20.h: 106: static volatile near unsign
      +                          ed char TMR3H @ 0xFB3;
   207                           ;pic18f45k20.h: 107: static volatile near unsign
      +                          ed char TMR3L @ 0xFB2;
   208                           ;pic18f45k20.h: 109: static volatile near unsign
      +                          ed int TMR3 @ 0xFB2;
   209                           ;pic18f45k20.h: 110: static near unsigned char T
      +                          3CON @ 0xFB1;
   210                           ;pic18f45k20.h: 111: static near unsigned char S
      +                          PBRGH @ 0xFB0;
   211                           ;pic18f45k20.h: 112: static near unsigned char S
      +                          PBRG @ 0xFAF;
   212                           ;pic18f45k20.h: 114: static near unsigned char S
      +                          PBRG1 @ 0xFAF;
   213                           ;pic18f45k20.h: 115: static volatile near unsign
      +                          ed char RCREG @ 0xFAE;
   214                           ;pic18f45k20.h: 117: static volatile near unsign
      +                          ed char RCREG1 @ 0xFAE;
   215                           ;pic18f45k20.h: 118: static volatile near unsign
      +                          ed char TXREG @ 0xFAD;
   216                           ;pic18f45k20.h: 120: static volatile near unsign
      +                          ed char TXREG1 @ 0xFAD;
   217                           ;pic18f45k20.h: 121: static volatile near unsign
      +                          ed char TXSTA @ 0xFAC;
   218                           ;pic18f45k20.h: 123: static volatile near unsign
      +                          ed char TXSTA1 @ 0xFAC;
   219                           ;pic18f45k20.h: 124: static volatile near unsign
      +                          ed char RCSTA @ 0xFAB;
   220                           ;pic18f45k20.h: 126: static volatile near unsign
      +                          ed char RCSTA1 @ 0xFAB;
   221                           ;pic18f45k20.h: 128: static near unsigned char E
      +                          EADRH @ 0xFAA;
   222                           ;pic18f45k20.h: 130: static near unsigned char E
      +                          EADR @ 0xFA9;
   223                           ;pic18f45k20.h: 131: static volatile near unsign
      +                          ed char EEDATA @ 0xFA8;
   224                           ;pic18f45k20.h: 132: static volatile near unsign
      +                          ed char EECON2 @ 0xFA7;
   225  00EBBC                     _ISR:
   226  00EBBC                     int_func:
   227  000000                     
   228                           ;isr.c: 11: if((RCIF)&&(RCIE))
   229  00EBBC  BA9E               	btfsc	3998,5,c	;volatile
   230  00EBBE  AA9D               	btfss	3997,5,c
   231  00EBC0  D002               	goto	l2
   232                           ;isr.c: 12: {
   233  00EBC2  ECBD  F06F         	call	_IntUSARTRC	;wreg free
   234  00EBC6                     l2:
   235                           ;isr.c: 14: }
   236  00EBC6  B89E               	btfsc	3998,4,c	;volatile
   237  00EBC8  A89D               	btfss	3997,4,c
   238  00EBCA  D002               	goto	l3
   239                           ;isr.c: 16: {
   240  00EBCC  EC43  F070         	call	_IntUSARTTR	;wreg free
   241  00EBD0                     l3:
   242                           ;isr.c: 18: }
   243  00EBD0  B09E               	btfsc	3998,0,c	;volatile
   244  00EBD2  A09D               	btfss	3997,0,c
   245  00EBD4  D00F               	goto	l4
   246                           ;isr.c: 20: {
   247  00EBD6  909E               	bcf	3998,0,c	;volatile
   248                           ;isr.c: 22: ReloadTimer1();
   249  00EBD8  EC7D  F078         	call	_ReloadTimer1	;wreg free
   250                           ;isr.c: 23: IncRTimer();
   251  00EBDC  ECF3  F073         	call	_IncRTimer	;wreg free
   252                           ;isr.c: 24: IncPmrTimer();
   253  00EBE0  EC37  F037         	call	_IncPmrTimer	;wreg free
   254                           ;isr.c: 27: IncRSTimer();
   255  00EBE4  ECF2  F05A         	call	_IncRSTimer	;wreg free
   256                           ;isr.c: 28: IncRSTimer2();
   257  00EBE8  EC00  F05B         	call	_IncRSTimer2	;wreg free
   258                           ;isr.c: 29: StabPort();
   259  00EBEC  ECAB  F06E         	call	_StabPort	;wreg free
   260                           ;isr.c: 30: FormatDataIMY();
   261  00EBF0  EC92  F05C         	call	_FormatDataIMY	;wreg free
   262  00EBF4                     l4:
   263                           ;isr.c: 31: }
   264  00EBF4  B4F2               	btfsc	intcon,2,c	;volatile
   265  00EBF6  AAF2               	btfss	intcon,5,c
   266  00EBF8  D001               	goto	l5
   267                           ;isr.c: 33: {
   268  00EBFA  94F2               	bcf	intcon,2,c	;volatile
   269  00EBFC                     l5:
   270                           ;isr.c: 35: }
   271  00EBFC  B29E               	btfsc	3998,1,c	;volatile
   272  00EBFE  A29D               	btfss	3997,1,c
   273  00EC00  D005               	goto	l6
   274                           ;isr.c: 37: {
   275  00EC02  929E               	bcf	3998,1,c	;volatile
   276                           ;isr.c: 39: IntPWM();
   277  00EC04  EC9E  F06C         	call	_IntPWM	;wreg free
   278                           ;isr.c: 40: IntPWM2();
   279  00EC08  ECC6  F06C         	call	_IntPWM2	;wreg free
   280  00EC0C                     l6:
   281                           ;isr.c: 41: }
   282  00EC0C  B69E               	btfsc	3998,3,c	;volatile
   283  00EC0E  A69D               	btfss	3997,3,c
   284  00EC10  D003               	goto	restore
   285                           ;isr.c: 43: {
   286  00EC12  969E               	bcf	3998,3,c	;volatile
   287                           ;isr.c: 45: I2CSlaveTR();
   288  00EC14  ECCD  F05B         	call	_I2CSlaveTR	;wreg free
   289                           ;isr.c: 46: }
   290  00EC18                     restore:
   291  00EC18  CF45  FFF3         	movff	saved_regsh,prodl
   292  00EC1C  CF46  FFF4         	movff	saved_regsh+1,prodh
   293  00EC20  CF47  FFF5         	movff	saved_regsh+2,tablat
   294  00EC24  CF48  FFF6         	movff	saved_regsh+3,tblptrl
   295  00EC28  CF49  FFF7         	movff	saved_regsh+4,tblptrh
   296  00EC2C  CF4A  F000         	movff	saved_regsh+5,btemp
   297  00EC30  CF4B  F001         	movff	saved_regsh+6,btemp+1
   298  00EC34  CF4C  F002         	movff	saved_regsh+7,btemp+2
   299  00EC38  CF4D  F003         	movff	saved_regsh+8,btemp+3
   300  00EC3C  CF4E  F004         	movff	saved_regsh+9,btemp+4
   301  00EC40  CF4F  F005         	movff	saved_regsh+10,btemp+5
   302  00EC44  CF50  F006         	movff	saved_regsh+11,btemp+6
   303  00EC48  CF51  F007         	movff	saved_regsh+12,btemp+7
   304  00EC4C  CF52  F008         	movff	saved_regsh+13,btemp+8
   305  00EC50  CF53  F009         	movff	saved_regsh+14,btemp+9
   306  00EC54  CF54  F00A         	movff	saved_regsh+15,btemp+10
   307  00EC58  CF55  F00B         	movff	saved_regsh+16,btemp+11
   308  00EC5C  CF56  F00C         	movff	saved_regsh+17,btemp+12
   309  00EC60  CF57  F00D         	movff	saved_regsh+18,btemp+13
   310  00EC64  CF58  F00E         	movff	saved_regsh+19,btemp+14
   311  00EC68  CF59  FFDA         	movff	saved_regsh+20,fsr2h
   312  00EC6C  CF5A  FFD9         	movff	saved_regsh+21,fsr2l
   313  00EC70  CF5B  FFE2         	movff	saved_regsh+22,fsr1h
   314  00EC74  CF5C  FFE1         	movff	saved_regsh+23,fsr1l
   315  00EC78  CF5D  FFEA         	movff	saved_regsh+24,fsr0h
   316  00EC7C  CF5E  FFE9         	movff	saved_regsh+25,fsr0l
   317  00EC80  CF5F  FFFA         	movff	saved_regsh+26,pclath
   318  00EC84  0011               	retfie		f
   319  00EC86                     __end_of_ISR:
   320  000000                     
   321  000000                     
   322  000000                     
   323  000000                     
   324  000000                     
   325  000000                     
   326  000000                     
   327  000000                     
   328  000000                     
   329  000000                     
   330  000000                     
   331  000000                     
   332  000000                     
   333  000000                     
   334  000000                     
   335  000000                     
   336  000000                     
   337  000000                     
   338  000000                     
   339  000000                     
   340  000000                     
   341  000000                     
   342  000000                     
   343  000000                     
   344  000000                     
   345  000000                     
   346  000000                     
   347  000000                     
   348  000000                     
   349  000000                     
   350  000000                     
   351  000000                     
   352  000000                     
   353  000000                     
   354  000000                     
   355  000000                     
   356  000000                     
   357  000000                     
   358  000000                     
   359  000000                     
   360  000000                     
   361  000000                     
   362  000000                     
   363  000000                     
   364  000000                     
   365  000000                     
   366  000000                     
   367  000000                     
   368  000000                     
   369  000000                     
   370  000000                     
   371  000000                     
   372  000000                     
   373  000000                     
   374  000000                     
   375  000000                     
   376  000000                     
   377  000000                     
   378  000000                     
   379  000000                     
   380  000000                     
   381  000000                     
   382  000000                     
   383  000000                     
   384  000000                     
   385  000000                     
   386  000000                     
   387  000000                     
   388  000000                     
   389  000000                     
   390  000000                     
   391  000000                     
   392  000000                     
   393  000000                     
   394  000000                     
   395  000000                     
   396  000000                     
   397  000000                     
   398  000000                     
   399  000000                     
   400  000000                     
   401  000000                     
   402  000000                     
   403  000000                     
   404  000000                     
   405  000000                     
   406  000000                     
   407  000000                     
   408  000000                     
   409  000000                     
   410  000000                     
   411  000000                     
   412  000000                     
   413  000000                     
   414  000000                     
   415  000000                     
   416  000000                     
   417  000000                     
   418  000000                     
   419  000000                     
   420  000000                     
   421  000000                     
   422  000000                     
   423  000000                     
   424  000000                     
   425  000000                     
   426  000000                     
   427  000000                     
   428  000000                     
   429  000000                     
   430  000000                     
   431  000000                     
   432  000000                     
   433  000000                     
   434  000000                     
   435  000000                     
   436  000000                     
   437  000000                     
   438  000000                     
   439  000000                     
   440  000000                     
   441  000000                     
   442  000000                     
   443  000000                     
   444  000000                     
   445  000000                     
   446  000000                     
   447  000000                     
   448  000000                     
   449  000000                     
   450  000000                     
   451  000000                     
   452  000000                     
   453  000000                     
   454  000000                     
   455  000000                     
   456  000000                     
   457  000000                     
   458  000000                     
   459  000000                     
   460  000000                     
   461  000000                     
   462  000000                     
   463  000000                     
   464  000000                     
   465  000000                     
   466  000000                     
   467  000000                     
   468  000000                     
   469  000000                     
   470  000000                     
   471  000000                     
   472  000000                     
   473  000000                     
   474  000000                     
   475  000000                     
   476  000000                     
   477  000000                     
   478  000000                     
   479  000000                     
   480  000000                     
   481  000000                     
   482  000000                     
   483  000000                     
   484  000000                     
   485  000000                     
   486  000000                     
   487  000000                     
   488  000000                     
   489  000000                     
   490  000000                     
   491  000000                     
   492  000000                     
   493  000000                     
   494  000000                     
   495  000000                     
   496  000000                     
   497  000000                     
   498  000000                     
   499  000000                     
   500  000000                     
   501  000000                     
   502  000000                     
   503  000000                     
   504  000000                     
   505  000000                     
   506  000000                     
   507  000000                     
   508  000000                     
   509  000000                     
   510  000000                     
   511  000000                     
   512  000000                     
   513  000000                     
   514  000000                     
   515  000000                     
   516  000000                     
   517  000000                     
   518  000000                     
   519  000000                     
   520  000000                     
   521  000000                     
   522  000000                     
   523  000000                     
   524  000000                     
   525  000000                     
   526  000000                     
   527  000000                     
   528  000000                     
   529  000000                     
   530  000000                     
   531  000000                     
   532  000000                     
   533  000000                     
   534  000000                     
   535  000000                     
   536  000000                     
   537  000000                     
   538  000000                     
   539  000000                     
   540  000000                     
   541  000000                     
   542  000000                     
   543  000000                     
   544  000000                     
   545  000000                     
   546  000000                     
   547  000000                     
   548  000000                     
   549  000000                     
   550  000000                     
   551  000000                     
   552  000000                     
   553  000000                     
   554  000000                     
   555  000000                     
   556  000000                     
   557  000000                     
   558  000000                     
   559  000000                     
   560  000000                     
   561  000000                     
   562  000000                     
   563  000000                     
   564  000000                     
   565  000000                     
   566  000000                     
   567  000000                     
   568  000000                     
   569  000000                     
   570  000000                     
   571  000000                     
   572  000000                     
   573  000000                     
   574  000000                     
   575  000000                     
   576  000000                     
   577  000000                     
   578  000000                     
   579  000000                     
   580  000000                     
   581  000000                     
   582  000000                     
   583  000000                     
   584  000000                     
   585  000000                     
   586  000000                     
   587  000000                     
   588  000000                     
   589  000000                     
   590  000000                     
   591  000000                     
   592  000000                     
   593  000000                     
   594  000000                     
   595  000000                     
   596  000000                     
   597  000000                     
   598  000000                     
   599  000000                     
   600  000000                     
   601  000000                     
   602  000000                     
   603  000000                     
   604  000000                     
   605  000000                     
   606  000000                     
   607  000000                     
   608  000000                     
   609  000000                     
   610  000000                     
   611  000000                     
   612  000000                     
   613  000000                     
   614  000000                     
   615  000000                     
   616  000000                     
   617  000000                     
   618  000000                     
   619  000000                     
   620  000000                     
   621  000000                     
   622  000000                     
   623  000000                     
   624  000000                     
   625  000000                     
   626  000000                     
   627  000000                     
   628  000000                     
   629  000000                     
   630  000000                     
   631  000000                     
   632  000000                     
   633  000000                     
   634  000000                     
   635  000000                     
   636  000000                     
   637  000000                     
   638  000000                     
   639  000000                     
   640  000000                     
   641  000000                     
   642  000000                     
   643  000000                     
   644  000000                     
   645  000000                     
   646  000000                     
   647  000000                     
   648  000000                     
   649  000000                     
   650  000000                     
   651  000000                     
   652  000000                     
   653  000000                     
   654  000000                     
   655  000000                     
   656  000000                     
   657  000000                     
   658  000000                     
   659  000000                     
   660  000000                     
   661  000000                     
   662  000000                     
   663  000000                     
   664  000000                     
   665  000000                     
   666  000000                     
   667  000000                     
   668  000000                     
   669  000000                     
   670  000000                     
   671  000000                     
   672  000000                     
   673  000000                     
   674  000000                     
   675  000000                     
   676  000000                     
   677  000000                     
   678  000000                     
   679  000000                     
   680  000000                     
   681  000000                     
   682  000000                     
   683  000000                     
   684  000000                     
   685  000000                     
   686  000000                     
   687  000000                     
   688  000000                     
   689  000000                     
   690  000000                     
   691  000000                     
   692  000000                     
   693  000000                     
   694  000000                     
   695  000000                     
   696  000000                     
   697  000000                     
   698  000000                     
   699  000000                     
   700  000000                     
   701  000000                     
   702  000000                     
   703  000000                     
   704  000000                     
   705  000000                     
   706  000000                     
   707  000000                     
   708  000000                     
   709  000000                     
   710  000000                     
   711  000000                     
   712  000000                     
   713  000000                     
   714  000000                     
   715  000000                     
   716  000000                     
   717  000000                     
   718  000000                     
   719  000000                     
   720  000000                     
   721  000000                     
   722  000000                     
   723  000000                     
   724  000000                     
   725  000000                     
   726  000000                     
   727  000000                     
   728  000000                     
   729  000000                     
   730  000000                     
   731  000000                     
   732  000000                     
   733  000000                     
   734  000000                     
   735  000000                     
   736  000000                     
   737  000000                     
   738  000000                     
   739  000000                     
   740  000000                     
   741  000000                     
   742  000000                     
   743  000000                     
   744  000000                     
   745  000000                     
   746  000000                     
   747  000000                     
   748  000000                     
   749  000000                     
   750  000000                     
   751  000000                     
   752  000000                     
   753  000000                     
   754  000000                     
   755  000000                     
   756  000000                     
   757  000000                     
   758  000000                     
   759  000000                     
   760  000000                     
   761  000000                     
   762  000000                     
   763  000000                     
   764  000000                     
   765  000000                     
   766  000000                     
   767  000000                     
   768  000000                     
   769  000000                     
   770  000000                     
   771  000000                     
   772  000000                     
   773  000000                     
   774  000000                     
   775  000000                     
   776  000000                     
   777  000000                     
   778  000000                     
   779  000000                     
   780  000000                     
   781  000000                     
   782  000000                     
   783  000000                     
   784  000000                     
   785  000000                     
   786  000000                     
   787  000000                     
   788  000000                     
   789  000000                     
   790  000000                     
   791  000000                     
   792  000000                     
   793  000000                     
   794  000000                     
   795  000000                     
   796  000000                     
   797  000000                     
   798  000000                     
   799  000000                     
   800  000000                     
   801  000000                     
   802  000000                     
   803  000000                     
   804  000000                     
   805  000000                     
   806  000000                     
   807  000000                     
   808  000000                     
   809  000000                     
   810  000000                     
   811  000000                     
   812  000000                     
   813  000000                     
   814  000000                     
   815  000000                     
   816  000000                     
   817  000000                     
   818  000000                     
   819  000000                     
   820  000000                     
   821  000000                     
   822  000000                     
   823  000000                     
   824  000000                     
   825  000000                     
   826  000000                     
   827  000000                     
   828  000000                     
   829  000000                     
   830  000000                     
   831  000000                     
   832  000000                     
   833  000000                     
   834  000000                     
   835  000000                     
   836  000000                     
   837  000000                     
   838  000000                     
   839  000000                     
   840  000000                     
   841  000000                     
   842  000000                     
   843  000000                     
   844  000000                     
   845  000000                     
   846  000000                     
   847  000000                     
   848  000000                     
   849  000000                     
   850  000000                     
   851  000000                     
   852  000000                     
   853  000000                     
   854  000000                     
   855  000000                     
   856  000000                     
   857  000000                     
   858  000000                     
   859  000000                     
   860  000000                     
   861  000000                     
   862  000000                     
   863  000000                     
   864  000000                     
   865  000000                     
   866  000000                     
   867  000000                     
   868  000000                     
   869  000000                     
   870  000000                     
   871  000000                     
   872  000000                     
   873  000000                     
   874  000000                     
   875  000000                     
   876  000000                     
   877  000000                     
   878  000000                     
   879  000000                     
   880  000000                     
   881  000000                     
   882  000000                     
   883  000000                     
   884  000000                     
   885  000000                     
   886  000000                     
   887  000000                     
   888                           
   889                           	psect	intcode
   890  000008  CFFA FF5F          	movff	pclath,saved_regsh+26
   891  00000C  EFAA  F075         	goto	save
   892                           
   893                           	psect	temp
   894  000000                     btemp:
   895  000000                     	ds	15
   896                           
   897                           	psect	intsave_regs
   898  000F45                     saved_regsh:
   899  000F45                     	ds	27
   900                           pclath	equ	0xFFA
   901                           tblptrh	equ	0xFF7
   902                           tblptrl	equ	0xFF6
   903                           tablat	equ	0xFF5
   904                           prodh	equ	0xFF4
   905                           prodl	equ	0xFF3
   906                           intcon	equ	0xFF2
   907                           fsr0h	equ	0xFEA
   908                           fsr0l	equ	0xFE9
   909                           fsr1h	equ	0xFE2
   910                           fsr1l	equ	0xFE1
   911                           fsr2h	equ	0xFDA
   912                           fsr2l	equ	0xFD9


HI-TECH Software PICC-18 Macro Assembler V9.51PL3
Symbol Table                                           Mon Sep 14 17:44:51 2020

            l2 EBC6              l3 EBD0              l4 EBF4  
            l5 EBFC              l6 EC0C       _StabPort DD56  
 _ReloadTimer1 F0FA            _ISR EBBC            save EB54  
         fsr0h 000FEA           fsr1h 000FE2           fsr0l 000FE9  
         fsr2h 000FDA           fsr1l 000FE1           fsr2l 000FD9  
         btemp 0000           prodh 000FF4           prodl 000FF3  
  _IncRSTimer2 B600     used_btemp0 0001     used_btemp1 0001  
   used_btemp2 0001     used_btemp3 0001     used_btemp4 0001  
   used_btemp5 0001     used_btemp6 0001     used_btemp7 0001  
   used_btemp8 0001     used_btemp9 0001    _IncPmrTimer 6E6E  
        pclath 000FFA          tablat 000FF5        _IntPWM2 D98C  
   _I2CSlaveTR B79A        __Lparam 00E9        __ramtop 1000  
   _IncRSTimer B5E4  _FormatDataIMY B924        int_func EBBC  
       _IntPWM D93C    used_btemp10 0001    used_btemp11 0001  
  used_btemp12 0001    used_btemp13 0001    used_btemp14 0001  
   _IntUSARTRC DF7A     _IntUSARTTR E086    __end_of_ISR EC86  
    _IncRTimer E7E6         tblptrh 000FF7         tblptrl 000FF6  
       restore EC18     saved_regsh 0F45      saved_bsrh 0029  
