

HI-TECH Software PICC-18 Macro Assembler V9.51PL3
                                                       Mon Sep 14 17:33:14 2020


     1                           	processor	18F46K20
     2                           	opt	pw 80
     3                           	psect	text,global,reloc=2,class=CODE,delta=1
     4                           	psect	data,global,class=RAM,space=1,delta=1
     5                           	psect	idata,global,class=CODE,delta=1
     6                           	psect	const,global,class=CODE,delta=1
     7                           	psect	bigbss,global,class=BIGRAM,space=1,delta=
      +                          1
     8                           	psect	bss,global,class=RAM,space=1,delta=1
     9                           	psect	temp,global,ovrld,common,class=COMRAM,spa
      +                          ce=1,delta=1
    10                           	psect	intsave_regs,global,class=BIGRAM,space=1,
      +                          delta=1
    11  000000                     
    12  000000                     
    13  000000                     
    14  000000                     
    15  000000                     
    16  000000                     
    17  000000                     
    18  000000                     
    19  000000                     
    20  000000                     
    21  000000                     
    22  000000                     
    23  000000                     
    24  000000                     
    25  000000                     
    26  000000                     
    27  000000                     
    28  000000                     
    29  000000                     
    30  000000                     
    31  000000                     
    32  000000                     
    33  000000                     
    34  000000                     
    35  000000                     
    36  000000                     
    37  000000                     
    38  000000                     
    39  000000                     
    40  000000                     
    41  000000                     
    42  000000                     
    43  000000                     
    44  000000                     
    45  000000                     
    46  000000                     
    47  000000                     
    48  000000                     
    49  000000                     
    50  000000                     
    51  000000                     
    52  000000                     
    53  000000                     
    54  000000                     
    55  000000                     
    56  000000                     
    57  000000                     
    58  000000                     
    59  000000                     
    60  000000                     
    61  000000                     
    62  000000                     
    63  000000                     
    64  000000                     
    65  000000                     
    66  000000                     
    67  000000                     
    68  000000                     
    69  000000                     
    70  000000                     
    71  000000                     
    72  000000                     
    73  000000                     
    74  000000                     
    75  000000                     
    76  000000                     
    77  000000                     
    78  000000                     
    79  000000                     
    80  000000                     
    81  000000                     
    82  000000                     
    83  000000                     
    84  000000                     
    85  000000                     
    86  000000                     
    87  000000                     
    88  000000                     
    89  000000                     
    90  000000                     
    91  000000                     
    92  000000                     
    93  000000                     
    94  000000                     
    95  000000                     
    96  000000                     
    97  000000                     
    98  000000                     
    99  000000                     	;#
   100                           
   101                           	psect	text
   102                           ;pic18f45k20.h: 20: static volatile near unsigne
      +                          d char TOSU @ 0xFFF;
   103                           ;pic18f45k20.h: 21: static volatile near unsigne
      +                          d char TOSH @ 0xFFE;
   104                           ;pic18f45k20.h: 22: static volatile near unsigne
      +                          d char TOSL @ 0xFFD;
   105                           ;pic18f45k20.h: 23: static volatile near unsigne
      +                          d char STKPTR @ 0xFFC;
   106                           ;pic18f45k20.h: 24: static volatile near unsigne
      +                          d char PCLATU @ 0xFFB;
   107                           ;pic18f45k20.h: 25: static volatile near unsigne
      +                          d char PCLATH @ 0xFFA;
   108                           ;pic18f45k20.h: 26: static volatile near unsigne
      +                          d char PCL @ 0xFF9;
   109                           ;pic18f45k20.h: 27: static volatile far unsigned
      +                           char * TBLPTR @ 0xFF6;
   110                           ;pic18f45k20.h: 28: static volatile near unsigne
      +                          d char TBLPTRU @ 0xFF8;
   111                           ;pic18f45k20.h: 29: static volatile near unsigne
      +                          d char TBLPTRH @ 0xFF7;
   112                           ;pic18f45k20.h: 30: static volatile near unsigne
      +                          d char TBLPTRL @ 0xFF6;
   113                           ;pic18f45k20.h: 31: static volatile near unsigne
      +                          d char TABLAT @ 0xFF5;
   114                           ;pic18f45k20.h: 32: static volatile near unsigne
      +                          d char PRODH @ 0xFF4;
   115                           ;pic18f45k20.h: 33: static volatile near unsigne
      +                          d char PRODL @ 0xFF3;
   116                           ;pic18f45k20.h: 34: static volatile near unsigne
      +                          d char INTCON @ 0xFF2;
   117                           ;pic18f45k20.h: 35: static near unsigned char IN
      +                          TCON2 @ 0xFF1;
   118                           ;pic18f45k20.h: 36: static volatile near unsigne
      +                          d char INTCON3 @ 0xFF0;
   119                           ;pic18f45k20.h: 37: static volatile near unsigne
      +                          d char INDF0 @ 0xFEF;
   120                           ;pic18f45k20.h: 38: static volatile near unsigne
      +                          d char POSTINC0 @ 0xFEE;
   121                           ;pic18f45k20.h: 39: static volatile near unsigne
      +                          d char POSTDEC0 @ 0xFED;
   122                           ;pic18f45k20.h: 40: static volatile near unsigne
      +                          d char PREINC0 @ 0xFEC;
   123                           ;pic18f45k20.h: 41: static volatile near unsigne
      +                          d char PLUSW0 @ 0xFEB;
   124                           ;pic18f45k20.h: 42: static volatile near unsigne
      +                          d char FSR0H @ 0xFEA;
   125                           ;pic18f45k20.h: 43: static volatile near unsigne
      +                          d char FSR0L @ 0xFE9;
   126                           ;pic18f45k20.h: 44: static volatile near unsigne
      +                          d char WREG @ 0xFE8;
   127                           ;pic18f45k20.h: 45: static volatile near unsigne
      +                          d char INDF1 @ 0xFE7;
   128                           ;pic18f45k20.h: 46: static volatile near unsigne
      +                          d char POSTINC1 @ 0xFE6;
   129                           ;pic18f45k20.h: 47: static volatile near unsigne
      +                          d char POSTDEC1 @ 0xFE5;
   130                           ;pic18f45k20.h: 48: static volatile near unsigne
      +                          d char PREINC1 @ 0xFE4;
   131                           ;pic18f45k20.h: 49: static volatile near unsigne
      +                          d char PLUSW1 @ 0xFE3;
   132                           ;pic18f45k20.h: 50: static volatile near unsigne
      +                          d char FSR1H @ 0xFE2;
   133                           ;pic18f45k20.h: 51: static volatile near unsigne
      +                          d char FSR1L @ 0xFE1;
   134                           ;pic18f45k20.h: 52: static near unsigned char BS
      +                          R @ 0xFE0;
   135                           ;pic18f45k20.h: 53: static volatile near unsigne
      +                          d char INDF2 @ 0xFDF;
   136                           ;pic18f45k20.h: 54: static volatile near unsigne
      +                          d char POSTINC2 @ 0xFDE;
   137                           ;pic18f45k20.h: 55: static volatile near unsigne
      +                          d char POSTDEC2 @ 0xFDD;
   138                           ;pic18f45k20.h: 56: static volatile near unsigne
      +                          d char PREINC2 @ 0xFDC;
   139                           ;pic18f45k20.h: 57: static volatile near unsigne
      +                          d char PLUSW2 @ 0xFDB;
   140                           ;pic18f45k20.h: 58: static volatile near unsigne
      +                          d char FSR2H @ 0xFDA;
   141                           ;pic18f45k20.h: 59: static volatile near unsigne
      +                          d char FSR2L @ 0xFD9;
   142                           ;pic18f45k20.h: 60: static volatile near unsigne
      +                          d char STATUS @ 0xFD8;
   143                           ;pic18f45k20.h: 61: static volatile near unsigne
      +                          d char TMR0H @ 0xFD7;
   144                           ;pic18f45k20.h: 62: static volatile near unsigne
      +                          d char TMR0L @ 0xFD6;
   145                           ;pic18f45k20.h: 64: static volatile near unsigne
      +                          d int TMR0 @ 0xFD6;
   146                           ;pic18f45k20.h: 65: static near unsigned char T0
      +                          CON @ 0xFD5;
   147                           ;pic18f45k20.h: 66: static volatile near unsigne
      +                          d char OSCCON @ 0xFD3;
   148                           ;pic18f45k20.h: 67: static volatile near unsigne
      +                          d char HLVDCON @ 0xFD2;
   149                           ;pic18f45k20.h: 68: static volatile near unsigne
      +                          d char WDTCON @ 0xFD1;
   150                           ;pic18f45k20.h: 69: static volatile near unsigne
      +                          d char RCON @ 0xFD0;
   151                           ;pic18f45k20.h: 70: static volatile near unsigne
      +                          d char TMR1H @ 0xFCF;
   152                           ;pic18f45k20.h: 71: static volatile near unsigne
      +                          d char TMR1L @ 0xFCE;
   153                           ;pic18f45k20.h: 73: static volatile near unsigne
      +                          d int TMR1 @ 0xFCE;
   154                           ;pic18f45k20.h: 74: static near unsigned char T1
      +                          CON @ 0xFCD;
   155                           ;pic18f45k20.h: 75: static volatile near unsigne
      +                          d char TMR2 @ 0xFCC;
   156                           ;pic18f45k20.h: 76: static near unsigned char PR
      +                          2 @ 0xFCB;
   157                           ;pic18f45k20.h: 77: static near unsigned char T2
      +                          CON @ 0xFCA;
   158                           ;pic18f45k20.h: 78: static volatile near unsigne
      +                          d char SSPBUF @ 0xFC9;
   159                           ;pic18f45k20.h: 79: static near unsigned char SS
      +                          PADD @ 0xFC8;
   160                           ;pic18f45k20.h: 80: static volatile near unsigne
      +                          d char SSPSTAT @ 0xFC7;
   161                           ;pic18f45k20.h: 81: static volatile near unsigne
      +                          d char SSPCON1 @ 0xFC6;
   162                           ;pic18f45k20.h: 82: static volatile near unsigne
      +                          d char SSPCON2 @ 0xFC5;
   163                           ;pic18f45k20.h: 83: static volatile near unsigne
      +                          d char ADRESH @ 0xFC4;
   164                           ;pic18f45k20.h: 84: static volatile near unsigne
      +                          d char ADRESL @ 0xFC3;
   165                           ;pic18f45k20.h: 86: static volatile near unsigne
      +                          d int ADRES @ 0xFC3;
   166                           ;pic18f45k20.h: 87: static volatile near unsigne
      +                          d char ADCON0 @ 0xFC2;
   167                           ;pic18f45k20.h: 88: static near unsigned char AD
      +                          CON1 @ 0xFC1;
   168                           ;pic18f45k20.h: 89: static near unsigned char AD
      +                          CON2 @ 0xFC0;
   169                           ;pic18f45k20.h: 90: static volatile near unsigne
      +                          d char CCPR1H @ 0xFBF;
   170                           ;pic18f45k20.h: 91: static volatile near unsigne
      +                          d char CCPR1L @ 0xFBE;
   171                           ;pic18f45k20.h: 93: static volatile near unsigne
      +                          d int CCPR1 @ 0xFBE;
   172                           ;pic18f45k20.h: 94: static volatile near unsigne
      +                          d char CCP1CON @ 0xFBD;
   173                           ;pic18f45k20.h: 95: static volatile near unsigne
      +                          d char CCPR2H @ 0xFBC;
   174                           ;pic18f45k20.h: 96: static volatile near unsigne
      +                          d char CCPR2L @ 0xFBB;
   175                           ;pic18f45k20.h: 98: static volatile near unsigne
      +                          d int CCPR2 @ 0xFBB;
   176                           ;pic18f45k20.h: 99: static volatile near unsigne
      +                          d char CCP2CON @ 0xFBA;
   177                           ;pic18f45k20.h: 100: static near unsigned char P
      +                          STRCON @ 0xFB9;
   178                           ;pic18f45k20.h: 101: static volatile near unsign
      +                          ed char BAUDCTL @ 0xFB8;
   179                           ;pic18f45k20.h: 102: static volatile near unsign
      +                          ed char PWM1CON @ 0xFB7;
   180                           ;pic18f45k20.h: 103: static volatile near unsign
      +                          ed char ECCP1AS @ 0xFB6;
   181                           ;pic18f45k20.h: 104: static volatile near unsign
      +                          ed char CVRCON @ 0xFB5;
   182                           ;pic18f45k20.h: 105: static volatile near unsign
      +                          ed char CVRCON2 @ 0xFB4;
   183                           ;pic18f45k20.h: 106: static volatile near unsign
      +                          ed char TMR3H @ 0xFB3;
   184                           ;pic18f45k20.h: 107: static volatile near unsign
      +                          ed char TMR3L @ 0xFB2;
   185                           ;pic18f45k20.h: 109: static volatile near unsign
      +                          ed int TMR3 @ 0xFB2;
   186                           ;pic18f45k20.h: 110: static near unsigned char T
      +                          3CON @ 0xFB1;
   187                           ;pic18f45k20.h: 111: static near unsigned char S
      +                          PBRGH @ 0xFB0;
   188                           ;pic18f45k20.h: 112: static near unsigned char S
      +                          PBRG @ 0xFAF;
   189                           ;pic18f45k20.h: 114: static near unsigned char S
      +                          PBRG1 @ 0xFAF;
   190                           ;pic18f45k20.h: 115: static volatile near unsign
      +                          ed char RCREG @ 0xFAE;
   191                           ;pic18f45k20.h: 117: static volatile near unsign
      +                          ed char RCREG1 @ 0xFAE;
   192                           ;pic18f45k20.h: 118: static volatile near unsign
      +                          ed char TXREG @ 0xFAD;
   193                           ;pic18f45k20.h: 120: static volatile near unsign
      +                          ed char TXREG1 @ 0xFAD;
   194                           ;pic18f45k20.h: 121: static volatile near unsign
      +                          ed char TXSTA @ 0xFAC;
   195                           ;pic18f45k20.h: 123: static volatile near unsign
      +                          ed char TXSTA1 @ 0xFAC;
   196                           ;pic18f45k20.h: 124: static volatile near unsign
      +                          ed char RCSTA @ 0xFAB;
   197                           ;pic18f45k20.h: 126: static volatile near unsign
      +                          ed char RCSTA1 @ 0xFAB;
   198                           ;pic18f45k20.h: 128: static near unsigned char E
      +                          EADRH @ 0xFAA;
   199                           ;pic18f45k20.h: 130: static near unsigned char E
      +                          EADR @ 0xFA9;
   200                           ;pic18f45k20.h: 131: static volatile near unsign
      +                          ed char EEDATA @ 0xFA8;
   201                           ;pic18f45k20.h: 132: static volatile near unsign
      +                          ed char EECON2 @ 0xFA7;
   202  000000                     	;#
   203                           ;	_i assigned to ?a_CopyEESTAT+1
   204  000000                     _CopyEESTAT$i	set	?a_CopyEESTAT+1
   205                           ;	_nr0 assigned to ?a_CopyEESTAT+0
   206  000000                     _CopyEESTAT$nr0	set	?a_CopyEESTAT
   207                           ;       param _nr1 assigned to ?_CopyEESTAT+0
   208  000000                     _CopyEESTAT$nr1	set	?_CopyEESTAT
   209                           ;	_d assigned to ?a_WriteEESTAT+2
   210  000000                     _WriteEESTAT$d	set	?a_WriteEESTAT+2
   211                           ;	_nr assigned to ?a_WriteEESTAT+1
   212  000000                     _WriteEESTAT$nr	set	?a_WriteEESTAT+1
   213                           ;	_e assigned to ?a_WriteEESTAT+0
   214  000000                     _WriteEESTAT$e	set	?a_WriteEESTAT
   215                           ;	_adr assigned to ?a_WriteBtySTAT+0
   216  000000                     _WriteBtySTAT$adr	set	?a_WriteBtySTAT
   217                           ;       param _dt assigned to ?_WriteBtySTAT+1
   218  000000                     _WriteBtySTAT$dt	set	?_WriteBtySTAT+1
   219                           ;       param _ind assigned to ?_WriteBtySTAT+0
   220  000000                     _WriteBtySTAT$ind	set	?_WriteBtySTAT
   221                           ;	_adr assigned to ?a_ReadBtySTAT+0
   222  000000                     _ReadBtySTAT$adr	set	?a_ReadBtySTAT
   223                           ;       param _ind assigned to ?_ReadBtySTAT+0
   224  000000                     _ReadBtySTAT$ind	set	?_ReadBtySTAT
   225                           ;       param _dt assigned to ?_WriteBtyNZSTAT+0
   226  000000                     _WriteBtyNZSTAT$dt	set	?_WriteBtyNZSTAT
   227                           ;	_ind assigned to ?a_ReadBtyNZSTAT+0
   228  000000                     _ReadBtyNZSTAT$ind	set	?a_ReadBtyNZSTAT
   229                           ;	_ind assigned to ?a_ReadBtyEEHIST+0
   230  000000                     _ReadBtyEEHIST$ind	set	?a_ReadBtyEEHIST
   231                           ;	_ind assigned to ?a_ReadBtyHREF+0
   232  000000                     _ReadBtyHREF$ind	set	?a_ReadBtyHREF
   233                           ;       param _dta assigned to ?_if_eeprom_write
      +                          +2
   234  000000                     _if_eeprom_write$dta	set	?_if_eeprom_write+2
   235                           ;       param _adr assigned to ?_if_eeprom_write
      +                          +0
   236  000000                     _if_eeprom_write$adr	set	?_if_eeprom_write
   237                           ;       param _p assigned to ?_WriteEEVNT7+0
   238  000000                     _WriteEEVNT7$p	set	?_WriteEEVNT7
   239                           ;       param _p assigned to ?_WriteEEVNT6+0
   240  000000                     _WriteEEVNT6$p	set	?_WriteEEVNT6
   241                           ;       param _p assigned to ?_WriteEEVNT5+0
   242  000000                     _WriteEEVNT5$p	set	?_WriteEEVNT5
   243                           ;       param _p assigned to ?_WriteEEVNT4+0
   244  000000                     _WriteEEVNT4$p	set	?_WriteEEVNT4
   245                           ;       param _p assigned to ?_WriteEEVNT3+0
   246  000000                     _WriteEEVNT3$p	set	?_WriteEEVNT3
   247                           ;       param _p assigned to ?_WriteEEVNT2+0
   248  000000                     _WriteEEVNT2$p	set	?_WriteEEVNT2
   249                           ;       param _p assigned to ?_WriteEEVNT1+0
   250  000000                     _WriteEEVNT1$p	set	?_WriteEEVNT1
   251                           ;       param _p assigned to ?_WriteEEVNT0+0
   252  000000                     _WriteEEVNT0$p	set	?_WriteEEVNT0
   253                           ;	_d assigned to ?a_WriteEEALIN+0
   254  000000                     _WriteEEALIN$d	set	?a_WriteEEALIN
   255                           ;	_d assigned to ?a_ReadEEPopPFN+0
   256  000000                     _ReadEEPopPFN$d	set	?a_ReadEEPopPFN
   257                           ;	_d assigned to ?a_ReadEEPFN+0
   258  000000                     _ReadEEPFN$d	set	?a_ReadEEPFN
   259                           ;	_d1 assigned to ?a_WriteEEPFN+0
   260  000000                     _WriteEEPFN$d1	set	?a_WriteEEPFN
   261                           ;	_i assigned to ?a_SetNSTCO+0
   262  000000                     _SetNSTCO$i	set	?a_SetNSTCO
   263                           ;	_kn assigned to ?a_SetMinMaxPCO+0
   264  000000                     _SetMinMaxPCO$kn	set	?a_SetMinMaxPCO
   265                           ;main.h: 37: asm("\tglobal __config" "2"); asm("
      +                          \t__config" "2" " equ " "0xFFFF&0xFFFF&0xFFEF&0x
      +                          FFFF&0xEFFF");
   266  000000                     	;#
   267                           ;main.h: 38: asm("\tglobal __config" "3"); asm("
      +                          \t__config" "3" " equ " "0xFFFF&0x7FFF&0xFDFF&0x
      +                          FFFF");
   268  000000                     	;#
   269                           ;main.h: 39: asm("\tglobal __config" "4"); asm("
      +                          \t__config" "4" " equ " "0xFFFF&0xFFFF&0xFFFB&0x
      +                          FFFF");
   270  000000                     	;#
   271                           ;main.h: 42: asm("\tglobal __config" "5"); asm("
      +                          \t__config" "5" " equ " "0xFFF0");
   272  000000                     	;#
   273                           ;main.h: 43: asm("\tglobal __config" "6"); asm("
      +                          \t__config" "6" " equ " "0xFFF0&0xDFFF");
   274  000000                     	;#
   275                           ;konfig.c: 29: DtMINMAX MinMax[31]=
   276                           ;konfig.c: 30: {
   277                           ;konfig.c: 31: 0x00C1, 00, 99,
   278                           ;konfig.c: 32: 0x00C2, 00, 99,
   279                           ;konfig.c: 33: 0x00C3, 00, 99,
   280                           ;konfig.c: 34: 0x00CE, 12, 20,
   281                           ;konfig.c: 35: 0x00CF, 25, 95,
   282                           ;konfig.c: 37: 0x00C5, 1, 2,
   283                           ;konfig.c: 39: 0x00C8, 0, 1,
   284                           ;konfig.c: 40: 0x00C4, 0, 1,
   285                           ;konfig.c: 41: 0x00CD, 0, 1,
   286                           ;konfig.c: 42: 0x00C6, 0, 1,
   287                           ;konfig.c: 44: 0x00CC, 1, 4,
   288                           ;konfig.c: 45: 0x00D0, 0,1,
   289                           ;konfig.c: 46: 0x00D1, 5,25,
   290                           ;konfig.c: 47: 0x00D2, 15,99,
   291                           ;konfig.c: 48: 0x00D3, 0,1,
   292                           ;konfig.c: 49: 0x00D5,0,5,
   293                           ;konfig.c: 50: 0x00D6, 0,25,
   294                           ;konfig.c: 51: 0x00D7, 25,99,
   295                           ;konfig.c: 52: 0x00D9,25,99,
   296                           ;konfig.c: 54: 0x00DA,0,15,
   297                           ;konfig.c: 55: 0x00DB,70,89,
   298                           ;konfig.c: 56: 0x00DC,0,20,
   299                           ;konfig.c: 57: 0x00DD,0,1,
   300                           ;konfig.c: 58: 0x00DE,2,30,
   301                           ;konfig.c: 59: 0x00DF, 1, 60,
   302                           ;konfig.c: 61: 0x01C0, 0, 3,
   303                           ;konfig.c: 62: 0x01C1, 10, 21,
   304                           ;konfig.c: 63: 0x01C2, 0, 20,
   305                           ;konfig.c: 64: 0x01C3, 25, 80,
   306                           ;konfig.c: 65: 0x01C5, 0, 1,
   307                           ;konfig.c: 66: 0x01C4, 0, 1,
   308                           ;konfig.c: 67: };
   309                           ;konfig.c: 73: void EnKonf(void)
   310                           ;konfig.c: 74: {
   311  00673C                     _EnKonf:
   312  000000                     
   313                           ;konfig.c: 75: DtKNF.enknf=1;
   314  00673C  0102               	movlb	_DtKNF shr (0+8)
   315  00673E  81AE               	bsf	_DtKNF& (0+255),0,b
   316  006740  D002               	goto	L23
   317                           ;konfig.c: 76: StartRTS(0);
   318                           ;konfig.c: 77: }
   319  006742                     __end_of_EnKonf:
   320                           ;konfig.c: 78: void DsKonf(void)
   321                           ;konfig.c: 79: {
   322  006742                     _DsKonf:
   323  000000                     
   324                           ;konfig.c: 80: DtKNF.enknf=0;
   325  006742  0102               	movlb	_DtKNF shr (0+8)
   326  006744  91AE               	bcf	_DtKNF& (0+255),0,b
   327  006746                     L23:
   328                           ;konfig.c: 81: StartRTS(0);
   329  006746  0E00               	movlw	0
   330  006748  EF51  F07E         	goto	_StartRTS
   331                           ;konfig.c: 82: }
   332  00674C                     __end_of_DsKonf:
   333                           ;konfig.c: 85: void MKonfiguracja(void)
   334                           ;konfig.c: 86: {
   335  00674C                     _MKonfiguracja:
   336  000000                     
   337                           ;konfig.c: 87: static unsigned char bf_AKTYWNE_K
      +                          NF=0, bf_SAVE_PAR=0;
   338  00674C  0100               	movlb	__Lparam shr (0+8)
   339  00674E  6BAE               	clrf	?_GetBit2^(__Lparam& (0+65280)),b
   340  006750  C37B  FFE8         	movff	_RSDT1+78,wreg
   341  006754  ECB9  F003         	call	_GetBit2
   342  006758  0103               	movlb	(_M+3) shr (0+8)
   343  00675A  9309               	bcf	(_M+3)& (0+255),1,b
   344  00675C  B0D8               	btfsc	status,0,c
   345  00675E  8309               	bsf	(_M+3)& (0+255),1,b
   346                           ;konfig.c: 98: if(PFN._off) EnKonf();
   347  006760  0100               	movlb	_PFN shr (0+8)
   348  006762  A567               	btfss	_PFN& (0+255),2,b
   349  006764  D002               	goto	l31
   350  006766  DFEA               	call	_EnKonf	;wreg free
   351  006768  D001               	goto	l32
   352  00676A                     l31:
   353                           ;konfig.c: 99: else DsKonf();
   354  00676A  DFEB               	call	_DsKonf	;wreg free
   355  00676C                     l32:
   356                           ;konfig.c: 102: if((bf_AKTYWNE_KNF&&!M._AKTYWNE_
      +                          KNF)||!MGSD._CON)
   357  00676C  010E               	movlb	F2116 shr (0+8)
   358  00676E  53E1               	movf	F2116& (0+255),f,b
   359  006770  E003               	bz	u51
   360  006772  0103               	movlb	(_M+3) shr (0+8)
   361  006774  A309               	btfss	(_M+3)& (0+255),1,b
   362  006776  D003               	goto	u70
   363  006778                     u51:
   364  006778  0103               	movlb	_MGSD shr (0+8)
   365  00677A  BDAA               	btfsc	_MGSD& (0+255),6,b
   366  00677C  D009               	goto	l33
   367  00677E                     u70:
   368                           ;konfig.c: 103: {
   369  00677E  010E               	movlb	F2116 shr (0+8)
   370  006780  6BE1               	clrf	F2116& (0+255),b
   371                           ;konfig.c: 105: DtKNF.wymCO=0;
   372  006782  0102               	movlb	_DtKNF shr (0+8)
   373  006784  93AE               	bcf	_DtKNF& (0+255),1,b
   374                           ;konfig.c: 106: DtKNF.wymCW=0;
   375  006786  95AE               	bcf	_DtKNF& (0+255),2,b
   376                           ;konfig.c: 107: bf_SAVE_PAR=0;
   377  006788  010E               	movlb	F2117 shr (0+8)
   378  00678A  6BE2               	clrf	F2117& (0+255),b
   379                           ;konfig.c: 108: RdEEParam();
   380  00678C  EF2A  F03F         	goto	_RdEEParam	;wreg free
   381                           ;konfig.c: 109: return;
   382  006790                     l33:
   383                           ;konfig.c: 110: }
   384  006790  0103               	movlb	(_M+3) shr (0+8)
   385  006792  A309               	btfss	(_M+3)& (0+255),1,b
   386  006794  0012               	return	
   387                           ;konfig.c: 112: {
   388  006796  010E               	movlb	F2116 shr (0+8)
   389  006798  53E1               	movf	F2116& (0+255),f,b
   390  00679A  E102               	bnz	l35
   391                           ;konfig.c: 114: {
   392  00679C  010E               	movlb	F2117 shr (0+8)
   393  00679E  6BE2               	clrf	F2117& (0+255),b
   394  0067A0                     l35:
   395                           ;konfig.c: 116: }
   396  0067A0  0E01               	movlw	1
   397  0067A2  CFE8 FEE1          	movff	wreg,F2116
   398                           ;konfig.c: 118: DtKNF.KRK=RSDT1.inKRK;
   399  0067A6  C382  F2B0         	movff	_RSDT1+85,_DtKNF+2
   400                           ;konfig.c: 119: RSDT1.outKRK=DtKNF.KRK;
   401  0067AA  C2B0  F351         	movff	_DtKNF+2,_RSDT1+36
   402                           ;konfig.c: 120: switch(DtKNF.KRK)
   403  0067AE  D069               	goto	l37
   404  0067B0                     l38:
   405                           ;konfig.c: 121: {
   406                           ;konfig.c: 123: {
   407  0067B0  0102               	movlb	_DtKNF shr (0+8)
   408  0067B2  93AE               	bcf	_DtKNF& (0+255),1,b
   409                           ;konfig.c: 125: DtKNF.wymCW=0;
   410  0067B4  95AE               	bcf	_DtKNF& (0+255),2,b
   411                           ;konfig.c: 126: RefKnfPar();
   412  0067B6  D06E               	goto	_RefKnfPar	;wreg free
   413                           ;konfig.c: 127: break;
   414  0067B8                     l39:
   415                           ;konfig.c: 128: }
   416                           ;konfig.c: 130: {
   417  0067B8  C383  F2AF         	movff	_RSDT1+86,_DtKNF+1
   418                           ;konfig.c: 132: RSDT1.outPRM=DtKNF.PRM;
   419  0067BC  C2AF  F352         	movff	_DtKNF+1,_RSDT1+37
   420                           ;konfig.c: 134: if(DtKNF.PRM>2)
   421  0067C0  0E02               	movlw	2
   422  0067C2  0102               	movlb	(_DtKNF+1) shr (0+8)
   423  0067C4  65AF               	cpfsgt	(_DtKNF+1)& (0+255),b
   424  0067C6  D022               	goto	l42
   425                           ;konfig.c: 135: {
   426  0067C8  93AE               	bcf	_DtKNF& (0+255),1,b
   427                           ;konfig.c: 137: DtKNF.wymCW=0;
   428  0067CA  95AE               	bcf	_DtKNF& (0+255),2,b
   429                           ;konfig.c: 138: }
   430  0067CC  D01F               	goto	l42
   431  0067CE                     l43:
   432                           ;konfig.c: 142: {
   433                           ;konfig.c: 145: {
   434  0067CE  C384  F2B1         	movff	_RSDT1+87,_DtKNF+3
   435                           ;konfig.c: 147: DtKNF.wymCO=1;
   436  0067D2  0102               	movlb	_DtKNF shr (0+8)
   437  0067D4  83AE               	bsf	_DtKNF& (0+255),1,b
   438                           ;konfig.c: 148: DtKNF.wymCW=0;
   439  0067D6  95AE               	bcf	_DtKNF& (0+255),2,b
   440                           ;konfig.c: 149: break;
   441  0067D8  0012               	return	
   442  0067DA                     l44:
   443                           ;konfig.c: 150: }
   444                           ;konfig.c: 153: {
   445  0067DA  C384  F2B2         	movff	_RSDT1+87,_DtKNF+4
   446                           ;konfig.c: 155: DtKNF.wymCO=0;
   447  0067DE  0102               	movlb	_DtKNF shr (0+8)
   448  0067E0  93AE               	bcf	_DtKNF& (0+255),1,b
   449                           ;konfig.c: 156: if(DtKNF.tpkt==0)
   450  0067E2  EE02  F0BC         	lfsr	0,_DtKNF+14
   451  0067E6  50EF               	movf	indf0,w,c
   452  0067E8  E102               	bnz	l45
   453                           ;konfig.c: 157: {
   454  0067EA  85AE               	bsf	_DtKNF& (0+255),2,b
   455                           ;konfig.c: 159: }
   456  0067EC  0012               	return	
   457  0067EE                     l45:
   458                           ;konfig.c: 160: else
   459  0067EE  0E0B               	movlw	11
   460  0067F0  EC1C  F07A         	call	_RdPrt
   461  0067F4  0102               	movlb	_DtKNF shr (0+8)
   462  0067F6  E302               	bnc	L21
   463  0067F8  85AE               	bsf	_DtKNF& (0+255),2,b
   464  0067FA  0012               	return	
   465                           ;konfig.c: 163: else DtKNF.wymCW=0;
   466  0067FC                     L21:
   467  0067FC  95AE               	bcf	_DtKNF& (0+255),2,b
   468                           ;konfig.c: 164: }
   469  0067FE  0012               	return	
   470  006800                     l49:
   471                           ;konfig.c: 166: }
   472                           ;konfig.c: 169: {
   473  006800  C384  F2B3         	movff	_RSDT1+87,_DtKNF+5
   474                           ;konfig.c: 171: DtKNF.wymCO=1;
   475  006804  0102               	movlb	_DtKNF shr (0+8)
   476  006806  83AE               	bsf	_DtKNF& (0+255),1,b
   477                           ;konfig.c: 172: DtKNF.wymCW=0;
   478  006808  95AE               	bcf	_DtKNF& (0+255),2,b
   479                           ;konfig.c: 173: break;
   480  00680A  0012               	return	
   481  00680C                     l42:
   482  00680C  C2AF  FFE8         	movff	_DtKNF+1,wreg
   483  006810  0A00               	xorlw	0
   484  006812  E0DD               	bz	l43
   485  006814  0A01               	xorlw	1
   486  006816  E0E1               	bz	l44
   487  006818  0A03               	xorlw	3
   488  00681A  E0F2               	bz	l49
   489  00681C  0012               	return	
   490                           ;konfig.c: 176: break;
   491  00681E                     l50:
   492                           ;konfig.c: 177: }
   493                           ;konfig.c: 179: {
   494  00681E  010E               	movlb	F2117 shr (0+8)
   495  006820  53E2               	movf	F2117& (0+255),f,b
   496  006822  A4D8               	btfss	status,2,c
   497  006824  0012               	return	
   498                           ;konfig.c: 181: {
   499  006826  0103               	movlb	(_M+8) shr (0+8)
   500  006828  970E               	bcf	(_M+8)& (0+255),3,b
   501                           ;konfig.c: 183: if_eeprom_write(0x01D7,0);
   502  00682A  0100               	movlb	__Lparam shr (0+8)
   503  00682C  0ED7               	movlw	215
   504  00682E  6FB4               	movwf	?_if_eeprom_write^(__Lparam& (0+65280)),b
   505  006830  0E01               	movlw	1
   506  006832  6FB5               	movwf	(?_if_eeprom_write+1)^(__Lparam& (0+65280
      +                          )),b
   507  006834  6BB6               	clrf	(?_if_eeprom_write+2)^(__Lparam& (0+65280)
      +                          ),b
   508  006836  EC85  F043         	call	_if_eeprom_write	;wreg free
   509                           ;konfig.c: 184: bf_SAVE_PAR=SaveKnfPar();
   510  00683A  D8B2               	call	_SaveKnfPar	;wreg free
   511  00683C  CFE8 FEE2          	movff	wreg,F2117
   512                           ;konfig.c: 185: if((M.STRB==2)||(RSDT1.vKNF<9)) 
      +                          M._KNF_KAL=0;
   513  006840  C32C  FFE8         	movff	_M+38,wreg
   514  006844  0A02               	xorlw	2
   515  006846  E004               	bz	u160
   516  006848  0E09               	movlw	9
   517  00684A  0103               	movlb	(_RSDT1+34) shr (0+8)
   518  00684C  614F               	cpfslt	(_RSDT1+34)& (0+255),b
   519  00684E  D002               	goto	l52
   520  006850                     u160:
   521  006850  0103               	movlb	(_M+8) shr (0+8)
   522  006852  970E               	bcf	(_M+8)& (0+255),3,b
   523  006854                     l52:
   524                           ;konfig.c: 186: if(M._KNF_KAL)
   525  006854  0103               	movlb	(_M+8) shr (0+8)
   526  006856  A70E               	btfss	(_M+8)& (0+255),3,b
   527  006858  0012               	return	
   528                           ;konfig.c: 187: {
   529  00685A  0100               	movlb	__Lparam shr (0+8)
   530  00685C  0ED7               	movlw	215
   531  00685E  6FB4               	movwf	?_if_eeprom_write^(__Lparam& (0+65280)),b
   532  006860  0E01               	movlw	1
   533  006862  6FB5               	movwf	(?_if_eeprom_write+1)^(__Lparam& (0+65280
      +                          )),b
   534  006864  6FB6               	movwf	(?_if_eeprom_write+2)^(__Lparam& (0+65280
      +                          )),b
   535  006866  EC85  F043         	call	_if_eeprom_write	;wreg free
   536                           ;konfig.c: 189: BitSet2(&RSDT1.outSTAT2,7,1);
   537  00686A  0100               	movlb	__Lparam shr (0+8)
   538  00686C  0E46               	movlw	low (_RSDT1+25)
   539  00686E  6FAC               	movwf	?_BitSet2^(__Lparam& (0+65280)),b
   540  006870  0E03               	movlw	high (_RSDT1+25)
   541  006872  6FAD               	movwf	(?_BitSet2+1)^(__Lparam& (0+65280)),b
   542  006874  0E07               	movlw	7
   543  006876  6FAE               	movwf	(?_BitSet2+2)^(__Lparam& (0+65280)),b
   544  006878  0E01               	movlw	1
   545  00687A  6FAF               	movwf	(?_BitSet2+3)^(__Lparam& (0+65280)),b
   546  00687C  ECEC  F003         	call	_BitSet2	;wreg free
   547                           ;konfig.c: 190: while(1);
   548  006880                     l54:
   549  006880  D7FF               	goto	l54
   550                           ;konfig.c: 191: }
   551  006882                     l37:
   552  006882  C2B0  FFE8         	movff	_DtKNF+2,wreg
   553  006886  0A02               	xorlw	2
   554  006888  E093               	bz	l38
   555  00688A  0A01               	xorlw	1
   556  00688C  E095               	bz	l39
   557  00688E  0A07               	xorlw	7
   558  006890  E0C6               	bz	l50
   559  006892  0012               	return	
   560                           ;konfig.c: 196: }
   561  006894                     __end_of_MKonfiguracja:
   562                           ;konfig.c: 200: unsigned char RefKnfPar(void)
   563                           ;konfig.c: 201: {
   564  006894                     _RefKnfPar:
   565  000000                     
   566                           ;konfig.c: 202: if(RSDT1.RD_KNF)
   567  006894  0103               	movlb	(_RSDT1+1) shr (0+8)
   568  006896  A32E               	btfss	(_RSDT1+1)& (0+255),1,b
   569  006898  0C00               	retlw	0
   570                           ;konfig.c: 203: {
   571  00689A  872E               	bsf	(_RSDT1+1)& (0+255),3,b
   572                           ;konfig.c: 205: DtKNF.mstr=RSDT1.inMSTR;
   573  00689C  C385  F2B4         	movff	_RSDT1+88,_DtKNF+6
   574                           ;konfig.c: 206: DtKNF.mxcw=RSDT1.inMMAXU;
   575  0068A0  C386  F2B5         	movff	_RSDT1+89,_DtKNF+7
   576                           ;konfig.c: 207: DtKNF.mxco=RSDT1.inMMAXG;
   577  0068A4  C387  F2B6         	movff	_RSDT1+90,_DtKNF+8
   578                           ;konfig.c: 208: DtKNF.def_mxco=DtKNF.mxco;
   579  0068A8  C2B6  F2B7         	movff	_DtKNF+8,_DtKNF+9
   580                           ;konfig.c: 209: DtKNF.opdg=RSDT1.inOPDG;
   581  0068AC  C38C  F2C8         	movff	_RSDT1+95,_DtKNF+26
   582                           ;konfig.c: 210: DtKNF.aleg=RSDT1.inWANL;
   583  0068B0  C388  F2C7         	movff	_RSDT1+91,_DtKNF+25
   584                           ;konfig.c: 211: if(RSDT1.inKODKT!=DtKNF.kodkt)
   585  0068B4  C389  FFE8         	movff	_RSDT1+92,wreg
   586  0068B8  0102               	movlb	(_DtKNF+13) shr (0+8)
   587  0068BA  19BB               	xorwf	(_DtKNF+13)& (0+255),w,b
   588  0068BC  E006               	bz	l59
   589                           ;konfig.c: 212: {
   590  0068BE  C389  F2BB         	movff	_RSDT1+92,_DtKNF+13
   591                           ;konfig.c: 214: SetTpKtParam();
   592  0068C2  ECD0  F040         	call	_SetTpKtParam	;wreg free
   593                           ;konfig.c: 215: ModParam();
   594  0068C6  EC65  F000         	call	_ModParam	;wreg free
   595  0068CA                     l59:
   596                           ;konfig.c: 216: }
   597  0068CA  C38A  F2C3         	movff	_RSDT1+93,_DtKNF+21
   598                           ;konfig.c: 218: DtKNF.nokr=RSDT1.inNOKR;
   599  0068CE  C38B  F2C4         	movff	_RSDT1+94,_DtKNF+22
   600                           ;konfig.c: 219: DtKNF.tpcs=RSDT1.inTPCS;
   601  0068D2  C38D  F2C9         	movff	_RSDT1+96,_DtKNF+27
   602                           ;konfig.c: 220: if(DtKNF.kodkt<3)
   603  0068D6  0E03               	movlw	3
   604  0068D8  0102               	movlb	(_DtKNF+13) shr (0+8)
   605  0068DA  61BB               	cpfslt	(_DtKNF+13)& (0+255),b
   606  0068DC  D011               	goto	l60
   607                           ;konfig.c: 221: {
   608  0068DE  C38E  FFE8         	movff	_RSDT1+97,wreg
   609  0068E2  19C5               	xorwf	(_DtKNF+23)& (0+255),w,b
   610  0068E4  E004               	bz	l61
   611                           ;konfig.c: 223: {
   612  0068E6  C38E  F2C5         	movff	_RSDT1+97,_DtKNF+23
   613                           ;konfig.c: 225: ModParam();
   614  0068EA  EC65  F000         	call	_ModParam	;wreg free
   615  0068EE                     l61:
   616                           ;konfig.c: 226: }
   617  0068EE  C38F  FFE8         	movff	_RSDT1+98,wreg
   618  0068F2  0102               	movlb	(_DtKNF+24) shr (0+8)
   619  0068F4  19C6               	xorwf	(_DtKNF+24)& (0+255),w,b
   620  0068F6  E004               	bz	l60
   621                           ;konfig.c: 228: {
   622  0068F8  C38F  F2C6         	movff	_RSDT1+98,_DtKNF+24
   623                           ;konfig.c: 230: ModParam();
   624  0068FC  EC65  F000         	call	_ModParam	;wreg free
   625  006900                     l60:
   626                           ;konfig.c: 231: }
   627  006900  C390  F2BE         	movff	_RSDT1+99,_DtKNF+16
   628                           ;konfig.c: 234: DtKNF.dtpm=RSDT1.inDTPM;
   629  006904  C391  F2BF         	movff	_RSDT1+100,_DtKNF+17
   630                           ;konfig.c: 235: DtKNF.mdpm=RSDT1.inMDPM;
   631  006908  C392  F2C0         	movff	_RSDT1+101,_DtKNF+18
   632                           ;konfig.c: 236: DtKNF.teco=RSDT1.inTECO;
   633  00690C  C393  F2C1         	movff	_RSDT1+102,_DtKNF+19
   634                           ;konfig.c: 239: switch(RSDT1.vKNF)
   635  006910  D02F               	goto	l64
   636  006912                     l65:
   637                           ;konfig.c: 240: {
   638                           ;konfig.c: 242: DtKNF.cwtm=RSDT1.inCWTM;
   639  006912  C3A3  F2D7         	movff	_RSDT1+118,_DtKNF+41
   640                           ;konfig.c: 243: DtKNF.cwmg=RSDT1.inCWMG;
   641  006916  C3A2  F2D6         	movff	_RSDT1+117,_DtKNF+40
   642  00691A                     l66:
   643                           ;konfig.c: 244: case 8:
   644                           ;konfig.c: 245: DtKNF.pgmx=RSDT1.inPGMX;
   645  00691A  C3A1  F2D5         	movff	_RSDT1+116,_DtKNF+39
   646  00691E                     l67:
   647                           ;konfig.c: 246: case 7:
   648                           ;konfig.c: 247: DtKNF.pgdr=RSDT1.inPGDR;
   649  00691E  C39E  F2D2         	movff	_RSDT1+113,_DtKNF+36
   650                           ;konfig.c: 248: DtKNF.pgdg=RSDT1.inPGDG;
   651  006922  C39F  F2D3         	movff	_RSDT1+114,_DtKNF+37
   652                           ;konfig.c: 249: DtKNF.pgdo=RSDT1.inPGDO;
   653  006926  C3A0  F2D4         	movff	_RSDT1+115,_DtKNF+38
   654                           ;konfig.c: 250: DtKNF.tstr=RSDT1.inTSTR;
   655  00692A  C39C  F2D1         	movff	_RSDT1+111,_DtKNF+35
   656                           ;konfig.c: 251: DtKNF.tL3=RSDT1.inTL3;
   657  00692E  C39D  F2D8         	movff	_RSDT1+112,_DtKNF+42
   658  006932                     l68:
   659                           ;konfig.c: 252: case 6:
   660                           ;konfig.c: 253: if(RSDT1.inRFAN!=DtKNF.rfan)
   661  006932  C39B  FFE8         	movff	_RSDT1+110,wreg
   662  006936  0102               	movlb	(_DtKNF+34) shr (0+8)
   663  006938  19D0               	xorwf	(_DtKNF+34)& (0+255),w,b
   664  00693A  E004               	bz	l70
   665                           ;konfig.c: 254: {
   666  00693C  C39B  F2D0         	movff	_RSDT1+110,_DtKNF+34
   667                           ;konfig.c: 256: ModParam();
   668  006940  EC65  F000         	call	_ModParam	;wreg free
   669  006944                     l70:
   670                           ;konfig.c: 257: }
   671                           ;konfig.c: 259: DtKNF.hsco=RSDT1.inHSCO;
   672  006944  C398  F2CD         	movff	_RSDT1+107,_DtKNF+31
   673                           ;konfig.c: 260: DtKNF.conw=RSDT1.inCONW;
   674  006948  C399  F2CE         	movff	_RSDT1+108,_DtKNF+32
   675                           ;konfig.c: 261: DtKNF.prop=RSDT1.inPROP;
   676  00694C  C39A  F2CF         	movff	_RSDT1+109,_DtKNF+33
   677  006950                     l71:
   678                           ;konfig.c: 262: case 4:
   679                           ;konfig.c: 263: DtKNF.mgpm2=RSDT1.inMGPM2;
   680  006950  C397  F2CB         	movff	_RSDT1+106,_DtKNF+29
   681  006954                     l72:
   682                           ;konfig.c: 264: case 3:
   683                           ;konfig.c: 265: DtKNF.mgpm=RSDT1.inMGPM;
   684  006954  C396  F2CA         	movff	_RSDT1+105,_DtKNF+28
   685                           ;konfig.c: 266: if(DtKNF.mdpm>DtKNF.mgpm) DtKNF.
      +                          mdpm=DtKNF.mgpm;
   686  006958  C2C0  FFE8         	movff	_DtKNF+18,wreg
   687  00695C  0102               	movlb	(_DtKNF+28) shr (0+8)
   688  00695E  61CA               	cpfslt	(_DtKNF+28)& (0+255),b
   689  006960  D002               	goto	l74
   690  006962  C2CA  F2C0         	movff	_DtKNF+28,_DtKNF+18
   691  006966                     l74:
   692                           ;konfig.c: 267: case 2:
   693                           ;konfig.c: 268: DtKNF.tmxco2=RSDT1.inTMMAXG2;
   694  006966  C394  F2B9         	movff	_RSDT1+103,_DtKNF+11
   695                           ;konfig.c: 269: DtKNF.mxco2=RSDT1.inMMAXG2;
   696  00696A  C395  F2B8         	movff	_RSDT1+104,_DtKNF+10
   697  00696E                     l75:
   698                           ;konfig.c: 270: case 1:
   699                           ;konfig.c: 271: break;
   700  00696E  D014               	goto	l63
   701  006970                     l64:
   702  006970  C34F  FFE8         	movff	_RSDT1+34,wreg
   703  006974  0A01               	xorlw	1
   704  006976  E0FB               	bz	l75
   705  006978  0A03               	xorlw	3
   706  00697A  E0F5               	bz	l74
   707  00697C  0A01               	xorlw	1
   708  00697E  E0EA               	bz	l72
   709  006980  0A07               	xorlw	7
   710  006982  E0E6               	bz	l71
   711  006984  0A01               	xorlw	1
   712  006986  E0DE               	bz	l70
   713  006988  0A03               	xorlw	3
   714  00698A  E0D3               	bz	l68
   715  00698C  0A01               	xorlw	1
   716  00698E  E0C7               	bz	l67
   717  006990  0A0F               	xorlw	15
   718  006992  E0C3               	bz	l66
   719  006994  0A01               	xorlw	1
   720  006996  E0BD               	bz	l65
   721  006998                     l63:
   722                           ;konfig.c: 274: RSDT1.RRD_KNF=0;
   723  006998  0103               	movlb	(_RSDT1+1) shr (0+8)
   724  00699A  972E               	bcf	(_RSDT1+1)& (0+255),3,b
   725                           ;konfig.c: 275: RSDT1.RD_KNF=0;
   726  00699C  932E               	bcf	(_RSDT1+1)& (0+255),1,b
   727                           ;konfig.c: 276: return 1;
   728  00699E  0C01               	retlw	1
   729                           ;konfig.c: 277: }
   730                           ;konfig.c: 279: }
   731  0069A0                     __end_of_RefKnfPar:
   732                           ;konfig.c: 282: unsigned char SaveKnfPar(void)
   733                           ;konfig.c: 283: {
   734  0069A0                     _SaveKnfPar:
   735  000000                     
   736                           ;konfig.c: 284: if(RefKnfPar())
   737  0069A0  DF79               	call	_RefKnfPar	;wreg free
   738  0069A2  0900               	iorlw	0
   739  0069A4  E102 EF63  F03E    	bz	l77
   740                           ;konfig.c: 285: {
   741  0069AA  C2B4  F002         	movff	_DtKNF+6,btemp+2
   742  0069AE  6A03               	clrf	btemp+3,c
   743  0069B0  EE01  F002         	lfsr	0,_MinMax+2
   744  0069B4  CFEE F000          	movff	postinc0,btemp
   745  0069B8  CFED F001          	movff	postdec0,btemp+1
   746  0069BC  5003               	movf	btemp+3,w,c
   747  0069BE  5C01               	subwf	btemp+1,w,c
   748  0069C0  E102               	bnz	u265
   749  0069C2  5002               	movf	btemp+2,w,c
   750  0069C4  5C00               	subwf	btemp,w,c
   751  0069C6                     u265:
   752  0069C6  E20F               	bc	u281
   753  0069C8  EE01  F004         	lfsr	0,_MinMax+4
   754  0069CC  CFEE F000          	movff	postinc0,btemp
   755  0069D0  CFED F001          	movff	postdec0,btemp+1
   756  0069D4  C2B4  F002         	movff	_DtKNF+6,btemp+2
   757  0069D8  6A03               	clrf	btemp+3,c
   758  0069DA  5001               	movf	btemp+1,w,c
   759  0069DC  5C03               	subwf	btemp+3,w,c
   760  0069DE  E102               	bnz	u275
   761  0069E0  5000               	movf	btemp,w,c
   762  0069E2  5C02               	subwf	btemp+2,w,c
   763  0069E4                     u275:
   764  0069E4  E316               	bnc	u310
   765  0069E6                     u281:
   766  0069E6  C2B4  F000         	movff	_DtKNF+6,btemp
   767  0069EA  6A01               	clrf	btemp+1,c
   768  0069EC  C103  FFE8         	movff	_MinMax+3,wreg
   769  0069F0  1801               	xorwf	btemp+1,w,c
   770  0069F2  E103               	bnz	u295
   771  0069F4  C102  FFE8         	movff	_MinMax+2,wreg
   772  0069F8  1800               	xorwf	btemp,w,c
   773  0069FA                     u295:
   774  0069FA  E00B               	bz	u310
   775  0069FC  C2B4  F000         	movff	_DtKNF+6,btemp
   776  006A00  6A01               	clrf	btemp+1,c
   777  006A02  C105  FFE8         	movff	_MinMax+5,wreg
   778  006A06  1801               	xorwf	btemp+1,w,c
   779  006A08  E103               	bnz	u315
   780  006A0A  C104  FFE8         	movff	_MinMax+4,wreg
   781  006A0E  1800               	xorwf	btemp,w,c
   782  006A10                     u315:
   783  006A10  E118               	bnz	l78
   784  006A12                     u310:
   785                           ;konfig.c: 287: if(DtKNF.mstr!=eeprom_read(0x00C
      +                          1)) eeprom_write(0x00C1,DtKNF.mstr);
   786  006A12  0EC1               	movlw	193
   787  006A14  0100               	movlb	__Lparam shr (0+8)
   788  006A16  6FB7               	movwf	?_eeprom_read^(__Lparam& (0+65280)),b
   789  006A18  6BB8               	clrf	(?_eeprom_read+1)^(__Lparam& (0+65280)),b
   790  006A1A  EC2F  F007         	call	_eeprom_read	;wreg free
   791  006A1E  6E00               	movwf	btemp,c
   792  006A20  C000  F002         	movff	btemp,btemp+2
   793  006A24  6A03               	clrf	btemp+3,c
   794  006A26  C2B4  FFE8         	movff	_DtKNF+6,wreg
   795  006A2A  1802               	xorwf	btemp+2,w,c
   796  006A2C  E101               	bnz	u335
   797  006A2E  5203               	movf	btemp+3,f,c
   798  006A30                     u335:
   799  006A30  E008               	bz	l78
   800  006A32  0EC1               	movlw	193
   801  006A34  0100               	movlb	__Lparam shr (0+8)
   802  006A36  6FB7               	movwf	?_eeprom_write^(__Lparam& (0+65280)),b
   803  006A38  6BB8               	clrf	(?_eeprom_write+1)^(__Lparam& (0+65280)),b
   804  006A3A  C2B4  F0B9         	movff	_DtKNF+6,?_eeprom_write+2
   805  006A3E  EC5C  F006         	call	_eeprom_write	;wreg free
   806  006A42                     l78:
   807                           ;konfig.c: 289: if((DtKNF.mxcw>MinMax[1].min)&&(
      +                          DtKNF.mxcw<MinMax[1].max)||DtKNF.mxcw==MinMax[1]
      +                          .min||DtKNF.mxcw==MinMax[1].max)
   808  006A42  C2B5  F002         	movff	_DtKNF+7,btemp+2
   809  006A46  6A03               	clrf	btemp+3,c
   810  006A48  EE01  F008         	lfsr	0,_MinMax+8
   811  006A4C  CFEE F000          	movff	postinc0,btemp
   812  006A50  CFED F001          	movff	postdec0,btemp+1
   813  006A54  5003               	movf	btemp+3,w,c
   814  006A56  5C01               	subwf	btemp+1,w,c
   815  006A58  E102               	bnz	u345
   816  006A5A  5002               	movf	btemp+2,w,c
   817  006A5C  5C00               	subwf	btemp,w,c
   818  006A5E                     u345:
   819  006A5E  E20F               	bc	u361
   820  006A60  EE01  F00A         	lfsr	0,_MinMax+10
   821  006A64  CFEE F000          	movff	postinc0,btemp
   822  006A68  CFED F001          	movff	postdec0,btemp+1
   823  006A6C  C2B5  F002         	movff	_DtKNF+7,btemp+2
   824  006A70  6A03               	clrf	btemp+3,c
   825  006A72  5001               	movf	btemp+1,w,c
   826  006A74  5C03               	subwf	btemp+3,w,c
   827  006A76  E102               	bnz	u355
   828  006A78  5000               	movf	btemp,w,c
   829  006A7A  5C02               	subwf	btemp+2,w,c
   830  006A7C                     u355:
   831  006A7C  E316               	bnc	u390
   832  006A7E                     u361:
   833  006A7E  C2B5  F000         	movff	_DtKNF+7,btemp
   834  006A82  6A01               	clrf	btemp+1,c
   835  006A84  C109  FFE8         	movff	_MinMax+9,wreg
   836  006A88  1801               	xorwf	btemp+1,w,c
   837  006A8A  E103               	bnz	u375
   838  006A8C  C108  FFE8         	movff	_MinMax+8,wreg
   839  006A90  1800               	xorwf	btemp,w,c
   840  006A92                     u375:
   841  006A92  E00B               	bz	u390
   842  006A94  C2B5  F000         	movff	_DtKNF+7,btemp
   843  006A98  6A01               	clrf	btemp+1,c
   844  006A9A  C10B  FFE8         	movff	_MinMax+11,wreg
   845  006A9E  1801               	xorwf	btemp+1,w,c
   846  006AA0  E103               	bnz	u395
   847  006AA2  C10A  FFE8         	movff	_MinMax+10,wreg
   848  006AA6  1800               	xorwf	btemp,w,c
   849  006AA8                     u395:
   850  006AA8  E118               	bnz	l80
   851  006AAA                     u390:
   852                           ;konfig.c: 290: if(DtKNF.mxcw!=eeprom_read(0x00C
      +                          2)) eeprom_write(0x00C2,DtKNF.mxcw);
   853  006AAA  0EC2               	movlw	194
   854  006AAC  0100               	movlb	__Lparam shr (0+8)
   855  006AAE  6FB7               	movwf	?_eeprom_read^(__Lparam& (0+65280)),b
   856  006AB0  6BB8               	clrf	(?_eeprom_read+1)^(__Lparam& (0+65280)),b
   857  006AB2  EC2F  F007         	call	_eeprom_read	;wreg free
   858  006AB6  6E00               	movwf	btemp,c
   859  006AB8  C000  F002         	movff	btemp,btemp+2
   860  006ABC  6A03               	clrf	btemp+3,c
   861  006ABE  C2B5  FFE8         	movff	_DtKNF+7,wreg
   862  006AC2  1802               	xorwf	btemp+2,w,c
   863  006AC4  E101               	bnz	u415
   864  006AC6  5203               	movf	btemp+3,f,c
   865  006AC8                     u415:
   866  006AC8  E008               	bz	l80
   867  006ACA  0EC2               	movlw	194
   868  006ACC  0100               	movlb	__Lparam shr (0+8)
   869  006ACE  6FB7               	movwf	?_eeprom_write^(__Lparam& (0+65280)),b
   870  006AD0  6BB8               	clrf	(?_eeprom_write+1)^(__Lparam& (0+65280)),b
   871  006AD2  C2B5  F0B9         	movff	_DtKNF+7,?_eeprom_write+2
   872  006AD6  EC5C  F006         	call	_eeprom_write	;wreg free
   873  006ADA                     l80:
   874                           ;konfig.c: 292: if((DtKNF.mxco>MinMax[2].min)&&(
      +                          DtKNF.mxco<MinMax[2].max)||DtKNF.mxco==MinMax[2]
      +                          .min||DtKNF.mxco==MinMax[2].max)
   875  006ADA  C2B6  F002         	movff	_DtKNF+8,btemp+2
   876  006ADE  6A03               	clrf	btemp+3,c
   877  006AE0  EE01  F00E         	lfsr	0,_MinMax+14
   878  006AE4  CFEE F000          	movff	postinc0,btemp
   879  006AE8  CFED F001          	movff	postdec0,btemp+1
   880  006AEC  5003               	movf	btemp+3,w,c
   881  006AEE  5C01               	subwf	btemp+1,w,c
   882  006AF0  E102               	bnz	u425
   883  006AF2  5002               	movf	btemp+2,w,c
   884  006AF4  5C00               	subwf	btemp,w,c
   885  006AF6                     u425:
   886  006AF6  E20F               	bc	u441
   887  006AF8  EE01  F010         	lfsr	0,_MinMax+16
   888  006AFC  CFEE F000          	movff	postinc0,btemp
   889  006B00  CFED F001          	movff	postdec0,btemp+1
   890  006B04  C2B6  F002         	movff	_DtKNF+8,btemp+2
   891  006B08  6A03               	clrf	btemp+3,c
   892  006B0A  5001               	movf	btemp+1,w,c
   893  006B0C  5C03               	subwf	btemp+3,w,c
   894  006B0E  E102               	bnz	u435
   895  006B10  5000               	movf	btemp,w,c
   896  006B12  5C02               	subwf	btemp+2,w,c
   897  006B14                     u435:
   898  006B14  E316               	bnc	u470
   899  006B16                     u441:
   900  006B16  C2B6  F000         	movff	_DtKNF+8,btemp
   901  006B1A  6A01               	clrf	btemp+1,c
   902  006B1C  C10F  FFE8         	movff	_MinMax+15,wreg
   903  006B20  1801               	xorwf	btemp+1,w,c
   904  006B22  E103               	bnz	u455
   905  006B24  C10E  FFE8         	movff	_MinMax+14,wreg
   906  006B28  1800               	xorwf	btemp,w,c
   907  006B2A                     u455:
   908  006B2A  E00B               	bz	u470
   909  006B2C  C2B6  F000         	movff	_DtKNF+8,btemp
   910  006B30  6A01               	clrf	btemp+1,c
   911  006B32  C111  FFE8         	movff	_MinMax+17,wreg
   912  006B36  1801               	xorwf	btemp+1,w,c
   913  006B38  E103               	bnz	u475
   914  006B3A  C110  FFE8         	movff	_MinMax+16,wreg
   915  006B3E  1800               	xorwf	btemp,w,c
   916  006B40                     u475:
   917  006B40  E118               	bnz	l82
   918  006B42                     u470:
   919                           ;konfig.c: 293: if(DtKNF.mxco!=eeprom_read(0x00C
      +                          3)) eeprom_write(0x00C3,DtKNF.mxco);
   920  006B42  0EC3               	movlw	195
   921  006B44  0100               	movlb	__Lparam shr (0+8)
   922  006B46  6FB7               	movwf	?_eeprom_read^(__Lparam& (0+65280)),b
   923  006B48  6BB8               	clrf	(?_eeprom_read+1)^(__Lparam& (0+65280)),b
   924  006B4A  EC2F  F007         	call	_eeprom_read	;wreg free
   925  006B4E  6E00               	movwf	btemp,c
   926  006B50  C000  F002         	movff	btemp,btemp+2
   927  006B54  6A03               	clrf	btemp+3,c
   928  006B56  C2B6  FFE8         	movff	_DtKNF+8,wreg
   929  006B5A  1802               	xorwf	btemp+2,w,c
   930  006B5C  E101               	bnz	u495
   931  006B5E  5203               	movf	btemp+3,f,c
   932  006B60                     u495:
   933  006B60  E008               	bz	l82
   934  006B62  0EC3               	movlw	195
   935  006B64  0100               	movlb	__Lparam shr (0+8)
   936  006B66  6FB7               	movwf	?_eeprom_write^(__Lparam& (0+65280)),b
   937  006B68  6BB8               	clrf	(?_eeprom_write+1)^(__Lparam& (0+65280)),b
   938  006B6A  C2B6  F0B9         	movff	_DtKNF+8,?_eeprom_write+2
   939  006B6E  EC5C  F006         	call	_eeprom_write	;wreg free
   940  006B72                     l82:
   941                           ;konfig.c: 295: if(DtKNF.kodkt<3)
   942  006B72  0E03               	movlw	3
   943  006B74  0102               	movlb	(_DtKNF+13) shr (0+8)
   944  006B76  61BB               	cpfslt	(_DtKNF+13)& (0+255),b
   945  006B78  D09C               	goto	l84
   946                           ;konfig.c: 296: {
   947  006B7A  C2C5  F002         	movff	_DtKNF+23,btemp+2
   948  006B7E  6A03               	clrf	btemp+3,c
   949  006B80  EE01  F014         	lfsr	0,_MinMax+20
   950  006B84  CFEE F000          	movff	postinc0,btemp
   951  006B88  CFED F001          	movff	postdec0,btemp+1
   952  006B8C  5003               	movf	btemp+3,w,c
   953  006B8E  5C01               	subwf	btemp+1,w,c
   954  006B90  E102               	bnz	u515
   955  006B92  5002               	movf	btemp+2,w,c
   956  006B94  5C00               	subwf	btemp,w,c
   957  006B96                     u515:
   958  006B96  E20F               	bc	u531
   959  006B98  EE01  F016         	lfsr	0,_MinMax+22
   960  006B9C  CFEE F000          	movff	postinc0,btemp
   961  006BA0  CFED F001          	movff	postdec0,btemp+1
   962  006BA4  C2C5  F002         	movff	_DtKNF+23,btemp+2
   963  006BA8  6A03               	clrf	btemp+3,c
   964  006BAA  5001               	movf	btemp+1,w,c
   965  006BAC  5C03               	subwf	btemp+3,w,c
   966  006BAE  E102               	bnz	u525
   967  006BB0  5000               	movf	btemp,w,c
   968  006BB2  5C02               	subwf	btemp+2,w,c
   969  006BB4                     u525:
   970  006BB4  E316               	bnc	u560
   971  006BB6                     u531:
   972  006BB6  C2C5  F000         	movff	_DtKNF+23,btemp
   973  006BBA  6A01               	clrf	btemp+1,c
   974  006BBC  C115  FFE8         	movff	_MinMax+21,wreg
   975  006BC0  1801               	xorwf	btemp+1,w,c
   976  006BC2  E103               	bnz	u545
   977  006BC4  C114  FFE8         	movff	_MinMax+20,wreg
   978  006BC8  1800               	xorwf	btemp,w,c
   979  006BCA                     u545:
   980  006BCA  E00B               	bz	u560
   981  006BCC  C2C5  F000         	movff	_DtKNF+23,btemp
   982  006BD0  6A01               	clrf	btemp+1,c
   983  006BD2  C117  FFE8         	movff	_MinMax+23,wreg
   984  006BD6  1801               	xorwf	btemp+1,w,c
   985  006BD8  E103               	bnz	u565
   986  006BDA  C116  FFE8         	movff	_MinMax+22,wreg
   987  006BDE  1800               	xorwf	btemp,w,c
   988  006BE0                     u565:
   989  006BE0  E11A               	bnz	l85
   990  006BE2                     u560:
   991                           ;konfig.c: 298: if(DtKNF.mmin!=eeprom_read(0x00C
      +                          E))
   992  006BE2  0ECE               	movlw	206
   993  006BE4  0100               	movlb	__Lparam shr (0+8)
   994  006BE6  6FB7               	movwf	?_eeprom_read^(__Lparam& (0+65280)),b
   995  006BE8  6BB8               	clrf	(?_eeprom_read+1)^(__Lparam& (0+65280)),b
   996  006BEA  EC2F  F007         	call	_eeprom_read	;wreg free
   997  006BEE  6E00               	movwf	btemp,c
   998  006BF0  C000  F002         	movff	btemp,btemp+2
   999  006BF4  6A03               	clrf	btemp+3,c
  1000  006BF6  C2C5  FFE8         	movff	_DtKNF+23,wreg
  1001  006BFA  1802               	xorwf	btemp+2,w,c
  1002  006BFC  E101               	bnz	u585
  1003  006BFE  5203               	movf	btemp+3,f,c
  1004  006C00                     u585:
  1005  006C00  E00A               	bz	l85
  1006                           ;konfig.c: 299: {
  1007  006C02  0ECE               	movlw	206
  1008  006C04  0100               	movlb	__Lparam shr (0+8)
  1009  006C06  6FB7               	movwf	?_eeprom_write^(__Lparam& (0+65280)),b
  1010  006C08  6BB8               	clrf	(?_eeprom_write+1)^(__Lparam& (0+65280)),b
  1011  006C0A  C2C5  F0B9         	movff	_DtKNF+23,?_eeprom_write+2
  1012  006C0E  EC5C  F006         	call	_eeprom_write	;wreg free
  1013                           ;konfig.c: 301: ModParam();
  1014  006C12  EC65  F000         	call	_ModParam	;wreg free
  1015  006C16                     l85:
  1016                           ;konfig.c: 302: }
  1017  006C16  C2C6  F002         	movff	_DtKNF+24,btemp+2
  1018  006C1A  6A03               	clrf	btemp+3,c
  1019  006C1C  EE01  F01A         	lfsr	0,_MinMax+26
  1020  006C20  CFEE F000          	movff	postinc0,btemp
  1021  006C24  CFED F001          	movff	postdec0,btemp+1
  1022  006C28  5003               	movf	btemp+3,w,c
  1023  006C2A  5C01               	subwf	btemp+1,w,c
  1024  006C2C  E102               	bnz	u595
  1025  006C2E  5002               	movf	btemp+2,w,c
  1026  006C30  5C00               	subwf	btemp,w,c
  1027  006C32                     u595:
  1028  006C32  E20F               	bc	u611
  1029  006C34  EE01  F01C         	lfsr	0,_MinMax+28
  1030  006C38  CFEE F000          	movff	postinc0,btemp
  1031  006C3C  CFED F001          	movff	postdec0,btemp+1
  1032  006C40  C2C6  F002         	movff	_DtKNF+24,btemp+2
  1033  006C44  6A03               	clrf	btemp+3,c
  1034  006C46  5001               	movf	btemp+1,w,c
  1035  006C48  5C03               	subwf	btemp+3,w,c
  1036  006C4A  E102               	bnz	u605
  1037  006C4C  5000               	movf	btemp,w,c
  1038  006C4E  5C02               	subwf	btemp+2,w,c
  1039  006C50                     u605:
  1040  006C50  E316               	bnc	u640
  1041  006C52                     u611:
  1042  006C52  C2C6  F000         	movff	_DtKNF+24,btemp
  1043  006C56  6A01               	clrf	btemp+1,c
  1044  006C58  C11B  FFE8         	movff	_MinMax+27,wreg
  1045  006C5C  1801               	xorwf	btemp+1,w,c
  1046  006C5E  E103               	bnz	u625
  1047  006C60  C11A  FFE8         	movff	_MinMax+26,wreg
  1048  006C64  1800               	xorwf	btemp,w,c
  1049  006C66                     u625:
  1050  006C66  E00B               	bz	u640
  1051  006C68  C2C6  F000         	movff	_DtKNF+24,btemp
  1052  006C6C  6A01               	clrf	btemp+1,c
  1053  006C6E  C11D  FFE8         	movff	_MinMax+29,wreg
  1054  006C72  1801               	xorwf	btemp+1,w,c
  1055  006C74  E103               	bnz	u645
  1056  006C76  C11C  FFE8         	movff	_MinMax+28,wreg
  1057  006C7A  1800               	xorwf	btemp,w,c
  1058  006C7C                     u645:
  1059  006C7C  E11A               	bnz	l84
  1060  006C7E                     u640:
  1061                           ;konfig.c: 304: if(DtKNF.mmax!=eeprom_read(0x00C
      +                          F))
  1062  006C7E  0ECF               	movlw	207
  1063  006C80  0100               	movlb	__Lparam shr (0+8)
  1064  006C82  6FB7               	movwf	?_eeprom_read^(__Lparam& (0+65280)),b
  1065  006C84  6BB8               	clrf	(?_eeprom_read+1)^(__Lparam& (0+65280)),b
  1066  006C86  EC2F  F007         	call	_eeprom_read	;wreg free
  1067  006C8A  6E00               	movwf	btemp,c
  1068  006C8C  C000  F002         	movff	btemp,btemp+2
  1069  006C90  6A03               	clrf	btemp+3,c
  1070  006C92  C2C6  FFE8         	movff	_DtKNF+24,wreg
  1071  006C96  1802               	xorwf	btemp+2,w,c
  1072  006C98  E101               	bnz	u665
  1073  006C9A  5203               	movf	btemp+3,f,c
  1074  006C9C                     u665:
  1075  006C9C  E00A               	bz	l84
  1076                           ;konfig.c: 305: {
  1077  006C9E  0ECF               	movlw	207
  1078  006CA0  0100               	movlb	__Lparam shr (0+8)
  1079  006CA2  6FB7               	movwf	?_eeprom_write^(__Lparam& (0+65280)),b
  1080  006CA4  6BB8               	clrf	(?_eeprom_write+1)^(__Lparam& (0+65280)),b
  1081  006CA6  C2C6  F0B9         	movff	_DtKNF+24,?_eeprom_write+2
  1082  006CAA  EC5C  F006         	call	_eeprom_write	;wreg free
  1083                           ;konfig.c: 307: ModParam();
  1084  006CAE  EC65  F000         	call	_ModParam	;wreg free
  1085  006CB2                     l84:
  1086                           ;konfig.c: 308: }
  1087  006CB2  C2BB  F002         	movff	_DtKNF+13,btemp+2
  1088  006CB6  6A03               	clrf	btemp+3,c
  1089  006CB8  EE01  F020         	lfsr	0,_MinMax+32
  1090  006CBC  CFEE F000          	movff	postinc0,btemp
  1091  006CC0  CFED F001          	movff	postdec0,btemp+1
  1092  006CC4  5003               	movf	btemp+3,w,c
  1093  006CC6  5C01               	subwf	btemp+1,w,c
  1094  006CC8  E102               	bnz	u675
  1095  006CCA  5002               	movf	btemp+2,w,c
  1096  006CCC  5C00               	subwf	btemp,w,c
  1097  006CCE                     u675:
  1098  006CCE  E20F               	bc	u691
  1099  006CD0  EE01  F022         	lfsr	0,_MinMax+34
  1100  006CD4  CFEE F000          	movff	postinc0,btemp
  1101  006CD8  CFED F001          	movff	postdec0,btemp+1
  1102  006CDC  C2BB  F002         	movff	_DtKNF+13,btemp+2
  1103  006CE0  6A03               	clrf	btemp+3,c
  1104  006CE2  5001               	movf	btemp+1,w,c
  1105  006CE4  5C03               	subwf	btemp+3,w,c
  1106  006CE6  E102               	bnz	u685
  1107  006CE8  5000               	movf	btemp,w,c
  1108  006CEA  5C02               	subwf	btemp+2,w,c
  1109  006CEC                     u685:
  1110  006CEC  E316               	bnc	u720
  1111  006CEE                     u691:
  1112  006CEE  C2BB  F000         	movff	_DtKNF+13,btemp
  1113  006CF2  6A01               	clrf	btemp+1,c
  1114  006CF4  C121  FFE8         	movff	_MinMax+33,wreg
  1115  006CF8  1801               	xorwf	btemp+1,w,c
  1116  006CFA  E103               	bnz	u705
  1117  006CFC  C120  FFE8         	movff	_MinMax+32,wreg
  1118  006D00  1800               	xorwf	btemp,w,c
  1119  006D02                     u705:
  1120  006D02  E00B               	bz	u720
  1121  006D04  C2BB  F000         	movff	_DtKNF+13,btemp
  1122  006D08  6A01               	clrf	btemp+1,c
  1123  006D0A  C123  FFE8         	movff	_MinMax+35,wreg
  1124  006D0E  1801               	xorwf	btemp+1,w,c
  1125  006D10  E103               	bnz	u725
  1126  006D12  C122  FFE8         	movff	_MinMax+34,wreg
  1127  006D16  1800               	xorwf	btemp,w,c
  1128  006D18                     u725:
  1129  006D18  E11C               	bnz	l89
  1130  006D1A                     u720:
  1131                           ;konfig.c: 312: if(DtKNF.kodkt!=eeprom_read(0x00
      +                          C5))
  1132  006D1A  0EC5               	movlw	197
  1133  006D1C  0100               	movlb	__Lparam shr (0+8)
  1134  006D1E  6FB7               	movwf	?_eeprom_read^(__Lparam& (0+65280)),b
  1135  006D20  6BB8               	clrf	(?_eeprom_read+1)^(__Lparam& (0+65280)),b
  1136  006D22  EC2F  F007         	call	_eeprom_read	;wreg free
  1137  006D26  6E00               	movwf	btemp,c
  1138  006D28  C000  F002         	movff	btemp,btemp+2
  1139  006D2C  6A03               	clrf	btemp+3,c
  1140  006D2E  C2BB  FFE8         	movff	_DtKNF+13,wreg
  1141  006D32  1802               	xorwf	btemp+2,w,c
  1142  006D34  E101               	bnz	u745
  1143  006D36  5203               	movf	btemp+3,f,c
  1144  006D38                     u745:
  1145  006D38  E00C               	bz	l89
  1146                           ;konfig.c: 313: {
  1147  006D3A  ECD0  F040         	call	_SetTpKtParam	;wreg free
  1148                           ;konfig.c: 315: ModParam();
  1149  006D3E  EC65  F000         	call	_ModParam	;wreg free
  1150                           ;konfig.c: 316: eeprom_write(0x00C5,DtKNF.kodkt)
      +                          ;
  1151  006D42  0EC5               	movlw	197
  1152  006D44  0100               	movlb	__Lparam shr (0+8)
  1153  006D46  6FB7               	movwf	?_eeprom_write^(__Lparam& (0+65280)),b
  1154  006D48  6BB8               	clrf	(?_eeprom_write+1)^(__Lparam& (0+65280)),b
  1155  006D4A  C2BB  F0B9         	movff	_DtKNF+13,?_eeprom_write+2
  1156  006D4E  EC5C  F006         	call	_eeprom_write	;wreg free
  1157  006D52                     l89:
  1158                           ;konfig.c: 317: }
  1159  006D52  C2C3  F002         	movff	_DtKNF+21,btemp+2
  1160  006D56  6A03               	clrf	btemp+3,c
  1161  006D58  EE01  F026         	lfsr	0,_MinMax+38
  1162  006D5C  CFEE F000          	movff	postinc0,btemp
  1163  006D60  CFED F001          	movff	postdec0,btemp+1
  1164  006D64  5003               	movf	btemp+3,w,c
  1165  006D66  5C01               	subwf	btemp+1,w,c
  1166  006D68  E102               	bnz	u755
  1167  006D6A  5002               	movf	btemp+2,w,c
  1168  006D6C  5C00               	subwf	btemp,w,c
  1169  006D6E                     u755:
  1170  006D6E  E20F               	bc	u771
  1171  006D70  EE01  F028         	lfsr	0,_MinMax+40
  1172  006D74  CFEE F000          	movff	postinc0,btemp
  1173  006D78  CFED F001          	movff	postdec0,btemp+1
  1174  006D7C  C2C3  F002         	movff	_DtKNF+21,btemp+2
  1175  006D80  6A03               	clrf	btemp+3,c
  1176  006D82  5001               	movf	btemp+1,w,c
  1177  006D84  5C03               	subwf	btemp+3,w,c
  1178  006D86  E102               	bnz	u765
  1179  006D88  5000               	movf	btemp,w,c
  1180  006D8A  5C02               	subwf	btemp+2,w,c
  1181  006D8C                     u765:
  1182  006D8C  E316               	bnc	u800
  1183  006D8E                     u771:
  1184  006D8E  C2C3  F000         	movff	_DtKNF+21,btemp
  1185  006D92  6A01               	clrf	btemp+1,c
  1186  006D94  C127  FFE8         	movff	_MinMax+39,wreg
  1187  006D98  1801               	xorwf	btemp+1,w,c
  1188  006D9A  E103               	bnz	u785
  1189  006D9C  C126  FFE8         	movff	_MinMax+38,wreg
  1190  006DA0  1800               	xorwf	btemp,w,c
  1191  006DA2                     u785:
  1192  006DA2  E00B               	bz	u800
  1193  006DA4  C2C3  F000         	movff	_DtKNF+21,btemp
  1194  006DA8  6A01               	clrf	btemp+1,c
  1195  006DAA  C129  FFE8         	movff	_MinMax+41,wreg
  1196  006DAE  1801               	xorwf	btemp+1,w,c
  1197  006DB0  E103               	bnz	u805
  1198  006DB2  C128  FFE8         	movff	_MinMax+40,wreg
  1199  006DB6  1800               	xorwf	btemp,w,c
  1200  006DB8                     u805:
  1201  006DB8  E118               	bnz	l91
  1202  006DBA                     u800:
  1203                           ;konfig.c: 320: if(DtKNF.robg!=eeprom_read(0x00C
      +                          8)) eeprom_write(0x00C8,DtKNF.robg);
  1204  006DBA  0EC8               	movlw	200
  1205  006DBC  0100               	movlb	__Lparam shr (0+8)
  1206  006DBE  6FB7               	movwf	?_eeprom_read^(__Lparam& (0+65280)),b
  1207  006DC0  6BB8               	clrf	(?_eeprom_read+1)^(__Lparam& (0+65280)),b
  1208  006DC2  EC2F  F007         	call	_eeprom_read	;wreg free
  1209  006DC6  6E00               	movwf	btemp,c
  1210  006DC8  C000  F002         	movff	btemp,btemp+2
  1211  006DCC  6A03               	clrf	btemp+3,c
  1212  006DCE  C2C3  FFE8         	movff	_DtKNF+21,wreg
  1213  006DD2  1802               	xorwf	btemp+2,w,c
  1214  006DD4  E101               	bnz	u825
  1215  006DD6  5203               	movf	btemp+3,f,c
  1216  006DD8                     u825:
  1217  006DD8  E008               	bz	l91
  1218  006DDA  0EC8               	movlw	200
  1219  006DDC  0100               	movlb	__Lparam shr (0+8)
  1220  006DDE  6FB7               	movwf	?_eeprom_write^(__Lparam& (0+65280)),b
  1221  006DE0  6BB8               	clrf	(?_eeprom_write+1)^(__Lparam& (0+65280)),b
  1222  006DE2  C2C3  F0B9         	movff	_DtKNF+21,?_eeprom_write+2
  1223  006DE6  EC5C  F006         	call	_eeprom_write	;wreg free
  1224  006DEA                     l91:
  1225                           ;konfig.c: 322: if((DtKNF.opdg>MinMax[7].min)&&(
      +                          DtKNF.opdg<MinMax[7].max)||DtKNF.opdg==MinMax[7]
      +                          .min||DtKNF.opdg==MinMax[7].max)
  1226  006DEA  C2C8  F002         	movff	_DtKNF+26,btemp+2
  1227  006DEE  6A03               	clrf	btemp+3,c
  1228  006DF0  EE01  F02C         	lfsr	0,_MinMax+44
  1229  006DF4  CFEE F000          	movff	postinc0,btemp
  1230  006DF8  CFED F001          	movff	postdec0,btemp+1
  1231  006DFC  5003               	movf	btemp+3,w,c
  1232  006DFE  5C01               	subwf	btemp+1,w,c
  1233  006E00  E102               	bnz	u835
  1234  006E02  5002               	movf	btemp+2,w,c
  1235  006E04  5C00               	subwf	btemp,w,c
  1236  006E06                     u835:
  1237  006E06  E20F               	bc	u851
  1238  006E08  EE01  F02E         	lfsr	0,_MinMax+46
  1239  006E0C  CFEE F000          	movff	postinc0,btemp
  1240  006E10  CFED F001          	movff	postdec0,btemp+1
  1241  006E14  C2C8  F002         	movff	_DtKNF+26,btemp+2
  1242  006E18  6A03               	clrf	btemp+3,c
  1243  006E1A  5001               	movf	btemp+1,w,c
  1244  006E1C  5C03               	subwf	btemp+3,w,c
  1245  006E1E  E102               	bnz	u845
  1246  006E20  5000               	movf	btemp,w,c
  1247  006E22  5C02               	subwf	btemp+2,w,c
  1248  006E24                     u845:
  1249  006E24  E316               	bnc	u880
  1250  006E26                     u851:
  1251  006E26  C2C8  F000         	movff	_DtKNF+26,btemp
  1252  006E2A  6A01               	clrf	btemp+1,c
  1253  006E2C  C12D  FFE8         	movff	_MinMax+45,wreg
  1254  006E30  1801               	xorwf	btemp+1,w,c
  1255  006E32  E103               	bnz	u865
  1256  006E34  C12C  FFE8         	movff	_MinMax+44,wreg
  1257  006E38  1800               	xorwf	btemp,w,c
  1258  006E3A                     u865:
  1259  006E3A  E00B               	bz	u880
  1260  006E3C  C2C8  F000         	movff	_DtKNF+26,btemp
  1261  006E40  6A01               	clrf	btemp+1,c
  1262  006E42  C12F  FFE8         	movff	_MinMax+47,wreg
  1263  006E46  1801               	xorwf	btemp+1,w,c
  1264  006E48  E103               	bnz	u885
  1265  006E4A  C12E  FFE8         	movff	_MinMax+46,wreg
  1266  006E4E  1800               	xorwf	btemp,w,c
  1267  006E50                     u885:
  1268  006E50  E118               	bnz	l93
  1269  006E52                     u880:
  1270                           ;konfig.c: 323: if(DtKNF.opdg!=eeprom_read(0x00C
      +                          4)) eeprom_write(0x00C4,DtKNF.opdg);
  1271  006E52  0EC4               	movlw	196
  1272  006E54  0100               	movlb	__Lparam shr (0+8)
  1273  006E56  6FB7               	movwf	?_eeprom_read^(__Lparam& (0+65280)),b
  1274  006E58  6BB8               	clrf	(?_eeprom_read+1)^(__Lparam& (0+65280)),b
  1275  006E5A  EC2F  F007         	call	_eeprom_read	;wreg free
  1276  006E5E  6E00               	movwf	btemp,c
  1277  006E60  C000  F002         	movff	btemp,btemp+2
  1278  006E64  6A03               	clrf	btemp+3,c
  1279  006E66  C2C8  FFE8         	movff	_DtKNF+26,wreg
  1280  006E6A  1802               	xorwf	btemp+2,w,c
  1281  006E6C  E101               	bnz	u905
  1282  006E6E  5203               	movf	btemp+3,f,c
  1283  006E70                     u905:
  1284  006E70  E008               	bz	l93
  1285  006E72  0EC4               	movlw	196
  1286  006E74  0100               	movlb	__Lparam shr (0+8)
  1287  006E76  6FB7               	movwf	?_eeprom_write^(__Lparam& (0+65280)),b
  1288  006E78  6BB8               	clrf	(?_eeprom_write+1)^(__Lparam& (0+65280)),b
  1289  006E7A  C2C8  F0B9         	movff	_DtKNF+26,?_eeprom_write+2
  1290  006E7E  EC5C  F006         	call	_eeprom_write	;wreg free
  1291  006E82                     l93:
  1292                           ;konfig.c: 325: if((DtKNF.tpcs>MinMax[8].min)&&(
      +                          DtKNF.tpcs<MinMax[8].max)||DtKNF.tpcs==MinMax[8]
      +                          .min||DtKNF.tpcs==MinMax[8].max)
  1293  006E82  C2C9  F002         	movff	_DtKNF+27,btemp+2
  1294  006E86  6A03               	clrf	btemp+3,c
  1295  006E88  EE01  F032         	lfsr	0,_MinMax+50
  1296  006E8C  CFEE F000          	movff	postinc0,btemp
  1297  006E90  CFED F001          	movff	postdec0,btemp+1
  1298  006E94  5003               	movf	btemp+3,w,c
  1299  006E96  5C01               	subwf	btemp+1,w,c
  1300  006E98  E102               	bnz	u915
  1301  006E9A  5002               	movf	btemp+2,w,c
  1302  006E9C  5C00               	subwf	btemp,w,c
  1303  006E9E                     u915:
  1304  006E9E  E20F               	bc	u931
  1305  006EA0  EE01  F034         	lfsr	0,_MinMax+52
  1306  006EA4  CFEE F000          	movff	postinc0,btemp
  1307  006EA8  CFED F001          	movff	postdec0,btemp+1
  1308  006EAC  C2C9  F002         	movff	_DtKNF+27,btemp+2
  1309  006EB0  6A03               	clrf	btemp+3,c
  1310  006EB2  5001               	movf	btemp+1,w,c
  1311  006EB4  5C03               	subwf	btemp+3,w,c
  1312  006EB6  E102               	bnz	u925
  1313  006EB8  5000               	movf	btemp,w,c
  1314  006EBA  5C02               	subwf	btemp+2,w,c
  1315  006EBC                     u925:
  1316  006EBC  E316               	bnc	u960
  1317  006EBE                     u931:
  1318  006EBE  C2C9  F000         	movff	_DtKNF+27,btemp
  1319  006EC2  6A01               	clrf	btemp+1,c
  1320  006EC4  C133  FFE8         	movff	_MinMax+51,wreg
  1321  006EC8  1801               	xorwf	btemp+1,w,c
  1322  006ECA  E103               	bnz	u945
  1323  006ECC  C132  FFE8         	movff	_MinMax+50,wreg
  1324  006ED0  1800               	xorwf	btemp,w,c
  1325  006ED2                     u945:
  1326  006ED2  E00B               	bz	u960
  1327  006ED4  C2C9  F000         	movff	_DtKNF+27,btemp
  1328  006ED8  6A01               	clrf	btemp+1,c
  1329  006EDA  C135  FFE8         	movff	_MinMax+53,wreg
  1330  006EDE  1801               	xorwf	btemp+1,w,c
  1331  006EE0  E103               	bnz	u965
  1332  006EE2  C134  FFE8         	movff	_MinMax+52,wreg
  1333  006EE6  1800               	xorwf	btemp,w,c
  1334  006EE8                     u965:
  1335  006EE8  E118               	bnz	l95
  1336  006EEA                     u960:
  1337                           ;konfig.c: 326: if(DtKNF.tpcs!=eeprom_read(0x00C
      +                          D)) eeprom_write(0x00CD,DtKNF.tpcs);
  1338  006EEA  0ECD               	movlw	205
  1339  006EEC  0100               	movlb	__Lparam shr (0+8)
  1340  006EEE  6FB7               	movwf	?_eeprom_read^(__Lparam& (0+65280)),b
  1341  006EF0  6BB8               	clrf	(?_eeprom_read+1)^(__Lparam& (0+65280)),b
  1342  006EF2  EC2F  F007         	call	_eeprom_read	;wreg free
  1343  006EF6  6E00               	movwf	btemp,c
  1344  006EF8  C000  F002         	movff	btemp,btemp+2
  1345  006EFC  6A03               	clrf	btemp+3,c
  1346  006EFE  C2C9  FFE8         	movff	_DtKNF+27,wreg
  1347  006F02  1802               	xorwf	btemp+2,w,c
  1348  006F04  E101               	bnz	u985
  1349  006F06  5203               	movf	btemp+3,f,c
  1350  006F08                     u985:
  1351  006F08  E008               	bz	l95
  1352  006F0A  0ECD               	movlw	205
  1353  006F0C  0100               	movlb	__Lparam shr (0+8)
  1354  006F0E  6FB7               	movwf	?_eeprom_write^(__Lparam& (0+65280)),b
  1355  006F10  6BB8               	clrf	(?_eeprom_write+1)^(__Lparam& (0+65280)),b
  1356  006F12  C2C9  F0B9         	movff	_DtKNF+27,?_eeprom_write+2
  1357  006F16  EC5C  F006         	call	_eeprom_write	;wreg free
  1358  006F1A                     l95:
  1359                           ;konfig.c: 328: if((DtKNF.aleg>MinMax[9].min)&&(
      +                          DtKNF.aleg<MinMax[9].max)||DtKNF.aleg==MinMax[9]
      +                          .min||DtKNF.aleg==MinMax[9].max)
  1360  006F1A  C2C7  F002         	movff	_DtKNF+25,btemp+2
  1361  006F1E  6A03               	clrf	btemp+3,c
  1362  006F20  EE01  F038         	lfsr	0,_MinMax+56
  1363  006F24  CFEE F000          	movff	postinc0,btemp
  1364  006F28  CFED F001          	movff	postdec0,btemp+1
  1365  006F2C  5003               	movf	btemp+3,w,c
  1366  006F2E  5C01               	subwf	btemp+1,w,c
  1367  006F30  E102               	bnz	u995
  1368  006F32  5002               	movf	btemp+2,w,c
  1369  006F34  5C00               	subwf	btemp,w,c
  1370  006F36                     u995:
  1371  006F36  E20F               	bc	u1011
  1372  006F38  EE01  F03A         	lfsr	0,_MinMax+58
  1373  006F3C  CFEE F000          	movff	postinc0,btemp
  1374  006F40  CFED F001          	movff	postdec0,btemp+1
  1375  006F44  C2C7  F002         	movff	_DtKNF+25,btemp+2
  1376  006F48  6A03               	clrf	btemp+3,c
  1377  006F4A  5001               	movf	btemp+1,w,c
  1378  006F4C  5C03               	subwf	btemp+3,w,c
  1379  006F4E  E102               	bnz	u1005
  1380  006F50  5000               	movf	btemp,w,c
  1381  006F52  5C02               	subwf	btemp+2,w,c
  1382  006F54                     u1005:
  1383  006F54  E316               	bnc	u1040
  1384  006F56                     u1011:
  1385  006F56  C2C7  F000         	movff	_DtKNF+25,btemp
  1386  006F5A  6A01               	clrf	btemp+1,c
  1387  006F5C  C139  FFE8         	movff	_MinMax+57,wreg
  1388  006F60  1801               	xorwf	btemp+1,w,c
  1389  006F62  E103               	bnz	u1025
  1390  006F64  C138  FFE8         	movff	_MinMax+56,wreg
  1391  006F68  1800               	xorwf	btemp,w,c
  1392  006F6A                     u1025:
  1393  006F6A  E00B               	bz	u1040
  1394  006F6C  C2C7  F000         	movff	_DtKNF+25,btemp
  1395  006F70  6A01               	clrf	btemp+1,c
  1396  006F72  C13B  FFE8         	movff	_MinMax+59,wreg
  1397  006F76  1801               	xorwf	btemp+1,w,c
  1398  006F78  E103               	bnz	u1045
  1399  006F7A  C13A  FFE8         	movff	_MinMax+58,wreg
  1400  006F7E  1800               	xorwf	btemp,w,c
  1401  006F80                     u1045:
  1402  006F80  E122               	bnz	l97
  1403  006F82                     u1040:
  1404                           ;konfig.c: 329: if(DtKNF.aleg!=eeprom_read(0x00C
      +                          6))
  1405  006F82  0EC6               	movlw	198
  1406  006F84  0100               	movlb	__Lparam shr (0+8)
  1407  006F86  6FB7               	movwf	?_eeprom_read^(__Lparam& (0+65280)),b
  1408  006F88  6BB8               	clrf	(?_eeprom_read+1)^(__Lparam& (0+65280)),b
  1409  006F8A  EC2F  F007         	call	_eeprom_read	;wreg free
  1410  006F8E  6E00               	movwf	btemp,c
  1411  006F90  C000  F002         	movff	btemp,btemp+2
  1412  006F94  6A03               	clrf	btemp+3,c
  1413  006F96  C2C7  FFE8         	movff	_DtKNF+25,wreg
  1414  006F9A  1802               	xorwf	btemp+2,w,c
  1415  006F9C  E101               	bnz	u1065
  1416  006F9E  5203               	movf	btemp+3,f,c
  1417  006FA0                     u1065:
  1418  006FA0  E012               	bz	l97
  1419                           ;konfig.c: 330: {
  1420  006FA2  0E01               	movlw	1
  1421  006FA4  ECA5  F07E         	call	_StartRTG
  1422                           ;konfig.c: 332: eeprom_write(0x00C7,0);
  1423  006FA8  0EC7               	movlw	199
  1424  006FAA  0100               	movlb	__Lparam shr (0+8)
  1425  006FAC  6FB7               	movwf	?_eeprom_write^(__Lparam& (0+65280)),b
  1426  006FAE  6BB8               	clrf	(?_eeprom_write+1)^(__Lparam& (0+65280)),b
  1427  006FB0  6BB9               	clrf	(?_eeprom_write+2)^(__Lparam& (0+65280)),b
  1428  006FB2  EC5C  F006         	call	_eeprom_write	;wreg free
  1429                           ;konfig.c: 333: eeprom_write(0x00C6,DtKNF.aleg);
  1430  006FB6  0EC6               	movlw	198
  1431  006FB8  0100               	movlb	__Lparam shr (0+8)
  1432  006FBA  6FB7               	movwf	?_eeprom_write^(__Lparam& (0+65280)),b
  1433  006FBC  6BB8               	clrf	(?_eeprom_write+1)^(__Lparam& (0+65280)),b
  1434  006FBE  C2C7  F0B9         	movff	_DtKNF+25,?_eeprom_write+2
  1435  006FC2  EC5C  F006         	call	_eeprom_write	;wreg free
  1436  006FC6                     l97:
  1437                           ;konfig.c: 334: }
  1438  006FC6  C2C4  F002         	movff	_DtKNF+22,btemp+2
  1439  006FCA  6A03               	clrf	btemp+3,c
  1440  006FCC  EE01  F03E         	lfsr	0,_MinMax+62
  1441  006FD0  CFEE F000          	movff	postinc0,btemp
  1442  006FD4  CFED F001          	movff	postdec0,btemp+1
  1443  006FD8  5003               	movf	btemp+3,w,c
  1444  006FDA  5C01               	subwf	btemp+1,w,c
  1445  006FDC  E102               	bnz	u1075
  1446  006FDE  5002               	movf	btemp+2,w,c
  1447  006FE0  5C00               	subwf	btemp,w,c
  1448  006FE2                     u1075:
  1449  006FE2  E20F               	bc	u1091
  1450  006FE4  EE01  F040         	lfsr	0,_MinMax+64
  1451  006FE8  CFEE F000          	movff	postinc0,btemp
  1452  006FEC  CFED F001          	movff	postdec0,btemp+1
  1453  006FF0  C2C4  F002         	movff	_DtKNF+22,btemp+2
  1454  006FF4  6A03               	clrf	btemp+3,c
  1455  006FF6  5001               	movf	btemp+1,w,c
  1456  006FF8  5C03               	subwf	btemp+3,w,c
  1457  006FFA  E102               	bnz	u1085
  1458  006FFC  5000               	movf	btemp,w,c
  1459  006FFE  5C02               	subwf	btemp+2,w,c
  1460  007000                     u1085:
  1461  007000  E316               	bnc	u1120
  1462  007002                     u1091:
  1463  007002  C2C4  F000         	movff	_DtKNF+22,btemp
  1464  007006  6A01               	clrf	btemp+1,c
  1465  007008  C13F  FFE8         	movff	_MinMax+63,wreg
  1466  00700C  1801               	xorwf	btemp+1,w,c
  1467  00700E  E103               	bnz	u1105
  1468  007010  C13E  FFE8         	movff	_MinMax+62,wreg
  1469  007014  1800               	xorwf	btemp,w,c
  1470  007016                     u1105:
  1471  007016  E00B               	bz	u1120
  1472  007018  C2C4  F000         	movff	_DtKNF+22,btemp
  1473  00701C  6A01               	clrf	btemp+1,c
  1474  00701E  C141  FFE8         	movff	_MinMax+65,wreg
  1475  007022  1801               	xorwf	btemp+1,w,c
  1476  007024  E103               	bnz	u1125
  1477  007026  C140  FFE8         	movff	_MinMax+64,wreg
  1478  00702A  1800               	xorwf	btemp,w,c
  1479  00702C                     u1125:
  1480  00702C  E118               	bnz	l99
  1481  00702E                     u1120:
  1482                           ;konfig.c: 337: if(DtKNF.nokr!=eeprom_read(0x00C
      +                          C)) eeprom_write(0x00CC,DtKNF.nokr);
  1483  00702E  0ECC               	movlw	204
  1484  007030  0100               	movlb	__Lparam shr (0+8)
  1485  007032  6FB7               	movwf	?_eeprom_read^(__Lparam& (0+65280)),b
  1486  007034  6BB8               	clrf	(?_eeprom_read+1)^(__Lparam& (0+65280)),b
  1487  007036  EC2F  F007         	call	_eeprom_read	;wreg free
  1488  00703A  6E00               	movwf	btemp,c
  1489  00703C  C000  F002         	movff	btemp,btemp+2
  1490  007040  6A03               	clrf	btemp+3,c
  1491  007042  C2C4  FFE8         	movff	_DtKNF+22,wreg
  1492  007046  1802               	xorwf	btemp+2,w,c
  1493  007048  E101               	bnz	u1145
  1494  00704A  5203               	movf	btemp+3,f,c
  1495  00704C                     u1145:
  1496  00704C  E008               	bz	l99
  1497  00704E  0ECC               	movlw	204
  1498  007050  0100               	movlb	__Lparam shr (0+8)
  1499  007052  6FB7               	movwf	?_eeprom_write^(__Lparam& (0+65280)),b
  1500  007054  6BB8               	clrf	(?_eeprom_write+1)^(__Lparam& (0+65280)),b
  1501  007056  C2C4  F0B9         	movff	_DtKNF+22,?_eeprom_write+2
  1502  00705A  EC5C  F006         	call	_eeprom_write	;wreg free
  1503  00705E                     l99:
  1504                           ;konfig.c: 339: if((DtKNF.rdpm>MinMax[11].min)&&
      +                          (DtKNF.rdpm<MinMax[11].max)||DtKNF.rdpm==MinMax[
      +                          11].min||DtKNF.rdpm==MinMax[11].max)
  1505  00705E  C2BE  F002         	movff	_DtKNF+16,btemp+2
  1506  007062  6A03               	clrf	btemp+3,c
  1507  007064  EE01  F044         	lfsr	0,_MinMax+68
  1508  007068  CFEE F000          	movff	postinc0,btemp
  1509  00706C  CFED F001          	movff	postdec0,btemp+1
  1510  007070  5003               	movf	btemp+3,w,c
  1511  007072  5C01               	subwf	btemp+1,w,c
  1512  007074  E102               	bnz	u1155
  1513  007076  5002               	movf	btemp+2,w,c
  1514  007078  5C00               	subwf	btemp,w,c
  1515  00707A                     u1155:
  1516  00707A  E20F               	bc	u1171
  1517  00707C  EE01  F046         	lfsr	0,_MinMax+70
  1518  007080  CFEE F000          	movff	postinc0,btemp
  1519  007084  CFED F001          	movff	postdec0,btemp+1
  1520  007088  C2BE  F002         	movff	_DtKNF+16,btemp+2
  1521  00708C  6A03               	clrf	btemp+3,c
  1522  00708E  5001               	movf	btemp+1,w,c
  1523  007090  5C03               	subwf	btemp+3,w,c
  1524  007092  E102               	bnz	u1165
  1525  007094  5000               	movf	btemp,w,c
  1526  007096  5C02               	subwf	btemp+2,w,c
  1527  007098                     u1165:
  1528  007098  E316               	bnc	u1200
  1529  00709A                     u1171:
  1530  00709A  C2BE  F000         	movff	_DtKNF+16,btemp
  1531  00709E  6A01               	clrf	btemp+1,c
  1532  0070A0  C145  FFE8         	movff	_MinMax+69,wreg
  1533  0070A4  1801               	xorwf	btemp+1,w,c
  1534  0070A6  E103               	bnz	u1185
  1535  0070A8  C144  FFE8         	movff	_MinMax+68,wreg
  1536  0070AC  1800               	xorwf	btemp,w,c
  1537  0070AE                     u1185:
  1538  0070AE  E00B               	bz	u1200
  1539  0070B0  C2BE  F000         	movff	_DtKNF+16,btemp
  1540  0070B4  6A01               	clrf	btemp+1,c
  1541  0070B6  C147  FFE8         	movff	_MinMax+71,wreg
  1542  0070BA  1801               	xorwf	btemp+1,w,c
  1543  0070BC  E103               	bnz	u1205
  1544  0070BE  C146  FFE8         	movff	_MinMax+70,wreg
  1545  0070C2  1800               	xorwf	btemp,w,c
  1546  0070C4                     u1205:
  1547  0070C4  E118               	bnz	l101
  1548  0070C6                     u1200:
  1549                           ;konfig.c: 340: if(DtKNF.rdpm!=eeprom_read(0x00D
      +                          0)) eeprom_write(0x00D0,DtKNF.rdpm);
  1550  0070C6  0ED0               	movlw	208
  1551  0070C8  0100               	movlb	__Lparam shr (0+8)
  1552  0070CA  6FB7               	movwf	?_eeprom_read^(__Lparam& (0+65280)),b
  1553  0070CC  6BB8               	clrf	(?_eeprom_read+1)^(__Lparam& (0+65280)),b
  1554  0070CE  EC2F  F007         	call	_eeprom_read	;wreg free
  1555  0070D2  6E00               	movwf	btemp,c
  1556  0070D4  C000  F002         	movff	btemp,btemp+2
  1557  0070D8  6A03               	clrf	btemp+3,c
  1558  0070DA  C2BE  FFE8         	movff	_DtKNF+16,wreg
  1559  0070DE  1802               	xorwf	btemp+2,w,c
  1560  0070E0  E101               	bnz	u1225
  1561  0070E2  5203               	movf	btemp+3,f,c
  1562  0070E4                     u1225:
  1563  0070E4  E008               	bz	l101
  1564  0070E6  0ED0               	movlw	208
  1565  0070E8  0100               	movlb	__Lparam shr (0+8)
  1566  0070EA  6FB7               	movwf	?_eeprom_write^(__Lparam& (0+65280)),b
  1567  0070EC  6BB8               	clrf	(?_eeprom_write+1)^(__Lparam& (0+65280)),b
  1568  0070EE  C2BE  F0B9         	movff	_DtKNF+16,?_eeprom_write+2
  1569  0070F2  EC5C  F006         	call	_eeprom_write	;wreg free
  1570  0070F6                     l101:
  1571                           ;konfig.c: 342: if((DtKNF.dtpm>MinMax[12].min)&&
      +                          (DtKNF.dtpm<MinMax[12].max)||DtKNF.dtpm==MinMax[
      +                          12].min||DtKNF.dtpm==MinMax[12].max)
  1572  0070F6  C2BF  F002         	movff	_DtKNF+17,btemp+2
  1573  0070FA  6A03               	clrf	btemp+3,c
  1574  0070FC  EE01  F04A         	lfsr	0,_MinMax+74
  1575  007100  CFEE F000          	movff	postinc0,btemp
  1576  007104  CFED F001          	movff	postdec0,btemp+1
  1577  007108  5003               	movf	btemp+3,w,c
  1578  00710A  5C01               	subwf	btemp+1,w,c
  1579  00710C  E102               	bnz	u1235
  1580  00710E  5002               	movf	btemp+2,w,c
  1581  007110  5C00               	subwf	btemp,w,c
  1582  007112                     u1235:
  1583  007112  E20F               	bc	u1251
  1584  007114  EE01  F04C         	lfsr	0,_MinMax+76
  1585  007118  CFEE F000          	movff	postinc0,btemp
  1586  00711C  CFED F001          	movff	postdec0,btemp+1
  1587  007120  C2BF  F002         	movff	_DtKNF+17,btemp+2
  1588  007124  6A03               	clrf	btemp+3,c
  1589  007126  5001               	movf	btemp+1,w,c
  1590  007128  5C03               	subwf	btemp+3,w,c
  1591  00712A  E102               	bnz	u1245
  1592  00712C  5000               	movf	btemp,w,c
  1593  00712E  5C02               	subwf	btemp+2,w,c
  1594  007130                     u1245:
  1595  007130  E316               	bnc	u1280
  1596  007132                     u1251:
  1597  007132  C2BF  F000         	movff	_DtKNF+17,btemp
  1598  007136  6A01               	clrf	btemp+1,c
  1599  007138  C14B  FFE8         	movff	_MinMax+75,wreg
  1600  00713C  1801               	xorwf	btemp+1,w,c
  1601  00713E  E103               	bnz	u1265
  1602  007140  C14A  FFE8         	movff	_MinMax+74,wreg
  1603  007144  1800               	xorwf	btemp,w,c
  1604  007146                     u1265:
  1605  007146  E00B               	bz	u1280
  1606  007148  C2BF  F000         	movff	_DtKNF+17,btemp
  1607  00714C  6A01               	clrf	btemp+1,c
  1608  00714E  C14D  FFE8         	movff	_MinMax+77,wreg
  1609  007152  1801               	xorwf	btemp+1,w,c
  1610  007154  E103               	bnz	u1285
  1611  007156  C14C  FFE8         	movff	_MinMax+76,wreg
  1612  00715A  1800               	xorwf	btemp,w,c
  1613  00715C                     u1285:
  1614  00715C  E118               	bnz	l103
  1615  00715E                     u1280:
  1616                           ;konfig.c: 343: if(DtKNF.dtpm!=eeprom_read(0x00D
      +                          1)) eeprom_write(0x00D1,DtKNF.dtpm);
  1617  00715E  0ED1               	movlw	209
  1618  007160  0100               	movlb	__Lparam shr (0+8)
  1619  007162  6FB7               	movwf	?_eeprom_read^(__Lparam& (0+65280)),b
  1620  007164  6BB8               	clrf	(?_eeprom_read+1)^(__Lparam& (0+65280)),b
  1621  007166  EC2F  F007         	call	_eeprom_read	;wreg free
  1622  00716A  6E00               	movwf	btemp,c
  1623  00716C  C000  F002         	movff	btemp,btemp+2
  1624  007170  6A03               	clrf	btemp+3,c
  1625  007172  C2BF  FFE8         	movff	_DtKNF+17,wreg
  1626  007176  1802               	xorwf	btemp+2,w,c
  1627  007178  E101               	bnz	u1305
  1628  00717A  5203               	movf	btemp+3,f,c
  1629  00717C                     u1305:
  1630  00717C  E008               	bz	l103
  1631  00717E  0ED1               	movlw	209
  1632  007180  0100               	movlb	__Lparam shr (0+8)
  1633  007182  6FB7               	movwf	?_eeprom_write^(__Lparam& (0+65280)),b
  1634  007184  6BB8               	clrf	(?_eeprom_write+1)^(__Lparam& (0+65280)),b
  1635  007186  C2BF  F0B9         	movff	_DtKNF+17,?_eeprom_write+2
  1636  00718A  EC5C  F006         	call	_eeprom_write	;wreg free
  1637  00718E                     l103:
  1638                           ;konfig.c: 345: if((DtKNF.mdpm>MinMax[13].min)&&
      +                          (DtKNF.mdpm<MinMax[13].max)||DtKNF.mdpm==MinMax[
      +                          13].min||DtKNF.mdpm==MinMax[13].max)
  1639  00718E  C2C0  F002         	movff	_DtKNF+18,btemp+2
  1640  007192  6A03               	clrf	btemp+3,c
  1641  007194  EE01  F050         	lfsr	0,_MinMax+80
  1642  007198  CFEE F000          	movff	postinc0,btemp
  1643  00719C  CFED F001          	movff	postdec0,btemp+1
  1644  0071A0  5003               	movf	btemp+3,w,c
  1645  0071A2  5C01               	subwf	btemp+1,w,c
  1646  0071A4  E102               	bnz	u1315
  1647  0071A6  5002               	movf	btemp+2,w,c
  1648  0071A8  5C00               	subwf	btemp,w,c
  1649  0071AA                     u1315:
  1650  0071AA  E20F               	bc	u1331
  1651  0071AC  EE01  F052         	lfsr	0,_MinMax+82
  1652  0071B0  CFEE F000          	movff	postinc0,btemp
  1653  0071B4  CFED F001          	movff	postdec0,btemp+1
  1654  0071B8  C2C0  F002         	movff	_DtKNF+18,btemp+2
  1655  0071BC  6A03               	clrf	btemp+3,c
  1656  0071BE  5001               	movf	btemp+1,w,c
  1657  0071C0  5C03               	subwf	btemp+3,w,c
  1658  0071C2  E102               	bnz	u1325
  1659  0071C4  5000               	movf	btemp,w,c
  1660  0071C6  5C02               	subwf	btemp+2,w,c
  1661  0071C8                     u1325:
  1662  0071C8  E316               	bnc	u1360
  1663  0071CA                     u1331:
  1664  0071CA  C2C0  F000         	movff	_DtKNF+18,btemp
  1665  0071CE  6A01               	clrf	btemp+1,c
  1666  0071D0  C151  FFE8         	movff	_MinMax+81,wreg
  1667  0071D4  1801               	xorwf	btemp+1,w,c
  1668  0071D6  E103               	bnz	u1345
  1669  0071D8  C150  FFE8         	movff	_MinMax+80,wreg
  1670  0071DC  1800               	xorwf	btemp,w,c
  1671  0071DE                     u1345:
  1672  0071DE  E00B               	bz	u1360
  1673  0071E0  C2C0  F000         	movff	_DtKNF+18,btemp
  1674  0071E4  6A01               	clrf	btemp+1,c
  1675  0071E6  C153  FFE8         	movff	_MinMax+83,wreg
  1676  0071EA  1801               	xorwf	btemp+1,w,c
  1677  0071EC  E103               	bnz	u1365
  1678  0071EE  C152  FFE8         	movff	_MinMax+82,wreg
  1679  0071F2  1800               	xorwf	btemp,w,c
  1680  0071F4                     u1365:
  1681  0071F4  E12E               	bnz	l105
  1682  0071F6                     u1360:
  1683                           ;konfig.c: 346: {
  1684  0071F6  C2C0  FFE8         	movff	_DtKNF+18,wreg
  1685  0071FA  0102               	movlb	(_DtKNF+28) shr (0+8)
  1686  0071FC  61CA               	cpfslt	(_DtKNF+28)& (0+255),b
  1687  0071FE  D011               	goto	l106
  1688                           ;konfig.c: 348: {
  1689  007200  EE01  F050         	lfsr	0,_MinMax+80
  1690  007204  CFEE F000          	movff	postinc0,btemp
  1691  007208  CFED F001          	movff	postdec0,btemp+1
  1692  00720C  C2CA  F002         	movff	_DtKNF+28,btemp+2
  1693  007210  6A03               	clrf	btemp+3,c
  1694  007212  5001               	movf	btemp+1,w,c
  1695  007214  5C03               	subwf	btemp+3,w,c
  1696  007216  E102               	bnz	u1395
  1697  007218  5000               	movf	btemp,w,c
  1698  00721A  5C02               	subwf	btemp+2,w,c
  1699  00721C                     u1395:
  1700  00721C  B0D8               	btfsc	status,0,c
  1701  00721E  C2CA  F2C0         	movff	_DtKNF+28,_DtKNF+18
  1702  007222                     l106:
  1703                           ;konfig.c: 350: }
  1704  007222  0ED2               	movlw	210
  1705  007224  0100               	movlb	__Lparam shr (0+8)
  1706  007226  6FB7               	movwf	?_eeprom_read^(__Lparam& (0+65280)),b
  1707  007228  6BB8               	clrf	(?_eeprom_read+1)^(__Lparam& (0+65280)),b
  1708  00722A  EC2F  F007         	call	_eeprom_read	;wreg free
  1709  00722E  6E00               	movwf	btemp,c
  1710  007230  C000  F002         	movff	btemp,btemp+2
  1711  007234  6A03               	clrf	btemp+3,c
  1712  007236  C2C0  FFE8         	movff	_DtKNF+18,wreg
  1713  00723A  1802               	xorwf	btemp+2,w,c
  1714  00723C  E101               	bnz	u1405
  1715  00723E  5203               	movf	btemp+3,f,c
  1716  007240                     u1405:
  1717  007240  E008               	bz	l105
  1718  007242  0ED2               	movlw	210
  1719  007244  0100               	movlb	__Lparam shr (0+8)
  1720  007246  6FB7               	movwf	?_eeprom_write^(__Lparam& (0+65280)),b
  1721  007248  6BB8               	clrf	(?_eeprom_write+1)^(__Lparam& (0+65280)),b
  1722  00724A  C2C0  F0B9         	movff	_DtKNF+18,?_eeprom_write+2
  1723  00724E  EC5C  F006         	call	_eeprom_write	;wreg free
  1724  007252                     l105:
  1725                           ;konfig.c: 352: }
  1726  007252  C2C1  F002         	movff	_DtKNF+19,btemp+2
  1727  007256  6A03               	clrf	btemp+3,c
  1728  007258  EE01  F056         	lfsr	0,_MinMax+86
  1729  00725C  CFEE F000          	movff	postinc0,btemp
  1730  007260  CFED F001          	movff	postdec0,btemp+1
  1731  007264  5003               	movf	btemp+3,w,c
  1732  007266  5C01               	subwf	btemp+1,w,c
  1733  007268  E102               	bnz	u1415
  1734  00726A  5002               	movf	btemp+2,w,c
  1735  00726C  5C00               	subwf	btemp,w,c
  1736  00726E                     u1415:
  1737  00726E  E20F               	bc	u1431
  1738  007270  EE01  F058         	lfsr	0,_MinMax+88
  1739  007274  CFEE F000          	movff	postinc0,btemp
  1740  007278  CFED F001          	movff	postdec0,btemp+1
  1741  00727C  C2C1  F002         	movff	_DtKNF+19,btemp+2
  1742  007280  6A03               	clrf	btemp+3,c
  1743  007282  5001               	movf	btemp+1,w,c
  1744  007284  5C03               	subwf	btemp+3,w,c
  1745  007286  E102               	bnz	u1425
  1746  007288  5000               	movf	btemp,w,c
  1747  00728A  5C02               	subwf	btemp+2,w,c
  1748  00728C                     u1425:
  1749  00728C  E316               	bnc	u1460
  1750  00728E                     u1431:
  1751  00728E  C2C1  F000         	movff	_DtKNF+19,btemp
  1752  007292  6A01               	clrf	btemp+1,c
  1753  007294  C157  FFE8         	movff	_MinMax+87,wreg
  1754  007298  1801               	xorwf	btemp+1,w,c
  1755  00729A  E103               	bnz	u1445
  1756  00729C  C156  FFE8         	movff	_MinMax+86,wreg
  1757  0072A0  1800               	xorwf	btemp,w,c
  1758  0072A2                     u1445:
  1759  0072A2  E00B               	bz	u1460
  1760  0072A4  C2C1  F000         	movff	_DtKNF+19,btemp
  1761  0072A8  6A01               	clrf	btemp+1,c
  1762  0072AA  C159  FFE8         	movff	_MinMax+89,wreg
  1763  0072AE  1801               	xorwf	btemp+1,w,c
  1764  0072B0  E103               	bnz	u1465
  1765  0072B2  C158  FFE8         	movff	_MinMax+88,wreg
  1766  0072B6  1800               	xorwf	btemp,w,c
  1767  0072B8                     u1465:
  1768  0072B8  E118               	bnz	l109
  1769  0072BA                     u1460:
  1770                           ;konfig.c: 355: if(DtKNF.teco!=eeprom_read(0x00D
      +                          3)) eeprom_write(0x00D3,DtKNF.teco);
  1771  0072BA  0ED3               	movlw	211
  1772  0072BC  0100               	movlb	__Lparam shr (0+8)
  1773  0072BE  6FB7               	movwf	?_eeprom_read^(__Lparam& (0+65280)),b
  1774  0072C0  6BB8               	clrf	(?_eeprom_read+1)^(__Lparam& (0+65280)),b
  1775  0072C2  EC2F  F007         	call	_eeprom_read	;wreg free
  1776  0072C6  6E00               	movwf	btemp,c
  1777  0072C8  C000  F002         	movff	btemp,btemp+2
  1778  0072CC  6A03               	clrf	btemp+3,c
  1779  0072CE  C2C1  FFE8         	movff	_DtKNF+19,wreg
  1780  0072D2  1802               	xorwf	btemp+2,w,c
  1781  0072D4  E101               	bnz	u1485
  1782  0072D6  5203               	movf	btemp+3,f,c
  1783  0072D8                     u1485:
  1784  0072D8  E008               	bz	l109
  1785  0072DA  0ED3               	movlw	211
  1786  0072DC  0100               	movlb	__Lparam shr (0+8)
  1787  0072DE  6FB7               	movwf	?_eeprom_write^(__Lparam& (0+65280)),b
  1788  0072E0  6BB8               	clrf	(?_eeprom_write+1)^(__Lparam& (0+65280)),b
  1789  0072E2  C2C1  F0B9         	movff	_DtKNF+19,?_eeprom_write+2
  1790  0072E6  EC5C  F006         	call	_eeprom_write	;wreg free
  1791  0072EA                     l109:
  1792                           ;konfig.c: 357: if((DtKNF.tmxco2>MinMax[15].min)
      +                          &&(DtKNF.tmxco2<MinMax[15].max)||DtKNF.tmxco2==M
      +                          inMax[15].min||DtKNF.tmxco2==MinMax[15].max)
  1793  0072EA  C2B9  F002         	movff	_DtKNF+11,btemp+2
  1794  0072EE  6A03               	clrf	btemp+3,c
  1795  0072F0  EE01  F05C         	lfsr	0,_MinMax+92
  1796  0072F4  CFEE F000          	movff	postinc0,btemp
  1797  0072F8  CFED F001          	movff	postdec0,btemp+1
  1798  0072FC  5003               	movf	btemp+3,w,c
  1799  0072FE  5C01               	subwf	btemp+1,w,c
  1800  007300  E102               	bnz	u1495
  1801  007302  5002               	movf	btemp+2,w,c
  1802  007304  5C00               	subwf	btemp,w,c
  1803  007306                     u1495:
  1804  007306  E20F               	bc	u1511
  1805  007308  EE01  F05E         	lfsr	0,_MinMax+94
  1806  00730C  CFEE F000          	movff	postinc0,btemp
  1807  007310  CFED F001          	movff	postdec0,btemp+1
  1808  007314  C2B9  F002         	movff	_DtKNF+11,btemp+2
  1809  007318  6A03               	clrf	btemp+3,c
  1810  00731A  5001               	movf	btemp+1,w,c
  1811  00731C  5C03               	subwf	btemp+3,w,c
  1812  00731E  E102               	bnz	u1505
  1813  007320  5000               	movf	btemp,w,c
  1814  007322  5C02               	subwf	btemp+2,w,c
  1815  007324                     u1505:
  1816  007324  E316               	bnc	u1540
  1817  007326                     u1511:
  1818  007326  C2B9  F000         	movff	_DtKNF+11,btemp
  1819  00732A  6A01               	clrf	btemp+1,c
  1820  00732C  C15D  FFE8         	movff	_MinMax+93,wreg
  1821  007330  1801               	xorwf	btemp+1,w,c
  1822  007332  E103               	bnz	u1525
  1823  007334  C15C  FFE8         	movff	_MinMax+92,wreg
  1824  007338  1800               	xorwf	btemp,w,c
  1825  00733A                     u1525:
  1826  00733A  E00B               	bz	u1540
  1827  00733C  C2B9  F000         	movff	_DtKNF+11,btemp
  1828  007340  6A01               	clrf	btemp+1,c
  1829  007342  C15F  FFE8         	movff	_MinMax+95,wreg
  1830  007346  1801               	xorwf	btemp+1,w,c
  1831  007348  E103               	bnz	u1545
  1832  00734A  C15E  FFE8         	movff	_MinMax+94,wreg
  1833  00734E  1800               	xorwf	btemp,w,c
  1834  007350                     u1545:
  1835  007350  E118               	bnz	l111
  1836  007352                     u1540:
  1837                           ;konfig.c: 358: if(DtKNF.tmxco2!=eeprom_read(0x0
      +                          0D5)) eeprom_write(0x00D5,DtKNF.tmxco2);
  1838  007352  0ED5               	movlw	213
  1839  007354  0100               	movlb	__Lparam shr (0+8)
  1840  007356  6FB7               	movwf	?_eeprom_read^(__Lparam& (0+65280)),b
  1841  007358  6BB8               	clrf	(?_eeprom_read+1)^(__Lparam& (0+65280)),b
  1842  00735A  EC2F  F007         	call	_eeprom_read	;wreg free
  1843  00735E  6E00               	movwf	btemp,c
  1844  007360  C000  F002         	movff	btemp,btemp+2
  1845  007364  6A03               	clrf	btemp+3,c
  1846  007366  C2B9  FFE8         	movff	_DtKNF+11,wreg
  1847  00736A  1802               	xorwf	btemp+2,w,c
  1848  00736C  E101               	bnz	u1565
  1849  00736E  5203               	movf	btemp+3,f,c
  1850  007370                     u1565:
  1851  007370  E008               	bz	l111
  1852  007372  0ED5               	movlw	213
  1853  007374  0100               	movlb	__Lparam shr (0+8)
  1854  007376  6FB7               	movwf	?_eeprom_write^(__Lparam& (0+65280)),b
  1855  007378  6BB8               	clrf	(?_eeprom_write+1)^(__Lparam& (0+65280)),b
  1856  00737A  C2B9  F0B9         	movff	_DtKNF+11,?_eeprom_write+2
  1857  00737E  EC5C  F006         	call	_eeprom_write	;wreg free
  1858  007382                     l111:
  1859                           ;konfig.c: 360: if((DtKNF.mxco2>MinMax[16].min)&
      +                          &(DtKNF.mxco2<MinMax[16].max)||DtKNF.mxco2==MinM
      +                          ax[16].min||DtKNF.mxco2==MinMax[16].max)
  1860  007382  C2B8  F002         	movff	_DtKNF+10,btemp+2
  1861  007386  6A03               	clrf	btemp+3,c
  1862  007388  EE01  F062         	lfsr	0,_MinMax+98
  1863  00738C  CFEE F000          	movff	postinc0,btemp
  1864  007390  CFED F001          	movff	postdec0,btemp+1
  1865  007394  5003               	movf	btemp+3,w,c
  1866  007396  5C01               	subwf	btemp+1,w,c
  1867  007398  E102               	bnz	u1575
  1868  00739A  5002               	movf	btemp+2,w,c
  1869  00739C  5C00               	subwf	btemp,w,c
  1870  00739E                     u1575:
  1871  00739E  E20F               	bc	u1591
  1872  0073A0  EE01  F064         	lfsr	0,_MinMax+100
  1873  0073A4  CFEE F000          	movff	postinc0,btemp
  1874  0073A8  CFED F001          	movff	postdec0,btemp+1
  1875  0073AC  C2B8  F002         	movff	_DtKNF+10,btemp+2
  1876  0073B0  6A03               	clrf	btemp+3,c
  1877  0073B2  5001               	movf	btemp+1,w,c
  1878  0073B4  5C03               	subwf	btemp+3,w,c
  1879  0073B6  E102               	bnz	u1585
  1880  0073B8  5000               	movf	btemp,w,c
  1881  0073BA  5C02               	subwf	btemp+2,w,c
  1882  0073BC                     u1585:
  1883  0073BC  E316               	bnc	u1620
  1884  0073BE                     u1591:
  1885  0073BE  C2B8  F000         	movff	_DtKNF+10,btemp
  1886  0073C2  6A01               	clrf	btemp+1,c
  1887  0073C4  C163  FFE8         	movff	_MinMax+99,wreg
  1888  0073C8  1801               	xorwf	btemp+1,w,c
  1889  0073CA  E103               	bnz	u1605
  1890  0073CC  C162  FFE8         	movff	_MinMax+98,wreg
  1891  0073D0  1800               	xorwf	btemp,w,c
  1892  0073D2                     u1605:
  1893  0073D2  E00B               	bz	u1620
  1894  0073D4  C2B8  F000         	movff	_DtKNF+10,btemp
  1895  0073D8  6A01               	clrf	btemp+1,c
  1896  0073DA  C165  FFE8         	movff	_MinMax+101,wreg
  1897  0073DE  1801               	xorwf	btemp+1,w,c
  1898  0073E0  E103               	bnz	u1625
  1899  0073E2  C164  FFE8         	movff	_MinMax+100,wreg
  1900  0073E6  1800               	xorwf	btemp,w,c
  1901  0073E8                     u1625:
  1902  0073E8  E118               	bnz	l113
  1903  0073EA                     u1620:
  1904                           ;konfig.c: 361: if(DtKNF.mxco2!=eeprom_read(0x00
      +                          D6)) eeprom_write(0x00D6,DtKNF.mxco2);
  1905  0073EA  0ED6               	movlw	214
  1906  0073EC  0100               	movlb	__Lparam shr (0+8)
  1907  0073EE  6FB7               	movwf	?_eeprom_read^(__Lparam& (0+65280)),b
  1908  0073F0  6BB8               	clrf	(?_eeprom_read+1)^(__Lparam& (0+65280)),b
  1909  0073F2  EC2F  F007         	call	_eeprom_read	;wreg free
  1910  0073F6  6E00               	movwf	btemp,c
  1911  0073F8  C000  F002         	movff	btemp,btemp+2
  1912  0073FC  6A03               	clrf	btemp+3,c
  1913  0073FE  C2B8  FFE8         	movff	_DtKNF+10,wreg
  1914  007402  1802               	xorwf	btemp+2,w,c
  1915  007404  E101               	bnz	u1645
  1916  007406  5203               	movf	btemp+3,f,c
  1917  007408                     u1645:
  1918  007408  E008               	bz	l113
  1919  00740A  0ED6               	movlw	214
  1920  00740C  0100               	movlb	__Lparam shr (0+8)
  1921  00740E  6FB7               	movwf	?_eeprom_write^(__Lparam& (0+65280)),b
  1922  007410  6BB8               	clrf	(?_eeprom_write+1)^(__Lparam& (0+65280)),b
  1923  007412  C2B8  F0B9         	movff	_DtKNF+10,?_eeprom_write+2
  1924  007416  EC5C  F006         	call	_eeprom_write	;wreg free
  1925  00741A                     l113:
  1926                           ;konfig.c: 363: if((DtKNF.mgpm>MinMax[17].min)&&
      +                          (DtKNF.mgpm<MinMax[17].max)||DtKNF.mgpm==MinMax[
      +                          17].min||DtKNF.mgpm==MinMax[17].max)
  1927  00741A  C2CA  F002         	movff	_DtKNF+28,btemp+2
  1928  00741E  6A03               	clrf	btemp+3,c
  1929  007420  EE01  F068         	lfsr	0,_MinMax+104
  1930  007424  CFEE F000          	movff	postinc0,btemp
  1931  007428  CFED F001          	movff	postdec0,btemp+1
  1932  00742C  5003               	movf	btemp+3,w,c
  1933  00742E  5C01               	subwf	btemp+1,w,c
  1934  007430  E102               	bnz	u1655
  1935  007432  5002               	movf	btemp+2,w,c
  1936  007434  5C00               	subwf	btemp,w,c
  1937  007436                     u1655:
  1938  007436  E20F               	bc	u1671
  1939  007438  EE01  F06A         	lfsr	0,_MinMax+106
  1940  00743C  CFEE F000          	movff	postinc0,btemp
  1941  007440  CFED F001          	movff	postdec0,btemp+1
  1942  007444  C2CA  F002         	movff	_DtKNF+28,btemp+2
  1943  007448  6A03               	clrf	btemp+3,c
  1944  00744A  5001               	movf	btemp+1,w,c
  1945  00744C  5C03               	subwf	btemp+3,w,c
  1946  00744E  E102               	bnz	u1665
  1947  007450  5000               	movf	btemp,w,c
  1948  007452  5C02               	subwf	btemp+2,w,c
  1949  007454                     u1665:
  1950  007454  E316               	bnc	u1700
  1951  007456                     u1671:
  1952  007456  C2CA  F000         	movff	_DtKNF+28,btemp
  1953  00745A  6A01               	clrf	btemp+1,c
  1954  00745C  C169  FFE8         	movff	_MinMax+105,wreg
  1955  007460  1801               	xorwf	btemp+1,w,c
  1956  007462  E103               	bnz	u1685
  1957  007464  C168  FFE8         	movff	_MinMax+104,wreg
  1958  007468  1800               	xorwf	btemp,w,c
  1959  00746A                     u1685:
  1960  00746A  E00B               	bz	u1700
  1961  00746C  C2CA  F000         	movff	_DtKNF+28,btemp
  1962  007470  6A01               	clrf	btemp+1,c
  1963  007472  C16B  FFE8         	movff	_MinMax+107,wreg
  1964  007476  1801               	xorwf	btemp+1,w,c
  1965  007478  E103               	bnz	u1705
  1966  00747A  C16A  FFE8         	movff	_MinMax+106,wreg
  1967  00747E  1800               	xorwf	btemp,w,c
  1968  007480                     u1705:
  1969  007480  E12E               	bnz	l115
  1970  007482                     u1700:
  1971                           ;konfig.c: 364: {
  1972  007482  C2C0  FFE8         	movff	_DtKNF+18,wreg
  1973  007486  0102               	movlb	(_DtKNF+28) shr (0+8)
  1974  007488  61CA               	cpfslt	(_DtKNF+28)& (0+255),b
  1975  00748A  D011               	goto	l116
  1976                           ;konfig.c: 366: {
  1977  00748C  C2C0  F002         	movff	_DtKNF+18,btemp+2
  1978  007490  6A03               	clrf	btemp+3,c
  1979  007492  EE01  F06A         	lfsr	0,_MinMax+106
  1980  007496  CFEE F000          	movff	postinc0,btemp
  1981  00749A  CFED F001          	movff	postdec0,btemp+1
  1982  00749E  5003               	movf	btemp+3,w,c
  1983  0074A0  5C01               	subwf	btemp+1,w,c
  1984  0074A2  E102               	bnz	u1735
  1985  0074A4  5002               	movf	btemp+2,w,c
  1986  0074A6  5C00               	subwf	btemp,w,c
  1987  0074A8                     u1735:
  1988  0074A8  B0D8               	btfsc	status,0,c
  1989  0074AA  C2C0  F2CA         	movff	_DtKNF+18,_DtKNF+28
  1990  0074AE                     l116:
  1991                           ;konfig.c: 368: }
  1992  0074AE  0ED7               	movlw	215
  1993  0074B0  0100               	movlb	__Lparam shr (0+8)
  1994  0074B2  6FB7               	movwf	?_eeprom_read^(__Lparam& (0+65280)),b
  1995  0074B4  6BB8               	clrf	(?_eeprom_read+1)^(__Lparam& (0+65280)),b
  1996  0074B6  EC2F  F007         	call	_eeprom_read	;wreg free
  1997  0074BA  6E00               	movwf	btemp,c
  1998  0074BC  C000  F002         	movff	btemp,btemp+2
  1999  0074C0  6A03               	clrf	btemp+3,c
  2000  0074C2  C2CA  FFE8         	movff	_DtKNF+28,wreg
  2001  0074C6  1802               	xorwf	btemp+2,w,c
  2002  0074C8  E101               	bnz	u1745
  2003  0074CA  5203               	movf	btemp+3,f,c
  2004  0074CC                     u1745:
  2005  0074CC  E008               	bz	l115
  2006  0074CE  0ED7               	movlw	215
  2007  0074D0  0100               	movlb	__Lparam shr (0+8)
  2008  0074D2  6FB7               	movwf	?_eeprom_write^(__Lparam& (0+65280)),b
  2009  0074D4  6BB8               	clrf	(?_eeprom_write+1)^(__Lparam& (0+65280)),b
  2010  0074D6  C2CA  F0B9         	movff	_DtKNF+28,?_eeprom_write+2
  2011  0074DA  EC5C  F006         	call	_eeprom_write	;wreg free
  2012  0074DE                     l115:
  2013                           ;konfig.c: 370: }
  2014  0074DE  C2CB  F002         	movff	_DtKNF+29,btemp+2
  2015  0074E2  6A03               	clrf	btemp+3,c
  2016  0074E4  EE01  F06E         	lfsr	0,_MinMax+110
  2017  0074E8  CFEE F000          	movff	postinc0,btemp
  2018  0074EC  CFED F001          	movff	postdec0,btemp+1
  2019  0074F0  5003               	movf	btemp+3,w,c
  2020  0074F2  5C01               	subwf	btemp+1,w,c
  2021  0074F4  E102               	bnz	u1755
  2022  0074F6  5002               	movf	btemp+2,w,c
  2023  0074F8  5C00               	subwf	btemp,w,c
  2024  0074FA                     u1755:
  2025  0074FA  E20F               	bc	u1771
  2026  0074FC  EE01  F070         	lfsr	0,_MinMax+112
  2027  007500  CFEE F000          	movff	postinc0,btemp
  2028  007504  CFED F001          	movff	postdec0,btemp+1
  2029  007508  C2CB  F002         	movff	_DtKNF+29,btemp+2
  2030  00750C  6A03               	clrf	btemp+3,c
  2031  00750E  5001               	movf	btemp+1,w,c
  2032  007510  5C03               	subwf	btemp+3,w,c
  2033  007512  E102               	bnz	u1765
  2034  007514  5000               	movf	btemp,w,c
  2035  007516  5C02               	subwf	btemp+2,w,c
  2036  007518                     u1765:
  2037  007518  E316               	bnc	u1800
  2038  00751A                     u1771:
  2039  00751A  C2CB  F000         	movff	_DtKNF+29,btemp
  2040  00751E  6A01               	clrf	btemp+1,c
  2041  007520  C16F  FFE8         	movff	_MinMax+111,wreg
  2042  007524  1801               	xorwf	btemp+1,w,c
  2043  007526  E103               	bnz	u1785
  2044  007528  C16E  FFE8         	movff	_MinMax+110,wreg
  2045  00752C  1800               	xorwf	btemp,w,c
  2046  00752E                     u1785:
  2047  00752E  E00B               	bz	u1800
  2048  007530  C2CB  F000         	movff	_DtKNF+29,btemp
  2049  007534  6A01               	clrf	btemp+1,c
  2050  007536  C171  FFE8         	movff	_MinMax+113,wreg
  2051  00753A  1801               	xorwf	btemp+1,w,c
  2052  00753C  E103               	bnz	u1805
  2053  00753E  C170  FFE8         	movff	_MinMax+112,wreg
  2054  007542  1800               	xorwf	btemp,w,c
  2055  007544                     u1805:
  2056  007544  E118               	bnz	l119
  2057  007546                     u1800:
  2058                           ;konfig.c: 373: {
  2059  007546  0ED9               	movlw	217
  2060  007548  0100               	movlb	__Lparam shr (0+8)
  2061  00754A  6FB7               	movwf	?_eeprom_read^(__Lparam& (0+65280)),b
  2062  00754C  6BB8               	clrf	(?_eeprom_read+1)^(__Lparam& (0+65280)),b
  2063  00754E  EC2F  F007         	call	_eeprom_read	;wreg free
  2064  007552  6E00               	movwf	btemp,c
  2065  007554  C000  F002         	movff	btemp,btemp+2
  2066  007558  6A03               	clrf	btemp+3,c
  2067  00755A  C2CB  FFE8         	movff	_DtKNF+29,wreg
  2068  00755E  1802               	xorwf	btemp+2,w,c
  2069  007560  E101               	bnz	u1825
  2070  007562  5203               	movf	btemp+3,f,c
  2071  007564                     u1825:
  2072  007564  E008               	bz	l119
  2073  007566  0ED9               	movlw	217
  2074  007568  0100               	movlb	__Lparam shr (0+8)
  2075  00756A  6FB7               	movwf	?_eeprom_write^(__Lparam& (0+65280)),b
  2076  00756C  6BB8               	clrf	(?_eeprom_write+1)^(__Lparam& (0+65280)),b
  2077  00756E  C2CB  F0B9         	movff	_DtKNF+29,?_eeprom_write+2
  2078  007572  EC5C  F006         	call	_eeprom_write	;wreg free
  2079  007576                     l119:
  2080                           ;konfig.c: 375: }
  2081  007576  C2CD  F002         	movff	_DtKNF+31,btemp+2
  2082  00757A  6A03               	clrf	btemp+3,c
  2083  00757C  EE01  F074         	lfsr	0,_MinMax+116
  2084  007580  CFEE F000          	movff	postinc0,btemp
  2085  007584  CFED F001          	movff	postdec0,btemp+1
  2086  007588  5003               	movf	btemp+3,w,c
  2087  00758A  5C01               	subwf	btemp+1,w,c
  2088  00758C  E102               	bnz	u1835
  2089  00758E  5002               	movf	btemp+2,w,c
  2090  007590  5C00               	subwf	btemp,w,c
  2091  007592                     u1835:
  2092  007592  E20F               	bc	u1851
  2093  007594  EE01  F076         	lfsr	0,_MinMax+118
  2094  007598  CFEE F000          	movff	postinc0,btemp
  2095  00759C  CFED F001          	movff	postdec0,btemp+1
  2096  0075A0  C2CD  F002         	movff	_DtKNF+31,btemp+2
  2097  0075A4  6A03               	clrf	btemp+3,c
  2098  0075A6  5001               	movf	btemp+1,w,c
  2099  0075A8  5C03               	subwf	btemp+3,w,c
  2100  0075AA  E102               	bnz	u1845
  2101  0075AC  5000               	movf	btemp,w,c
  2102  0075AE  5C02               	subwf	btemp+2,w,c
  2103  0075B0                     u1845:
  2104  0075B0  E316               	bnc	u1880
  2105  0075B2                     u1851:
  2106  0075B2  C2CD  F000         	movff	_DtKNF+31,btemp
  2107  0075B6  6A01               	clrf	btemp+1,c
  2108  0075B8  C175  FFE8         	movff	_MinMax+117,wreg
  2109  0075BC  1801               	xorwf	btemp+1,w,c
  2110  0075BE  E103               	bnz	u1865
  2111  0075C0  C174  FFE8         	movff	_MinMax+116,wreg
  2112  0075C4  1800               	xorwf	btemp,w,c
  2113  0075C6                     u1865:
  2114  0075C6  E00B               	bz	u1880
  2115  0075C8  C2CD  F000         	movff	_DtKNF+31,btemp
  2116  0075CC  6A01               	clrf	btemp+1,c
  2117  0075CE  C177  FFE8         	movff	_MinMax+119,wreg
  2118  0075D2  1801               	xorwf	btemp+1,w,c
  2119  0075D4  E103               	bnz	u1885
  2120  0075D6  C176  FFE8         	movff	_MinMax+118,wreg
  2121  0075DA  1800               	xorwf	btemp,w,c
  2122  0075DC                     u1885:
  2123  0075DC  E118               	bnz	l121
  2124  0075DE                     u1880:
  2125                           ;konfig.c: 378: {
  2126  0075DE  0EDA               	movlw	218
  2127  0075E0  0100               	movlb	__Lparam shr (0+8)
  2128  0075E2  6FB7               	movwf	?_eeprom_read^(__Lparam& (0+65280)),b
  2129  0075E4  6BB8               	clrf	(?_eeprom_read+1)^(__Lparam& (0+65280)),b
  2130  0075E6  EC2F  F007         	call	_eeprom_read	;wreg free
  2131  0075EA  6E00               	movwf	btemp,c
  2132  0075EC  C000  F002         	movff	btemp,btemp+2
  2133  0075F0  6A03               	clrf	btemp+3,c
  2134  0075F2  C2CD  FFE8         	movff	_DtKNF+31,wreg
  2135  0075F6  1802               	xorwf	btemp+2,w,c
  2136  0075F8  E101               	bnz	u1905
  2137  0075FA  5203               	movf	btemp+3,f,c
  2138  0075FC                     u1905:
  2139  0075FC  E008               	bz	l121
  2140  0075FE  0EDA               	movlw	218
  2141  007600  0100               	movlb	__Lparam shr (0+8)
  2142  007602  6FB7               	movwf	?_eeprom_write^(__Lparam& (0+65280)),b
  2143  007604  6BB8               	clrf	(?_eeprom_write+1)^(__Lparam& (0+65280)),b
  2144  007606  C2CD  F0B9         	movff	_DtKNF+31,?_eeprom_write+2
  2145  00760A  EC5C  F006         	call	_eeprom_write	;wreg free
  2146  00760E                     l121:
  2147                           ;konfig.c: 380: }
  2148  00760E  C2CE  F002         	movff	_DtKNF+32,btemp+2
  2149  007612  6A03               	clrf	btemp+3,c
  2150  007614  EE01  F07A         	lfsr	0,_MinMax+122
  2151  007618  CFEE F000          	movff	postinc0,btemp
  2152  00761C  CFED F001          	movff	postdec0,btemp+1
  2153  007620  5003               	movf	btemp+3,w,c
  2154  007622  5C01               	subwf	btemp+1,w,c
  2155  007624  E102               	bnz	u1915
  2156  007626  5002               	movf	btemp+2,w,c
  2157  007628  5C00               	subwf	btemp,w,c
  2158  00762A                     u1915:
  2159  00762A  E20F               	bc	u1931
  2160  00762C  EE01  F07C         	lfsr	0,_MinMax+124
  2161  007630  CFEE F000          	movff	postinc0,btemp
  2162  007634  CFED F001          	movff	postdec0,btemp+1
  2163  007638  C2CE  F002         	movff	_DtKNF+32,btemp+2
  2164  00763C  6A03               	clrf	btemp+3,c
  2165  00763E  5001               	movf	btemp+1,w,c
  2166  007640  5C03               	subwf	btemp+3,w,c
  2167  007642  E102               	bnz	u1925
  2168  007644  5000               	movf	btemp,w,c
  2169  007646  5C02               	subwf	btemp+2,w,c
  2170  007648                     u1925:
  2171  007648  E316               	bnc	u1960
  2172  00764A                     u1931:
  2173  00764A  C2CE  F000         	movff	_DtKNF+32,btemp
  2174  00764E  6A01               	clrf	btemp+1,c
  2175  007650  C17B  FFE8         	movff	_MinMax+123,wreg
  2176  007654  1801               	xorwf	btemp+1,w,c
  2177  007656  E103               	bnz	u1945
  2178  007658  C17A  FFE8         	movff	_MinMax+122,wreg
  2179  00765C  1800               	xorwf	btemp,w,c
  2180  00765E                     u1945:
  2181  00765E  E00B               	bz	u1960
  2182  007660  C2CE  F000         	movff	_DtKNF+32,btemp
  2183  007664  6A01               	clrf	btemp+1,c
  2184  007666  C17D  FFE8         	movff	_MinMax+125,wreg
  2185  00766A  1801               	xorwf	btemp+1,w,c
  2186  00766C  E103               	bnz	u1965
  2187  00766E  C17C  FFE8         	movff	_MinMax+124,wreg
  2188  007672  1800               	xorwf	btemp,w,c
  2189  007674                     u1965:
  2190  007674  E118               	bnz	l123
  2191  007676                     u1960:
  2192                           ;konfig.c: 383: {
  2193  007676  0EDB               	movlw	219
  2194  007678  0100               	movlb	__Lparam shr (0+8)
  2195  00767A  6FB7               	movwf	?_eeprom_read^(__Lparam& (0+65280)),b
  2196  00767C  6BB8               	clrf	(?_eeprom_read+1)^(__Lparam& (0+65280)),b
  2197  00767E  EC2F  F007         	call	_eeprom_read	;wreg free
  2198  007682  6E00               	movwf	btemp,c
  2199  007684  C000  F002         	movff	btemp,btemp+2
  2200  007688  6A03               	clrf	btemp+3,c
  2201  00768A  C2CE  FFE8         	movff	_DtKNF+32,wreg
  2202  00768E  1802               	xorwf	btemp+2,w,c
  2203  007690  E101               	bnz	u1985
  2204  007692  5203               	movf	btemp+3,f,c
  2205  007694                     u1985:
  2206  007694  E008               	bz	l123
  2207  007696  0EDB               	movlw	219
  2208  007698  0100               	movlb	__Lparam shr (0+8)
  2209  00769A  6FB7               	movwf	?_eeprom_write^(__Lparam& (0+65280)),b
  2210  00769C  6BB8               	clrf	(?_eeprom_write+1)^(__Lparam& (0+65280)),b
  2211  00769E  C2CE  F0B9         	movff	_DtKNF+32,?_eeprom_write+2
  2212  0076A2  EC5C  F006         	call	_eeprom_write	;wreg free
  2213  0076A6                     l123:
  2214                           ;konfig.c: 385: }
  2215  0076A6  C2CF  F002         	movff	_DtKNF+33,btemp+2
  2216  0076AA  6A03               	clrf	btemp+3,c
  2217  0076AC  EE01  F080         	lfsr	0,_MinMax+128
  2218  0076B0  CFEE F000          	movff	postinc0,btemp
  2219  0076B4  CFED F001          	movff	postdec0,btemp+1
  2220  0076B8  5003               	movf	btemp+3,w,c
  2221  0076BA  5C01               	subwf	btemp+1,w,c
  2222  0076BC  E102               	bnz	u1995
  2223  0076BE  5002               	movf	btemp+2,w,c
  2224  0076C0  5C00               	subwf	btemp,w,c
  2225  0076C2                     u1995:
  2226  0076C2  E20F               	bc	u2011
  2227  0076C4  EE01  F082         	lfsr	0,_MinMax+130
  2228  0076C8  CFEE F000          	movff	postinc0,btemp
  2229  0076CC  CFED F001          	movff	postdec0,btemp+1
  2230  0076D0  C2CF  F002         	movff	_DtKNF+33,btemp+2
  2231  0076D4  6A03               	clrf	btemp+3,c
  2232  0076D6  5001               	movf	btemp+1,w,c
  2233  0076D8  5C03               	subwf	btemp+3,w,c
  2234  0076DA  E102               	bnz	u2005
  2235  0076DC  5000               	movf	btemp,w,c
  2236  0076DE  5C02               	subwf	btemp+2,w,c
  2237  0076E0                     u2005:
  2238  0076E0  E316               	bnc	u2040
  2239  0076E2                     u2011:
  2240  0076E2  C2CF  F000         	movff	_DtKNF+33,btemp
  2241  0076E6  6A01               	clrf	btemp+1,c
  2242  0076E8  C181  FFE8         	movff	_MinMax+129,wreg
  2243  0076EC  1801               	xorwf	btemp+1,w,c
  2244  0076EE  E103               	bnz	u2025
  2245  0076F0  C180  FFE8         	movff	_MinMax+128,wreg
  2246  0076F4  1800               	xorwf	btemp,w,c
  2247  0076F6                     u2025:
  2248  0076F6  E00B               	bz	u2040
  2249  0076F8  C2CF  F000         	movff	_DtKNF+33,btemp
  2250  0076FC  6A01               	clrf	btemp+1,c
  2251  0076FE  C183  FFE8         	movff	_MinMax+131,wreg
  2252  007702  1801               	xorwf	btemp+1,w,c
  2253  007704  E103               	bnz	u2045
  2254  007706  C182  FFE8         	movff	_MinMax+130,wreg
  2255  00770A  1800               	xorwf	btemp,w,c
  2256  00770C                     u2045:
  2257  00770C  E118               	bnz	l125
  2258  00770E                     u2040:
  2259                           ;konfig.c: 388: {
  2260  00770E  0EDC               	movlw	220
  2261  007710  0100               	movlb	__Lparam shr (0+8)
  2262  007712  6FB7               	movwf	?_eeprom_read^(__Lparam& (0+65280)),b
  2263  007714  6BB8               	clrf	(?_eeprom_read+1)^(__Lparam& (0+65280)),b
  2264  007716  EC2F  F007         	call	_eeprom_read	;wreg free
  2265  00771A  6E00               	movwf	btemp,c
  2266  00771C  C000  F002         	movff	btemp,btemp+2
  2267  007720  6A03               	clrf	btemp+3,c
  2268  007722  C2CF  FFE8         	movff	_DtKNF+33,wreg
  2269  007726  1802               	xorwf	btemp+2,w,c
  2270  007728  E101               	bnz	u2065
  2271  00772A  5203               	movf	btemp+3,f,c
  2272  00772C                     u2065:
  2273  00772C  E008               	bz	l125
  2274  00772E  0EDC               	movlw	220
  2275  007730  0100               	movlb	__Lparam shr (0+8)
  2276  007732  6FB7               	movwf	?_eeprom_write^(__Lparam& (0+65280)),b
  2277  007734  6BB8               	clrf	(?_eeprom_write+1)^(__Lparam& (0+65280)),b
  2278  007736  C2CF  F0B9         	movff	_DtKNF+33,?_eeprom_write+2
  2279  00773A  EC5C  F006         	call	_eeprom_write	;wreg free
  2280  00773E                     l125:
  2281                           ;konfig.c: 390: }
  2282  00773E  C2D0  F002         	movff	_DtKNF+34,btemp+2
  2283  007742  6A03               	clrf	btemp+3,c
  2284  007744  EE01  F086         	lfsr	0,_MinMax+134
  2285  007748  CFEE F000          	movff	postinc0,btemp
  2286  00774C  CFED F001          	movff	postdec0,btemp+1
  2287  007750  5003               	movf	btemp+3,w,c
  2288  007752  5C01               	subwf	btemp+1,w,c
  2289  007754  E102               	bnz	u2075
  2290  007756  5002               	movf	btemp+2,w,c
  2291  007758  5C00               	subwf	btemp,w,c
  2292  00775A                     u2075:
  2293  00775A  E20F               	bc	u2091
  2294  00775C  EE01  F088         	lfsr	0,_MinMax+136
  2295  007760  CFEE F000          	movff	postinc0,btemp
  2296  007764  CFED F001          	movff	postdec0,btemp+1
  2297  007768  C2D0  F002         	movff	_DtKNF+34,btemp+2
  2298  00776C  6A03               	clrf	btemp+3,c
  2299  00776E  5001               	movf	btemp+1,w,c
  2300  007770  5C03               	subwf	btemp+3,w,c
  2301  007772  E102               	bnz	u2085
  2302  007774  5000               	movf	btemp,w,c
  2303  007776  5C02               	subwf	btemp+2,w,c
  2304  007778                     u2085:
  2305  007778  E316               	bnc	u2120
  2306  00777A                     u2091:
  2307  00777A  C2D0  F000         	movff	_DtKNF+34,btemp
  2308  00777E  6A01               	clrf	btemp+1,c
  2309  007780  C187  FFE8         	movff	_MinMax+135,wreg
  2310  007784  1801               	xorwf	btemp+1,w,c
  2311  007786  E103               	bnz	u2105
  2312  007788  C186  FFE8         	movff	_MinMax+134,wreg
  2313  00778C  1800               	xorwf	btemp,w,c
  2314  00778E                     u2105:
  2315  00778E  E00B               	bz	u2120
  2316  007790  C2D0  F000         	movff	_DtKNF+34,btemp
  2317  007794  6A01               	clrf	btemp+1,c
  2318  007796  C189  FFE8         	movff	_MinMax+137,wreg
  2319  00779A  1801               	xorwf	btemp+1,w,c
  2320  00779C  E103               	bnz	u2125
  2321  00779E  C188  FFE8         	movff	_MinMax+136,wreg
  2322  0077A2  1800               	xorwf	btemp,w,c
  2323  0077A4                     u2125:
  2324  0077A4  E120               	bnz	l127
  2325  0077A6                     u2120:
  2326                           ;konfig.c: 393: {
  2327  0077A6  0EDD               	movlw	221
  2328  0077A8  0100               	movlb	__Lparam shr (0+8)
  2329  0077AA  6FB7               	movwf	?_eeprom_read^(__Lparam& (0+65280)),b
  2330  0077AC  6BB8               	clrf	(?_eeprom_read+1)^(__Lparam& (0+65280)),b
  2331  0077AE  EC2F  F007         	call	_eeprom_read	;wreg free
  2332  0077B2  6E00               	movwf	btemp,c
  2333  0077B4  C000  F002         	movff	btemp,btemp+2
  2334  0077B8  6A03               	clrf	btemp+3,c
  2335  0077BA  C2D0  FFE8         	movff	_DtKNF+34,wreg
  2336  0077BE  1802               	xorwf	btemp+2,w,c
  2337  0077C0  E101               	bnz	u2145
  2338  0077C2  5203               	movf	btemp+3,f,c
  2339  0077C4                     u2145:
  2340  0077C4  E00E               	bz	l128
  2341                           ;konfig.c: 395: {
  2342  0077C6  0EDD               	movlw	221
  2343  0077C8  0100               	movlb	__Lparam shr (0+8)
  2344  0077CA  6FB7               	movwf	?_eeprom_write^(__Lparam& (0+65280)),b
  2345  0077CC  6BB8               	clrf	(?_eeprom_write+1)^(__Lparam& (0+65280)),b
  2346  0077CE  C2D0  F0B9         	movff	_DtKNF+34,?_eeprom_write+2
  2347  0077D2  EC5C  F006         	call	_eeprom_write	;wreg free
  2348                           ;konfig.c: 397: SetDefFan(DtKNF.rfan);
  2349  0077D6  C2D0  FFE8         	movff	_DtKNF+34,wreg
  2350  0077DA  EC73  F05E         	call	_SetDefFan
  2351                           ;konfig.c: 398: M._KNF_KAL=1;
  2352  0077DE  0103               	movlb	(_M+8) shr (0+8)
  2353  0077E0  870E               	bsf	(_M+8)& (0+255),3,b
  2354  0077E2                     l128:
  2355                           ;konfig.c: 399: }
  2356  0077E2  EC65  F000         	call	_ModParam	;wreg free
  2357  0077E6                     l127:
  2358                           ;konfig.c: 401: }
  2359  0077E6  C2D1  F002         	movff	_DtKNF+35,btemp+2
  2360  0077EA  6A03               	clrf	btemp+3,c
  2361  0077EC  EE01  F08C         	lfsr	0,_MinMax+140
  2362  0077F0  CFEE F000          	movff	postinc0,btemp
  2363  0077F4  CFED F001          	movff	postdec0,btemp+1
  2364  0077F8  5003               	movf	btemp+3,w,c
  2365  0077FA  5C01               	subwf	btemp+1,w,c
  2366  0077FC  E102               	bnz	u2155
  2367  0077FE  5002               	movf	btemp+2,w,c
  2368  007800  5C00               	subwf	btemp,w,c
  2369  007802                     u2155:
  2370  007802  E20F               	bc	u2171
  2371  007804  EE01  F08E         	lfsr	0,_MinMax+142
  2372  007808  CFEE F000          	movff	postinc0,btemp
  2373  00780C  CFED F001          	movff	postdec0,btemp+1
  2374  007810  C2D1  F002         	movff	_DtKNF+35,btemp+2
  2375  007814  6A03               	clrf	btemp+3,c
  2376  007816  5001               	movf	btemp+1,w,c
  2377  007818  5C03               	subwf	btemp+3,w,c
  2378  00781A  E102               	bnz	u2165
  2379  00781C  5000               	movf	btemp,w,c
  2380  00781E  5C02               	subwf	btemp+2,w,c
  2381  007820                     u2165:
  2382  007820  E316               	bnc	u2200
  2383  007822                     u2171:
  2384  007822  C2D1  F000         	movff	_DtKNF+35,btemp
  2385  007826  6A01               	clrf	btemp+1,c
  2386  007828  C18D  FFE8         	movff	_MinMax+141,wreg
  2387  00782C  1801               	xorwf	btemp+1,w,c
  2388  00782E  E103               	bnz	u2185
  2389  007830  C18C  FFE8         	movff	_MinMax+140,wreg
  2390  007834  1800               	xorwf	btemp,w,c
  2391  007836                     u2185:
  2392  007836  E00B               	bz	u2200
  2393  007838  C2D1  F000         	movff	_DtKNF+35,btemp
  2394  00783C  6A01               	clrf	btemp+1,c
  2395  00783E  C18F  FFE8         	movff	_MinMax+143,wreg
  2396  007842  1801               	xorwf	btemp+1,w,c
  2397  007844  E103               	bnz	u2205
  2398  007846  C18E  FFE8         	movff	_MinMax+142,wreg
  2399  00784A  1800               	xorwf	btemp,w,c
  2400  00784C                     u2205:
  2401  00784C  E118               	bnz	l129
  2402  00784E                     u2200:
  2403                           ;konfig.c: 403: {
  2404  00784E  0EDE               	movlw	222
  2405  007850  0100               	movlb	__Lparam shr (0+8)
  2406  007852  6FB7               	movwf	?_eeprom_read^(__Lparam& (0+65280)),b
  2407  007854  6BB8               	clrf	(?_eeprom_read+1)^(__Lparam& (0+65280)),b
  2408  007856  EC2F  F007         	call	_eeprom_read	;wreg free
  2409  00785A  6E00               	movwf	btemp,c
  2410  00785C  C000  F002         	movff	btemp,btemp+2
  2411  007860  6A03               	clrf	btemp+3,c
  2412  007862  C2D1  FFE8         	movff	_DtKNF+35,wreg
  2413  007866  1802               	xorwf	btemp+2,w,c
  2414  007868  E101               	bnz	u2225
  2415  00786A  5203               	movf	btemp+3,f,c
  2416  00786C                     u2225:
  2417  00786C  E008               	bz	l129
  2418  00786E  0EDE               	movlw	222
  2419  007870  0100               	movlb	__Lparam shr (0+8)
  2420  007872  6FB7               	movwf	?_eeprom_write^(__Lparam& (0+65280)),b
  2421  007874  6BB8               	clrf	(?_eeprom_write+1)^(__Lparam& (0+65280)),b
  2422  007876  C2D1  F0B9         	movff	_DtKNF+35,?_eeprom_write+2
  2423  00787A  EC5C  F006         	call	_eeprom_write	;wreg free
  2424  00787E                     l129:
  2425                           ;konfig.c: 405: }
  2426  00787E  C2D8  F002         	movff	_DtKNF+42,btemp+2
  2427  007882  6A03               	clrf	btemp+3,c
  2428  007884  EE01  F092         	lfsr	0,_MinMax+146
  2429  007888  CFEE F000          	movff	postinc0,btemp
  2430  00788C  CFED F001          	movff	postdec0,btemp+1
  2431  007890  5003               	movf	btemp+3,w,c
  2432  007892  5C01               	subwf	btemp+1,w,c
  2433  007894  E102               	bnz	u2235
  2434  007896  5002               	movf	btemp+2,w,c
  2435  007898  5C00               	subwf	btemp,w,c
  2436  00789A                     u2235:
  2437  00789A  E20F               	bc	u2251
  2438  00789C  EE01  F094         	lfsr	0,_MinMax+148
  2439  0078A0  CFEE F000          	movff	postinc0,btemp
  2440  0078A4  CFED F001          	movff	postdec0,btemp+1
  2441  0078A8  C2D8  F002         	movff	_DtKNF+42,btemp+2
  2442  0078AC  6A03               	clrf	btemp+3,c
  2443  0078AE  5001               	movf	btemp+1,w,c
  2444  0078B0  5C03               	subwf	btemp+3,w,c
  2445  0078B2  E102               	bnz	u2245
  2446  0078B4  5000               	movf	btemp,w,c
  2447  0078B6  5C02               	subwf	btemp+2,w,c
  2448  0078B8                     u2245:
  2449  0078B8  E316               	bnc	u2280
  2450  0078BA                     u2251:
  2451  0078BA  C2D8  F000         	movff	_DtKNF+42,btemp
  2452  0078BE  6A01               	clrf	btemp+1,c
  2453  0078C0  C193  FFE8         	movff	_MinMax+147,wreg
  2454  0078C4  1801               	xorwf	btemp+1,w,c
  2455  0078C6  E103               	bnz	u2265
  2456  0078C8  C192  FFE8         	movff	_MinMax+146,wreg
  2457  0078CC  1800               	xorwf	btemp,w,c
  2458  0078CE                     u2265:
  2459  0078CE  E00B               	bz	u2280
  2460  0078D0  C2D8  F000         	movff	_DtKNF+42,btemp
  2461  0078D4  6A01               	clrf	btemp+1,c
  2462  0078D6  C195  FFE8         	movff	_MinMax+149,wreg
  2463  0078DA  1801               	xorwf	btemp+1,w,c
  2464  0078DC  E103               	bnz	u2285
  2465  0078DE  C194  FFE8         	movff	_MinMax+148,wreg
  2466  0078E2  1800               	xorwf	btemp,w,c
  2467  0078E4                     u2285:
  2468  0078E4  E118               	bnz	l131
  2469  0078E6                     u2280:
  2470                           ;konfig.c: 407: {
  2471  0078E6  0EDF               	movlw	223
  2472  0078E8  0100               	movlb	__Lparam shr (0+8)
  2473  0078EA  6FB7               	movwf	?_eeprom_read^(__Lparam& (0+65280)),b
  2474  0078EC  6BB8               	clrf	(?_eeprom_read+1)^(__Lparam& (0+65280)),b
  2475  0078EE  EC2F  F007         	call	_eeprom_read	;wreg free
  2476  0078F2  6E00               	movwf	btemp,c
  2477  0078F4  C000  F002         	movff	btemp,btemp+2
  2478  0078F8  6A03               	clrf	btemp+3,c
  2479  0078FA  C2D8  FFE8         	movff	_DtKNF+42,wreg
  2480  0078FE  1802               	xorwf	btemp+2,w,c
  2481  007900  E101               	bnz	u2305
  2482  007902  5203               	movf	btemp+3,f,c
  2483  007904                     u2305:
  2484  007904  E008               	bz	l131
  2485  007906  0EDF               	movlw	223
  2486  007908  0100               	movlb	__Lparam shr (0+8)
  2487  00790A  6FB7               	movwf	?_eeprom_write^(__Lparam& (0+65280)),b
  2488  00790C  6BB8               	clrf	(?_eeprom_write+1)^(__Lparam& (0+65280)),b
  2489  00790E  C2D8  F0B9         	movff	_DtKNF+42,?_eeprom_write+2
  2490  007912  EC5C  F006         	call	_eeprom_write	;wreg free
  2491  007916                     l131:
  2492                           ;konfig.c: 409: }
  2493  007916  C2D2  F002         	movff	_DtKNF+36,btemp+2
  2494  00791A  6A03               	clrf	btemp+3,c
  2495  00791C  EE01  F098         	lfsr	0,_MinMax+152
  2496  007920  CFEE F000          	movff	postinc0,btemp
  2497  007924  CFED F001          	movff	postdec0,btemp+1
  2498  007928  5003               	movf	btemp+3,w,c
  2499  00792A  5C01               	subwf	btemp+1,w,c
  2500  00792C  E102               	bnz	u2315
  2501  00792E  5002               	movf	btemp+2,w,c
  2502  007930  5C00               	subwf	btemp,w,c
  2503  007932                     u2315:
  2504  007932  E20F               	bc	u2331
  2505  007934  EE01  F09A         	lfsr	0,_MinMax+154
  2506  007938  CFEE F000          	movff	postinc0,btemp
  2507  00793C  CFED F001          	movff	postdec0,btemp+1
  2508  007940  C2D2  F002         	movff	_DtKNF+36,btemp+2
  2509  007944  6A03               	clrf	btemp+3,c
  2510  007946  5001               	movf	btemp+1,w,c
  2511  007948  5C03               	subwf	btemp+3,w,c
  2512  00794A  E102               	bnz	u2325
  2513  00794C  5000               	movf	btemp,w,c
  2514  00794E  5C02               	subwf	btemp+2,w,c
  2515  007950                     u2325:
  2516  007950  E316               	bnc	u2360
  2517  007952                     u2331:
  2518  007952  C2D2  F000         	movff	_DtKNF+36,btemp
  2519  007956  6A01               	clrf	btemp+1,c
  2520  007958  C199  FFE8         	movff	_MinMax+153,wreg
  2521  00795C  1801               	xorwf	btemp+1,w,c
  2522  00795E  E103               	bnz	u2345
  2523  007960  C198  FFE8         	movff	_MinMax+152,wreg
  2524  007964  1800               	xorwf	btemp,w,c
  2525  007966                     u2345:
  2526  007966  E00B               	bz	u2360
  2527  007968  C2D2  F000         	movff	_DtKNF+36,btemp
  2528  00796C  6A01               	clrf	btemp+1,c
  2529  00796E  C19B  FFE8         	movff	_MinMax+155,wreg
  2530  007972  1801               	xorwf	btemp+1,w,c
  2531  007974  E103               	bnz	u2365
  2532  007976  C19A  FFE8         	movff	_MinMax+154,wreg
  2533  00797A  1800               	xorwf	btemp,w,c
  2534  00797C                     u2365:
  2535  00797C  E11A               	bnz	l133
  2536  00797E                     u2360:
  2537                           ;konfig.c: 412: {
  2538  00797E  0100               	movlb	__Lparam shr (0+8)
  2539  007980  0EC0               	movlw	192
  2540  007982  6FB7               	movwf	?_eeprom_read^(__Lparam& (0+65280)),b
  2541  007984  0E01               	movlw	1
  2542  007986  6FB8               	movwf	(?_eeprom_read+1)^(__Lparam& (0+65280)),b
  2543  007988  EC2F  F007         	call	_eeprom_read	;wreg free
  2544  00798C  6E00               	movwf	btemp,c
  2545  00798E  C000  F002         	movff	btemp,btemp+2
  2546  007992  6A03               	clrf	btemp+3,c
  2547  007994  C2D2  FFE8         	movff	_DtKNF+36,wreg
  2548  007998  1802               	xorwf	btemp+2,w,c
  2549  00799A  E101               	bnz	u2385
  2550  00799C  5203               	movf	btemp+3,f,c
  2551  00799E                     u2385:
  2552  00799E  E009               	bz	l133
  2553  0079A0  0100               	movlb	__Lparam shr (0+8)
  2554  0079A2  0EC0               	movlw	192
  2555  0079A4  6FB7               	movwf	?_eeprom_write^(__Lparam& (0+65280)),b
  2556  0079A6  0E01               	movlw	1
  2557  0079A8  6FB8               	movwf	(?_eeprom_write+1)^(__Lparam& (0+65280)),
      +                          b
  2558  0079AA  C2D2  F0B9         	movff	_DtKNF+36,?_eeprom_write+2
  2559  0079AE  EC5C  F006         	call	_eeprom_write	;wreg free
  2560  0079B2                     l133:
  2561                           ;konfig.c: 414: }
  2562  0079B2  C2D3  F002         	movff	_DtKNF+37,btemp+2
  2563  0079B6  6A03               	clrf	btemp+3,c
  2564  0079B8  EE01  F09E         	lfsr	0,_MinMax+158
  2565  0079BC  CFEE F000          	movff	postinc0,btemp
  2566  0079C0  CFED F001          	movff	postdec0,btemp+1
  2567  0079C4  5003               	movf	btemp+3,w,c
  2568  0079C6  5C01               	subwf	btemp+1,w,c
  2569  0079C8  E102               	bnz	u2395
  2570  0079CA  5002               	movf	btemp+2,w,c
  2571  0079CC  5C00               	subwf	btemp,w,c
  2572  0079CE                     u2395:
  2573  0079CE  E20F               	bc	u2411
  2574  0079D0  EE01  F0A0         	lfsr	0,_MinMax+160
  2575  0079D4  CFEE F000          	movff	postinc0,btemp
  2576  0079D8  CFED F001          	movff	postdec0,btemp+1
  2577  0079DC  C2D3  F002         	movff	_DtKNF+37,btemp+2
  2578  0079E0  6A03               	clrf	btemp+3,c
  2579  0079E2  5001               	movf	btemp+1,w,c
  2580  0079E4  5C03               	subwf	btemp+3,w,c
  2581  0079E6  E102               	bnz	u2405
  2582  0079E8  5000               	movf	btemp,w,c
  2583  0079EA  5C02               	subwf	btemp+2,w,c
  2584  0079EC                     u2405:
  2585  0079EC  E316               	bnc	u2440
  2586  0079EE                     u2411:
  2587  0079EE  C2D3  F000         	movff	_DtKNF+37,btemp
  2588  0079F2  6A01               	clrf	btemp+1,c
  2589  0079F4  C19F  FFE8         	movff	_MinMax+159,wreg
  2590  0079F8  1801               	xorwf	btemp+1,w,c
  2591  0079FA  E103               	bnz	u2425
  2592  0079FC  C19E  FFE8         	movff	_MinMax+158,wreg
  2593  007A00  1800               	xorwf	btemp,w,c
  2594  007A02                     u2425:
  2595  007A02  E00B               	bz	u2440
  2596  007A04  C2D3  F000         	movff	_DtKNF+37,btemp
  2597  007A08  6A01               	clrf	btemp+1,c
  2598  007A0A  C1A1  FFE8         	movff	_MinMax+161,wreg
  2599  007A0E  1801               	xorwf	btemp+1,w,c
  2600  007A10  E103               	bnz	u2445
  2601  007A12  C1A0  FFE8         	movff	_MinMax+160,wreg
  2602  007A16  1800               	xorwf	btemp,w,c
  2603  007A18                     u2445:
  2604  007A18  E11A               	bnz	l135
  2605  007A1A                     u2440:
  2606                           ;konfig.c: 416: {
  2607  007A1A  0100               	movlb	__Lparam shr (0+8)
  2608  007A1C  0EC1               	movlw	193
  2609  007A1E  6FB7               	movwf	?_eeprom_read^(__Lparam& (0+65280)),b
  2610  007A20  0E01               	movlw	1
  2611  007A22  6FB8               	movwf	(?_eeprom_read+1)^(__Lparam& (0+65280)),b
  2612  007A24  EC2F  F007         	call	_eeprom_read	;wreg free
  2613  007A28  6E00               	movwf	btemp,c
  2614  007A2A  C000  F002         	movff	btemp,btemp+2
  2615  007A2E  6A03               	clrf	btemp+3,c
  2616  007A30  C2D3  FFE8         	movff	_DtKNF+37,wreg
  2617  007A34  1802               	xorwf	btemp+2,w,c
  2618  007A36  E101               	bnz	u2465
  2619  007A38  5203               	movf	btemp+3,f,c
  2620  007A3A                     u2465:
  2621  007A3A  E009               	bz	l135
  2622  007A3C  0100               	movlb	__Lparam shr (0+8)
  2623  007A3E  0EC1               	movlw	193
  2624  007A40  6FB7               	movwf	?_eeprom_write^(__Lparam& (0+65280)),b
  2625  007A42  0E01               	movlw	1
  2626  007A44  6FB8               	movwf	(?_eeprom_write+1)^(__Lparam& (0+65280)),
      +                          b
  2627  007A46  C2D3  F0B9         	movff	_DtKNF+37,?_eeprom_write+2
  2628  007A4A  EC5C  F006         	call	_eeprom_write	;wreg free
  2629  007A4E                     l135:
  2630                           ;konfig.c: 418: }
  2631  007A4E  C2D4  F002         	movff	_DtKNF+38,btemp+2
  2632  007A52  6A03               	clrf	btemp+3,c
  2633  007A54  EE01  F0A4         	lfsr	0,_MinMax+164
  2634  007A58  CFEE F000          	movff	postinc0,btemp
  2635  007A5C  CFED F001          	movff	postdec0,btemp+1
  2636  007A60  5003               	movf	btemp+3,w,c
  2637  007A62  5C01               	subwf	btemp+1,w,c
  2638  007A64  E102               	bnz	u2475
  2639  007A66  5002               	movf	btemp+2,w,c
  2640  007A68  5C00               	subwf	btemp,w,c
  2641  007A6A                     u2475:
  2642  007A6A  E20F               	bc	u2491
  2643  007A6C  EE01  F0A6         	lfsr	0,_MinMax+166
  2644  007A70  CFEE F000          	movff	postinc0,btemp
  2645  007A74  CFED F001          	movff	postdec0,btemp+1
  2646  007A78  C2D4  F002         	movff	_DtKNF+38,btemp+2
  2647  007A7C  6A03               	clrf	btemp+3,c
  2648  007A7E  5001               	movf	btemp+1,w,c
  2649  007A80  5C03               	subwf	btemp+3,w,c
  2650  007A82  E102               	bnz	u2485
  2651  007A84  5000               	movf	btemp,w,c
  2652  007A86  5C02               	subwf	btemp+2,w,c
  2653  007A88                     u2485:
  2654  007A88  E316               	bnc	u2520
  2655  007A8A                     u2491:
  2656  007A8A  C2D4  F000         	movff	_DtKNF+38,btemp
  2657  007A8E  6A01               	clrf	btemp+1,c
  2658  007A90  C1A5  FFE8         	movff	_MinMax+165,wreg
  2659  007A94  1801               	xorwf	btemp+1,w,c
  2660  007A96  E103               	bnz	u2505
  2661  007A98  C1A4  FFE8         	movff	_MinMax+164,wreg
  2662  007A9C  1800               	xorwf	btemp,w,c
  2663  007A9E                     u2505:
  2664  007A9E  E00B               	bz	u2520
  2665  007AA0  C2D4  F000         	movff	_DtKNF+38,btemp
  2666  007AA4  6A01               	clrf	btemp+1,c
  2667  007AA6  C1A7  FFE8         	movff	_MinMax+167,wreg
  2668  007AAA  1801               	xorwf	btemp+1,w,c
  2669  007AAC  E103               	bnz	u2525
  2670  007AAE  C1A6  FFE8         	movff	_MinMax+166,wreg
  2671  007AB2  1800               	xorwf	btemp,w,c
  2672  007AB4                     u2525:
  2673  007AB4  E11A               	bnz	l137
  2674  007AB6                     u2520:
  2675                           ;konfig.c: 420: {
  2676  007AB6  0100               	movlb	__Lparam shr (0+8)
  2677  007AB8  0EC2               	movlw	194
  2678  007ABA  6FB7               	movwf	?_eeprom_read^(__Lparam& (0+65280)),b
  2679  007ABC  0E01               	movlw	1
  2680  007ABE  6FB8               	movwf	(?_eeprom_read+1)^(__Lparam& (0+65280)),b
  2681  007AC0  EC2F  F007         	call	_eeprom_read	;wreg free
  2682  007AC4  6E00               	movwf	btemp,c
  2683  007AC6  C000  F002         	movff	btemp,btemp+2
  2684  007ACA  6A03               	clrf	btemp+3,c
  2685  007ACC  C2D4  FFE8         	movff	_DtKNF+38,wreg
  2686  007AD0  1802               	xorwf	btemp+2,w,c
  2687  007AD2  E101               	bnz	u2545
  2688  007AD4  5203               	movf	btemp+3,f,c
  2689  007AD6                     u2545:
  2690  007AD6  E009               	bz	l137
  2691  007AD8  0100               	movlb	__Lparam shr (0+8)
  2692  007ADA  0EC2               	movlw	194
  2693  007ADC  6FB7               	movwf	?_eeprom_write^(__Lparam& (0+65280)),b
  2694  007ADE  0E01               	movlw	1
  2695  007AE0  6FB8               	movwf	(?_eeprom_write+1)^(__Lparam& (0+65280)),
      +                          b
  2696  007AE2  C2D4  F0B9         	movff	_DtKNF+38,?_eeprom_write+2
  2697  007AE6  EC5C  F006         	call	_eeprom_write	;wreg free
  2698  007AEA                     l137:
  2699                           ;konfig.c: 422: }
  2700  007AEA  C2D5  F002         	movff	_DtKNF+39,btemp+2
  2701  007AEE  6A03               	clrf	btemp+3,c
  2702  007AF0  EE01  F0AA         	lfsr	0,_MinMax+170
  2703  007AF4  CFEE F000          	movff	postinc0,btemp
  2704  007AF8  CFED F001          	movff	postdec0,btemp+1
  2705  007AFC  5003               	movf	btemp+3,w,c
  2706  007AFE  5C01               	subwf	btemp+1,w,c
  2707  007B00  E102               	bnz	u2555
  2708  007B02  5002               	movf	btemp+2,w,c
  2709  007B04  5C00               	subwf	btemp,w,c
  2710  007B06                     u2555:
  2711  007B06  E20F               	bc	u2571
  2712  007B08  EE01  F0AC         	lfsr	0,_MinMax+172
  2713  007B0C  CFEE F000          	movff	postinc0,btemp
  2714  007B10  CFED F001          	movff	postdec0,btemp+1
  2715  007B14  C2D5  F002         	movff	_DtKNF+39,btemp+2
  2716  007B18  6A03               	clrf	btemp+3,c
  2717  007B1A  5001               	movf	btemp+1,w,c
  2718  007B1C  5C03               	subwf	btemp+3,w,c
  2719  007B1E  E102               	bnz	u2565
  2720  007B20  5000               	movf	btemp,w,c
  2721  007B22  5C02               	subwf	btemp+2,w,c
  2722  007B24                     u2565:
  2723  007B24  E316               	bnc	u2600
  2724  007B26                     u2571:
  2725  007B26  C2D5  F000         	movff	_DtKNF+39,btemp
  2726  007B2A  6A01               	clrf	btemp+1,c
  2727  007B2C  C1AB  FFE8         	movff	_MinMax+171,wreg
  2728  007B30  1801               	xorwf	btemp+1,w,c
  2729  007B32  E103               	bnz	u2585
  2730  007B34  C1AA  FFE8         	movff	_MinMax+170,wreg
  2731  007B38  1800               	xorwf	btemp,w,c
  2732  007B3A                     u2585:
  2733  007B3A  E00B               	bz	u2600
  2734  007B3C  C2D5  F000         	movff	_DtKNF+39,btemp
  2735  007B40  6A01               	clrf	btemp+1,c
  2736  007B42  C1AD  FFE8         	movff	_MinMax+173,wreg
  2737  007B46  1801               	xorwf	btemp+1,w,c
  2738  007B48  E103               	bnz	u2605
  2739  007B4A  C1AC  FFE8         	movff	_MinMax+172,wreg
  2740  007B4E  1800               	xorwf	btemp,w,c
  2741  007B50                     u2605:
  2742  007B50  E11A               	bnz	l139
  2743  007B52                     u2600:
  2744                           ;konfig.c: 424: {
  2745  007B52  0100               	movlb	__Lparam shr (0+8)
  2746  007B54  0EC3               	movlw	195
  2747  007B56  6FB7               	movwf	?_eeprom_read^(__Lparam& (0+65280)),b
  2748  007B58  0E01               	movlw	1
  2749  007B5A  6FB8               	movwf	(?_eeprom_read+1)^(__Lparam& (0+65280)),b
  2750  007B5C  EC2F  F007         	call	_eeprom_read	;wreg free
  2751  007B60  6E00               	movwf	btemp,c
  2752  007B62  C000  F002         	movff	btemp,btemp+2
  2753  007B66  6A03               	clrf	btemp+3,c
  2754  007B68  C2D5  FFE8         	movff	_DtKNF+39,wreg
  2755  007B6C  1802               	xorwf	btemp+2,w,c
  2756  007B6E  E101               	bnz	u2625
  2757  007B70  5203               	movf	btemp+3,f,c
  2758  007B72                     u2625:
  2759  007B72  E009               	bz	l139
  2760  007B74  0100               	movlb	__Lparam shr (0+8)
  2761  007B76  0EC3               	movlw	195
  2762  007B78  6FB7               	movwf	?_eeprom_write^(__Lparam& (0+65280)),b
  2763  007B7A  0E01               	movlw	1
  2764  007B7C  6FB8               	movwf	(?_eeprom_write+1)^(__Lparam& (0+65280)),
      +                          b
  2765  007B7E  C2D5  F0B9         	movff	_DtKNF+39,?_eeprom_write+2
  2766  007B82  EC5C  F006         	call	_eeprom_write	;wreg free
  2767  007B86                     l139:
  2768                           ;konfig.c: 426: }
  2769  007B86  C2D6  F002         	movff	_DtKNF+40,btemp+2
  2770  007B8A  6A03               	clrf	btemp+3,c
  2771  007B8C  EE01  F0B0         	lfsr	0,_MinMax+176
  2772  007B90  CFEE F000          	movff	postinc0,btemp
  2773  007B94  CFED F001          	movff	postdec0,btemp+1
  2774  007B98  5003               	movf	btemp+3,w,c
  2775  007B9A  5C01               	subwf	btemp+1,w,c
  2776  007B9C  E102               	bnz	u2635
  2777  007B9E  5002               	movf	btemp+2,w,c
  2778  007BA0  5C00               	subwf	btemp,w,c
  2779  007BA2                     u2635:
  2780  007BA2  E20F               	bc	u2651
  2781  007BA4  EE01  F0B2         	lfsr	0,_MinMax+178
  2782  007BA8  CFEE F000          	movff	postinc0,btemp
  2783  007BAC  CFED F001          	movff	postdec0,btemp+1
  2784  007BB0  C2D6  F002         	movff	_DtKNF+40,btemp+2
  2785  007BB4  6A03               	clrf	btemp+3,c
  2786  007BB6  5001               	movf	btemp+1,w,c
  2787  007BB8  5C03               	subwf	btemp+3,w,c
  2788  007BBA  E102               	bnz	u2645
  2789  007BBC  5000               	movf	btemp,w,c
  2790  007BBE  5C02               	subwf	btemp+2,w,c
  2791  007BC0                     u2645:
  2792  007BC0  E316               	bnc	u2680
  2793  007BC2                     u2651:
  2794  007BC2  C2D6  F000         	movff	_DtKNF+40,btemp
  2795  007BC6  6A01               	clrf	btemp+1,c
  2796  007BC8  C1B1  FFE8         	movff	_MinMax+177,wreg
  2797  007BCC  1801               	xorwf	btemp+1,w,c
  2798  007BCE  E103               	bnz	u2665
  2799  007BD0  C1B0  FFE8         	movff	_MinMax+176,wreg
  2800  007BD4  1800               	xorwf	btemp,w,c
  2801  007BD6                     u2665:
  2802  007BD6  E00B               	bz	u2680
  2803  007BD8  C2D6  F000         	movff	_DtKNF+40,btemp
  2804  007BDC  6A01               	clrf	btemp+1,c
  2805  007BDE  C1B3  FFE8         	movff	_MinMax+179,wreg
  2806  007BE2  1801               	xorwf	btemp+1,w,c
  2807  007BE4  E103               	bnz	u2685
  2808  007BE6  C1B2  FFE8         	movff	_MinMax+178,wreg
  2809  007BEA  1800               	xorwf	btemp,w,c
  2810  007BEC                     u2685:
  2811  007BEC  E11A               	bnz	l141
  2812  007BEE                     u2680:
  2813                           ;konfig.c: 428: {
  2814  007BEE  0100               	movlb	__Lparam shr (0+8)
  2815  007BF0  0EC5               	movlw	197
  2816  007BF2  6FB7               	movwf	?_eeprom_read^(__Lparam& (0+65280)),b
  2817  007BF4  0E01               	movlw	1
  2818  007BF6  6FB8               	movwf	(?_eeprom_read+1)^(__Lparam& (0+65280)),b
  2819  007BF8  EC2F  F007         	call	_eeprom_read	;wreg free
  2820  007BFC  6E00               	movwf	btemp,c
  2821  007BFE  C000  F002         	movff	btemp,btemp+2
  2822  007C02  6A03               	clrf	btemp+3,c
  2823  007C04  C2D6  FFE8         	movff	_DtKNF+40,wreg
  2824  007C08  1802               	xorwf	btemp+2,w,c
  2825  007C0A  E101               	bnz	u2705
  2826  007C0C  5203               	movf	btemp+3,f,c
  2827  007C0E                     u2705:
  2828  007C0E  E009               	bz	l141
  2829  007C10  0100               	movlb	__Lparam shr (0+8)
  2830  007C12  0EC5               	movlw	197
  2831  007C14  6FB7               	movwf	?_eeprom_write^(__Lparam& (0+65280)),b
  2832  007C16  0E01               	movlw	1
  2833  007C18  6FB8               	movwf	(?_eeprom_write+1)^(__Lparam& (0+65280)),
      +                          b
  2834  007C1A  C2D6  F0B9         	movff	_DtKNF+40,?_eeprom_write+2
  2835  007C1E  EC5C  F006         	call	_eeprom_write	;wreg free
  2836  007C22                     l141:
  2837                           ;konfig.c: 430: }
  2838  007C22  C2D7  F002         	movff	_DtKNF+41,btemp+2
  2839  007C26  6A03               	clrf	btemp+3,c
  2840  007C28  EE01  F0B6         	lfsr	0,_MinMax+182
  2841  007C2C  CFEE F000          	movff	postinc0,btemp
  2842  007C30  CFED F001          	movff	postdec0,btemp+1
  2843  007C34  5003               	movf	btemp+3,w,c
  2844  007C36  5C01               	subwf	btemp+1,w,c
  2845  007C38  E102               	bnz	u2715
  2846  007C3A  5002               	movf	btemp+2,w,c
  2847  007C3C  5C00               	subwf	btemp,w,c
  2848  007C3E                     u2715:
  2849  007C3E  E20F               	bc	u2731
  2850  007C40  EE01  F0B8         	lfsr	0,_MinMax+184
  2851  007C44  CFEE F000          	movff	postinc0,btemp
  2852  007C48  CFED F001          	movff	postdec0,btemp+1
  2853  007C4C  C2D7  F002         	movff	_DtKNF+41,btemp+2
  2854  007C50  6A03               	clrf	btemp+3,c
  2855  007C52  5001               	movf	btemp+1,w,c
  2856  007C54  5C03               	subwf	btemp+3,w,c
  2857  007C56  E102               	bnz	u2725
  2858  007C58  5000               	movf	btemp,w,c
  2859  007C5A  5C02               	subwf	btemp+2,w,c
  2860  007C5C                     u2725:
  2861  007C5C  E316               	bnc	u2760
  2862  007C5E                     u2731:
  2863  007C5E  C2D7  F000         	movff	_DtKNF+41,btemp
  2864  007C62  6A01               	clrf	btemp+1,c
  2865  007C64  C1B7  FFE8         	movff	_MinMax+183,wreg
  2866  007C68  1801               	xorwf	btemp+1,w,c
  2867  007C6A  E103               	bnz	u2745
  2868  007C6C  C1B6  FFE8         	movff	_MinMax+182,wreg
  2869  007C70  1800               	xorwf	btemp,w,c
  2870  007C72                     u2745:
  2871  007C72  E00B               	bz	u2760
  2872  007C74  C2D7  F000         	movff	_DtKNF+41,btemp
  2873  007C78  6A01               	clrf	btemp+1,c
  2874  007C7A  C1B9  FFE8         	movff	_MinMax+185,wreg
  2875  007C7E  1801               	xorwf	btemp+1,w,c
  2876  007C80  E103               	bnz	u2765
  2877  007C82  C1B8  FFE8         	movff	_MinMax+184,wreg
  2878  007C86  1800               	xorwf	btemp,w,c
  2879  007C88                     u2765:
  2880  007C88  E11A               	bnz	l143
  2881  007C8A                     u2760:
  2882                           ;konfig.c: 432: {
  2883  007C8A  0100               	movlb	__Lparam shr (0+8)
  2884  007C8C  0EC4               	movlw	196
  2885  007C8E  6FB7               	movwf	?_eeprom_read^(__Lparam& (0+65280)),b
  2886  007C90  0E01               	movlw	1
  2887  007C92  6FB8               	movwf	(?_eeprom_read+1)^(__Lparam& (0+65280)),b
  2888  007C94  EC2F  F007         	call	_eeprom_read	;wreg free
  2889  007C98  6E00               	movwf	btemp,c
  2890  007C9A  C000  F002         	movff	btemp,btemp+2
  2891  007C9E  6A03               	clrf	btemp+3,c
  2892  007CA0  C2D7  FFE8         	movff	_DtKNF+41,wreg
  2893  007CA4  1802               	xorwf	btemp+2,w,c
  2894  007CA6  E101               	bnz	u2785
  2895  007CA8  5203               	movf	btemp+3,f,c
  2896  007CAA                     u2785:
  2897  007CAA  E009               	bz	l143
  2898  007CAC  0100               	movlb	__Lparam shr (0+8)
  2899  007CAE  0EC4               	movlw	196
  2900  007CB0  6FB7               	movwf	?_eeprom_write^(__Lparam& (0+65280)),b
  2901  007CB2  0E01               	movlw	1
  2902  007CB4  6FB8               	movwf	(?_eeprom_write+1)^(__Lparam& (0+65280)),
      +                          b
  2903  007CB6  C2D7  F0B9         	movff	_DtKNF+41,?_eeprom_write+2
  2904  007CBA  EC5C  F006         	call	_eeprom_write	;wreg free
  2905  007CBE                     l143:
  2906                           ;konfig.c: 434: }
  2907  007CBE  0103               	movlb	(_RSDT1+1) shr (0+8)
  2908  007CC0  972E               	bcf	(_RSDT1+1)& (0+255),3,b
  2909                           ;konfig.c: 436: RSDT1.RD_KNF=0;
  2910  007CC2  932E               	bcf	(_RSDT1+1)& (0+255),1,b
  2911                           ;konfig.c: 437: return 1;
  2912  007CC4  0C01               	retlw	1
  2913  007CC6                     l77:
  2914                           ;konfig.c: 438: }
  2915  007CC6  0C00               	retlw	0
  2916                           ;konfig.c: 440: }
  2917  007CC8                     __end_of_SaveKnfPar:
  2918                           ;konfig.c: 442: void SetMinMaxPCO(void)
  2919                           ;konfig.c: 443: {
  2920  007CC8                     _SetMinMaxPCO:
  2921  000000                     
  2922                           ;konfig.c: 444: volatile unsigned char kn;
  2923  007CC8  EE02  F0C8         	lfsr	0,_DtKNF+26
  2924  007CCC  50EF               	movf	indf0,w,c
  2925  007CCE  E119               	bnz	l146
  2926                           ;konfig.c: 447: {
  2927  007CD0  0E28               	movlw	40
  2928  007CD2  CFE8 F083          	movff	wreg,_DtCO+6
  2929                           ;konfig.c: 449: kn=DtKNF.pgmx;
  2930  007CD6  C2D5  F0AD         	movff	_DtKNF+39,?a_SetMinMaxPCO	;volatile
  2931                           ;konfig.c: 450: if(kn<40) kn=40;
  2932  007CDA  0100               	movlb	__Lparam shr (0+8)
  2933  007CDC  61AD               	cpfslt	?a_SetMinMaxPCO^(__Lparam& (0+65280)),b	
      +                          ;volatile
  2934  007CDE  D001               	goto	l147
  2935  007CE0  6FAD               	movwf	?a_SetMinMaxPCO^(__Lparam& (0+65280)),b	;
      +                          volatile
  2936  007CE2                     l147:
  2937                           ;konfig.c: 451: if(kn>80) kn=80;
  2938  007CE2  0E50               	movlw	80
  2939  007CE4  0100               	movlb	__Lparam shr (0+8)
  2940  007CE6  65AD               	cpfsgt	?a_SetMinMaxPCO^(__Lparam& (0+65280)),b	
      +                          ;volatile
  2941  007CE8  D001               	goto	l148
  2942  007CEA  6FAD               	movwf	?a_SetMinMaxPCO^(__Lparam& (0+65280)),b	;
      +                          volatile
  2943  007CEC                     l148:
  2944                           ;konfig.c: 452: DtCO.maxPCO=kn;
  2945  007CEC  C0AD  F084         	movff	?a_SetMinMaxPCO,_DtCO+7	;volatile
  2946                           ;konfig.c: 453: if(DtCO.maxPCO<DtCO.minPCO) DtCO
      +                          .maxPCO=DtCO.minPCO;
  2947  007CF0  C083  FFE8         	movff	_DtCO+6,wreg
  2948  007CF4  0100               	movlb	(_DtCO+7) shr (0+8)
  2949  007CF6  6184               	cpfslt	(_DtCO+7)& (0+255),b
  2950  007CF8  D002               	goto	l149
  2951  007CFA  C083  F084         	movff	_DtCO+6,_DtCO+7
  2952  007CFE                     l149:
  2953                           ;konfig.c: 454: M.SETPmin=40;
  2954  007CFE  0E28               	movlw	40
  2955  007D00  D018               	goto	L1
  2956                           ;konfig.c: 455: }
  2957  007D02                     l146:
  2958                           ;konfig.c: 456: else
  2959  007D02  0E19               	movlw	25
  2960  007D04  CFE8 F083          	movff	wreg,_DtCO+6
  2961                           ;konfig.c: 459: kn=DtKNF.pgmx;
  2962  007D08  C2D5  F0AD         	movff	_DtKNF+39,?a_SetMinMaxPCO	;volatile
  2963                           ;konfig.c: 460: if(kn<25) kn=25;
  2964  007D0C  0100               	movlb	__Lparam shr (0+8)
  2965  007D0E  61AD               	cpfslt	?a_SetMinMaxPCO^(__Lparam& (0+65280)),b	
      +                          ;volatile
  2966  007D10  D001               	goto	l151
  2967  007D12  6FAD               	movwf	?a_SetMinMaxPCO^(__Lparam& (0+65280)),b	;
      +                          volatile
  2968  007D14                     l151:
  2969                           ;konfig.c: 461: if(kn>55) kn=55;
  2970  007D14  0E37               	movlw	55
  2971  007D16  0100               	movlb	__Lparam shr (0+8)
  2972  007D18  65AD               	cpfsgt	?a_SetMinMaxPCO^(__Lparam& (0+65280)),b	
      +                          ;volatile
  2973  007D1A  D001               	goto	l152
  2974  007D1C  6FAD               	movwf	?a_SetMinMaxPCO^(__Lparam& (0+65280)),b	;
      +                          volatile
  2975  007D1E                     l152:
  2976                           ;konfig.c: 462: DtCO.maxPCO=kn;
  2977  007D1E  C0AD  F084         	movff	?a_SetMinMaxPCO,_DtCO+7	;volatile
  2978                           ;konfig.c: 463: if(DtCO.maxPCO<DtCO.minPCO) DtCO
      +                          .maxPCO=DtCO.minPCO;
  2979  007D22  C083  FFE8         	movff	_DtCO+6,wreg
  2980  007D26  0100               	movlb	(_DtCO+7) shr (0+8)
  2981  007D28  6184               	cpfslt	(_DtCO+7)& (0+255),b
  2982  007D2A  D002               	goto	l153
  2983  007D2C  C083  F084         	movff	_DtCO+6,_DtCO+7
  2984  007D30                     l153:
  2985                           ;konfig.c: 464: M.SETPmin=25;
  2986  007D30  0E19               	movlw	25
  2987  007D32                     L1:
  2988  007D32  CFE8 F32A          	movff	wreg,_M+36
  2989                           ;konfig.c: 465: }
  2990  007D36  C083  F339         	movff	_DtCO+6,_RSDT1+12
  2991                           ;konfig.c: 467: RSDT1.outPCOmx=DtCO.maxPCO;
  2992  007D3A  C084  F33A         	movff	_DtCO+7,_RSDT1+13
  2993                           ;konfig.c: 468: RSDT1.outSETPmin=M.SETPmin;
  2994  007D3E  C32A  F34D         	movff	_M+36,_RSDT1+32
  2995                           ;konfig.c: 469: }
  2996  007D42  0012               	return	
  2997  007D44                     __end_of_SetMinMaxPCO:
  2998                           ;konfig.c: 471: void SetMinMaxPGD(void)
  2999                           ;konfig.c: 472: {
  3000  007D44                     _SetMinMaxPGD:
  3001  000000                     
  3002                           ;konfig.c: 473: DtCO.minPCO=0;
  3003  007D44  0100               	movlb	(_DtCO+6) shr (0+8)
  3004  007D46  6B83               	clrf	(_DtCO+6)& (0+255),b
  3005                           ;konfig.c: 474: DtCO.maxPCO=99;
  3006  007D48  0E63               	movlw	99
  3007  007D4A  CFE8 F084          	movff	wreg,_DtCO+7
  3008                           ;konfig.c: 475: if(!DtKNF.opdg)
  3009  007D4E  EE02  F0C8         	lfsr	0,_DtKNF+26
  3010  007D52  50EF               	movf	indf0,w,c
  3011  007D54  E102               	bnz	l155
  3012                           ;konfig.c: 476: {
  3013  007D56  0E28               	movlw	40
  3014  007D58  D001               	goto	L2
  3015                           ;konfig.c: 478: }
  3016  007D5A                     l155:
  3017                           ;konfig.c: 479: else
  3018  007D5A  0E19               	movlw	25
  3019  007D5C                     L2:
  3020  007D5C  CFE8 F32A          	movff	wreg,_M+36
  3021                           ;konfig.c: 482: }
  3022  007D60  C083  F339         	movff	_DtCO+6,_RSDT1+12
  3023                           ;konfig.c: 484: RSDT1.outPCOmx=DtCO.maxPCO;
  3024  007D64  C084  F33A         	movff	_DtCO+7,_RSDT1+13
  3025                           ;konfig.c: 485: RSDT1.outSETPmin=M.SETPmin;
  3026  007D68  C32A  F34D         	movff	_M+36,_RSDT1+32
  3027                           ;konfig.c: 486: }
  3028  007D6C  0012               	return	
  3029  007D6E                     __end_of_SetMinMaxPGD:
  3030                           ;konfig.c: 488: void ChkPCO(void)
  3031                           ;konfig.c: 489: {
  3032  007D6E                     _ChkPCO:
  3033  000000                     
  3034                           ;konfig.c: 490: if(DtCO.PCO<DtCO.minPCO) DtCO.PC
      +                          O=DtCO.minPCO;
  3035  007D6E  C083  FFE8         	movff	_DtCO+6,wreg
  3036  007D72  0100               	movlb	(_DtCO+4) shr (0+8)
  3037  007D74  6181               	cpfslt	(_DtCO+4)& (0+255),b
  3038  007D76  D002               	goto	l158
  3039  007D78  C083  F081         	movff	_DtCO+6,_DtCO+4
  3040  007D7C                     l158:
  3041                           ;konfig.c: 491: if(DtCO.PCO>DtCO.maxPCO) DtCO.PC
      +                          O=DtCO.maxPCO;
  3042  007D7C  C081  FFE8         	movff	_DtCO+4,wreg
  3043  007D80  0100               	movlb	(_DtCO+7) shr (0+8)
  3044  007D82  6184               	cpfslt	(_DtCO+7)& (0+255),b
  3045  007D84  D002               	goto	l159
  3046  007D86  C084  F081         	movff	_DtCO+7,_DtCO+4
  3047  007D8A                     l159:
  3048                           ;konfig.c: 492: if(DtCO.PCO!=eeprom_read(0x00C9)
      +                          ) eeprom_write(0x00C9,DtCO.PCO);
  3049  007D8A  0EC9               	movlw	201
  3050  007D8C  0100               	movlb	__Lparam shr (0+8)
  3051  007D8E  6FB7               	movwf	?_eeprom_read^(__Lparam& (0+65280)),b
  3052  007D90  6BB8               	clrf	(?_eeprom_read+1)^(__Lparam& (0+65280)),b
  3053  007D92  EC2F  F007         	call	_eeprom_read	;wreg free
  3054  007D96  6E00               	movwf	btemp,c
  3055  007D98  C000  F002         	movff	btemp,btemp+2
  3056  007D9C  6A03               	clrf	btemp+3,c
  3057  007D9E  C081  FFE8         	movff	_DtCO+4,wreg
  3058  007DA2  1802               	xorwf	btemp+2,w,c
  3059  007DA4  E001 D369          	bnz	u2895
  3060  007DA8  D367               	goto	L65
  3061                           ;konfig.c: 493: }
  3062  007DAA                     __end_of_ChkPCO:
  3063                           ;konfig.c: 495: void ChkPGD(void)
  3064                           ;konfig.c: 496: {
  3065  007DAA                     _ChkPGD:
  3066  000000                     
  3067                           ;konfig.c: 497: if(DtCO.PCO<DtCO.minPCO) DtCO.PC
      +                          O=DtCO.minPCO;
  3068  007DAA  C083  FFE8         	movff	_DtCO+6,wreg
  3069  007DAE  0100               	movlb	(_DtCO+4) shr (0+8)
  3070  007DB0  6181               	cpfslt	(_DtCO+4)& (0+255),b
  3071  007DB2  D002               	goto	l162
  3072  007DB4  C083  F081         	movff	_DtCO+6,_DtCO+4
  3073  007DB8                     l162:
  3074                           ;konfig.c: 498: if(DtCO.PCO>DtCO.maxPCO) DtCO.PC
      +                          O=DtCO.maxPCO;
  3075  007DB8  C081  FFE8         	movff	_DtCO+4,wreg
  3076  007DBC  0100               	movlb	(_DtCO+7) shr (0+8)
  3077  007DBE  6184               	cpfslt	(_DtCO+7)& (0+255),b
  3078  007DC0  D002               	goto	l163
  3079  007DC2  C084  F081         	movff	_DtCO+7,_DtCO+4
  3080  007DC6                     l163:
  3081                           ;konfig.c: 499: if(DtCO.PCO!=eeprom_read(0x01C6)
      +                          ) eeprom_write(0x01C6,DtCO.PCO);
  3082  007DC6  0100               	movlb	__Lparam shr (0+8)
  3083  007DC8  0EC6               	movlw	198
  3084  007DCA  6FB7               	movwf	?_eeprom_read^(__Lparam& (0+65280)),b
  3085  007DCC  0E01               	movlw	1
  3086  007DCE  6FB8               	movwf	(?_eeprom_read+1)^(__Lparam& (0+65280)),b
  3087  007DD0  EC2F  F007         	call	_eeprom_read	;wreg free
  3088  007DD4  6E00               	movwf	btemp,c
  3089  007DD6  C000  F002         	movff	btemp,btemp+2
  3090  007DDA  6A03               	clrf	btemp+3,c
  3091  007DDC  C081  FFE8         	movff	_DtCO+4,wreg
  3092  007DE0  1802               	xorwf	btemp+2,w,c
  3093  007DE2  E101               	bnz	u2925
  3094  007DE4  5203               	movf	btemp+3,f,c
  3095  007DE6                     u2925:
  3096  007DE6  D363               	goto	u3085
  3097                           ;konfig.c: 500: }
  3098  007DE8                     __end_of_ChkPGD:
  3099                           ;konfig.c: 503: void SetNSTCO(void)
  3100                           ;konfig.c: 504: {
  3101  007DE8                     _SetNSTCO:
  3102  000000                     
  3103                           ;konfig.c: 505: volatile unsigned char i;
  3104  007DE8  0100               	movlb	__Lparam shr (0+8)
  3105  007DEA  6BAC               	clrf	?a_SetNSTCO^(__Lparam& (0+65280)),b	;volat
      +                          ile
  3106                           ;konfig.c: 508: while(i<10)
  3107  007DEC  D005               	goto	l166
  3108  007DEE                     l167:
  3109                           ;konfig.c: 509: {
  3110  007DEE  0004               	clrwdt		;#
  3111                           ;konfig.c: 511: PomiarZW();
  3112  007DF0  ECD5  F04B         	call	_PomiarZW	;wreg free
  3113                           ;konfig.c: 512: i++;
  3114  007DF4  0100               	movlb	__Lparam shr (0+8)
  3115  007DF6  2BAC               	incf	?a_SetNSTCO^(__Lparam& (0+65280)),f,b	;vol
      +                          atile
  3116  007DF8                     l166:
  3117  007DF8  0E09               	movlw	9
  3118  007DFA  0100               	movlb	__Lparam shr (0+8)
  3119  007DFC  65AC               	cpfsgt	?a_SetNSTCO^(__Lparam& (0+65280)),b	;vol
      +                          atile
  3120  007DFE  D7F7               	goto	l167
  3121                           ;konfig.c: 513: }
  3122  007E00  0100               	movlb	_DtZW shr (0+8)
  3123  007E02  B163               	btfsc	_DtZW& (0+255),0,b
  3124  007E04  D00E               	goto	l169
  3125                           ;konfig.c: 515: {
  3126  007E06  0103               	movlb	(_M+3) shr (0+8)
  3127  007E08  9109               	bcf	(_M+3)& (0+255),0,b
  3128                           ;konfig.c: 517: DtCO.PCO=eeprom_read(0x00C9);
  3129  007E0A  0EC9               	movlw	201
  3130  007E0C  0100               	movlb	__Lparam shr (0+8)
  3131  007E0E  6FB7               	movwf	?_eeprom_read^(__Lparam& (0+65280)),b
  3132  007E10  6BB8               	clrf	(?_eeprom_read+1)^(__Lparam& (0+65280)),b
  3133  007E12  EC2F  F007         	call	_eeprom_read	;wreg free
  3134  007E16  CFE8 F081          	movff	wreg,_DtCO+4
  3135                           ;konfig.c: 519: SetMinMaxPCO();
  3136  007E1A  DF56               	call	_SetMinMaxPCO	;wreg free
  3137                           ;konfig.c: 520: ChkPCO();
  3138  007E1C  DFA8               	call	_ChkPCO	;wreg free
  3139                           ;konfig.c: 521: }
  3140  007E1E  EFB7  F04C         	goto	_SetModPCO
  3141  007E22                     l169:
  3142                           ;konfig.c: 522: else
  3143  007E22  0103               	movlb	(_M+3) shr (0+8)
  3144  007E24  8109               	bsf	(_M+3)& (0+255),0,b
  3145                           ;konfig.c: 525: DtCO.PCO=eeprom_read(0x01C6);
  3146  007E26  0100               	movlb	__Lparam shr (0+8)
  3147  007E28  0EC6               	movlw	198
  3148  007E2A  6FB7               	movwf	?_eeprom_read^(__Lparam& (0+65280)),b
  3149  007E2C  0E01               	movlw	1
  3150  007E2E  6FB8               	movwf	(?_eeprom_read+1)^(__Lparam& (0+65280)),b
  3151  007E30  EC2F  F007         	call	_eeprom_read	;wreg free
  3152  007E34  CFE8 F081          	movff	wreg,_DtCO+4
  3153                           ;konfig.c: 527: SetPrt(20,1);
  3154  007E38  0E01               	movlw	1
  3155  007E3A  0100               	movlb	__Lparam shr (0+8)
  3156  007E3C  6FAD               	movwf	?_SetPrt^(__Lparam& (0+65280)),b
  3157  007E3E  0E14               	movlw	20
  3158  007E40  EC2D  F07A         	call	_SetPrt
  3159                           ;konfig.c: 528: SetMinMaxPGD();
  3160  007E44  DF7F               	call	_SetMinMaxPGD	;wreg free
  3161                           ;konfig.c: 529: ChkPGD();
  3162  007E46  DFB1               	call	_ChkPGD	;wreg free
  3163                           ;konfig.c: 530: DtCO.PGDPCO=GetPGD_PCO();
  3164  007E48  EC58  F04D         	call	_GetPGD_PCO	;wreg free
  3165  007E4C  CFE8 F085          	movff	wreg,_DtCO+8
  3166                           ;konfig.c: 531: }
  3167  007E50  EFB7  F04C         	goto	_SetModPCO	;wreg free
  3168                           ;konfig.c: 534: }
  3169  007E54                     __end_of_SetNSTCO:
  3170                           ;konfig.c: 537: void RdEEParam(void)
  3171                           ;konfig.c: 538: {
  3172  007E54                     _RdEEParam:
  3173  000000                     
  3174                           ;konfig.c: 540: DtKNF.kodkt=eeprom_read(0x00C5);
  3175  007E54  0EC5               	movlw	197
  3176  007E56  0100               	movlb	__Lparam shr (0+8)
  3177  007E58  6FB7               	movwf	?_eeprom_read^(__Lparam& (0+65280)),b
  3178  007E5A  6BB8               	clrf	(?_eeprom_read+1)^(__Lparam& (0+65280)),b
  3179  007E5C  EC2F  F007         	call	_eeprom_read	;wreg free
  3180  007E60  CFE8 F2BB          	movff	wreg,_DtKNF+13
  3181                           ;konfig.c: 541: RSDT1.outKODKT=DtKNF.kodkt;
  3182  007E64  C2BB  F357         	movff	_DtKNF+13,_RSDT1+42
  3183                           ;konfig.c: 542: SetTpKtParam();
  3184  007E68  D99B               	call	_SetTpKtParam	;wreg free
  3185                           ;konfig.c: 544: DtKNF.mstr=eeprom_read(0x00C1);
  3186  007E6A  0EC1               	movlw	193
  3187  007E6C  0100               	movlb	__Lparam shr (0+8)
  3188  007E6E  6FB7               	movwf	?_eeprom_read^(__Lparam& (0+65280)),b
  3189  007E70  6BB8               	clrf	(?_eeprom_read+1)^(__Lparam& (0+65280)),b
  3190  007E72  EC2F  F007         	call	_eeprom_read	;wreg free
  3191  007E76  CFE8 F2B4          	movff	wreg,_DtKNF+6
  3192                           ;konfig.c: 545: DtKNF.dmstr=DtKNF.mstr;
  3193  007E7A  C2B4  F2B1         	movff	_DtKNF+6,_DtKNF+3
  3194                           ;konfig.c: 546: RSDT1.outMSTR=DtKNF.mstr;
  3195  007E7E  C2B4  F353         	movff	_DtKNF+6,_RSDT1+38
  3196                           ;konfig.c: 547: DtKNF.mxcw=eeprom_read(0x00C2);
  3197  007E82  0EC2               	movlw	194
  3198  007E84  0100               	movlb	__Lparam shr (0+8)
  3199  007E86  6FB7               	movwf	?_eeprom_read^(__Lparam& (0+65280)),b
  3200  007E88  6BB8               	clrf	(?_eeprom_read+1)^(__Lparam& (0+65280)),b
  3201  007E8A  EC2F  F007         	call	_eeprom_read	;wreg free
  3202  007E8E  CFE8 F2B5          	movff	wreg,_DtKNF+7
  3203                           ;konfig.c: 548: DtKNF.dmxcw=DtKNF.mxcw;
  3204  007E92  C2B5  F2B2         	movff	_DtKNF+7,_DtKNF+4
  3205                           ;konfig.c: 549: RSDT1.outMMAXU=DtKNF.mxcw;
  3206  007E96  C2B5  F354         	movff	_DtKNF+7,_RSDT1+39
  3207                           ;konfig.c: 550: DtKNF.mxco=eeprom_read(0x00C3);
  3208  007E9A  0EC3               	movlw	195
  3209  007E9C  0100               	movlb	__Lparam shr (0+8)
  3210  007E9E  6FB7               	movwf	?_eeprom_read^(__Lparam& (0+65280)),b
  3211  007EA0  6BB8               	clrf	(?_eeprom_read+1)^(__Lparam& (0+65280)),b
  3212  007EA2  EC2F  F007         	call	_eeprom_read	;wreg free
  3213  007EA6  CFE8 F2B6          	movff	wreg,_DtKNF+8
  3214                           ;konfig.c: 551: DtKNF.dmxco=DtKNF.mxco;
  3215  007EAA  C2B6  F2B3         	movff	_DtKNF+8,_DtKNF+5
  3216                           ;konfig.c: 552: DtKNF.def_mxco=DtKNF.mxco;
  3217  007EAE  C2B6  F2B7         	movff	_DtKNF+8,_DtKNF+9
  3218                           ;konfig.c: 553: RSDT1.outMMAXG=DtKNF.mxco;
  3219  007EB2  C2B6  F355         	movff	_DtKNF+8,_RSDT1+40
  3220                           ;konfig.c: 554: DtKNF.tmxco2=eeprom_read(0x00D5)
      +                          ;
  3221  007EB6  0ED5               	movlw	213
  3222  007EB8  0100               	movlb	__Lparam shr (0+8)
  3223  007EBA  6FB7               	movwf	?_eeprom_read^(__Lparam& (0+65280)),b
  3224  007EBC  6BB8               	clrf	(?_eeprom_read+1)^(__Lparam& (0+65280)),b
  3225  007EBE  EC2F  F007         	call	_eeprom_read	;wreg free
  3226  007EC2  CFE8 F2B9          	movff	wreg,_DtKNF+11
  3227                           ;konfig.c: 555: RSDT1.outTMMAXG2=DtKNF.tmxco2;
  3228  007EC6  C2B9  F362         	movff	_DtKNF+11,_RSDT1+53
  3229                           ;konfig.c: 556: DtKNF.mxco2=eeprom_read(0x00D6);
  3230  007ECA  0ED6               	movlw	214
  3231  007ECC  0100               	movlb	__Lparam shr (0+8)
  3232  007ECE  6FB7               	movwf	?_eeprom_read^(__Lparam& (0+65280)),b
  3233  007ED0  6BB8               	clrf	(?_eeprom_read+1)^(__Lparam& (0+65280)),b
  3234  007ED2  EC2F  F007         	call	_eeprom_read	;wreg free
  3235  007ED6  CFE8 F2B8          	movff	wreg,_DtKNF+10
  3236                           ;konfig.c: 557: RSDT1.outMMAXG2=DtKNF.mxco2;
  3237  007EDA  C2B8  F363         	movff	_DtKNF+10,_RSDT1+54
  3238                           ;konfig.c: 559: DtKNF.rfan=eeprom_read(0x00DD);
  3239  007EDE  0EDD               	movlw	221
  3240  007EE0  0100               	movlb	__Lparam shr (0+8)
  3241  007EE2  6FB7               	movwf	?_eeprom_read^(__Lparam& (0+65280)),b
  3242  007EE4  6BB8               	clrf	(?_eeprom_read+1)^(__Lparam& (0+65280)),b
  3243  007EE6  EC2F  F007         	call	_eeprom_read	;wreg free
  3244  007EEA  CFE8 F2D0          	movff	wreg,_DtKNF+34
  3245                           ;konfig.c: 560: RSDT1.outRFAN=DtKNF.rfan;
  3246  007EEE  C2D0  F36A         	movff	_DtKNF+34,_RSDT1+61
  3247                           ;konfig.c: 562: if(DtKNF.kodkt<3)
  3248  007EF2  0E03               	movlw	3
  3249  007EF4  0102               	movlb	(_DtKNF+13) shr (0+8)
  3250  007EF6  61BB               	cpfslt	(_DtKNF+13)& (0+255),b
  3251  007EF8  D010               	goto	l172
  3252                           ;konfig.c: 563: {
  3253  007EFA  0ECE               	movlw	206
  3254  007EFC  0100               	movlb	__Lparam shr (0+8)
  3255  007EFE  6FB7               	movwf	?_eeprom_read^(__Lparam& (0+65280)),b
  3256  007F00  6BB8               	clrf	(?_eeprom_read+1)^(__Lparam& (0+65280)),b
  3257  007F02  EC2F  F007         	call	_eeprom_read	;wreg free
  3258  007F06  CFE8 F2C5          	movff	wreg,_DtKNF+23
  3259                           ;konfig.c: 565: DtKNF.mmax=eeprom_read(0x00CF);
  3260  007F0A  0ECF               	movlw	207
  3261  007F0C  0100               	movlb	__Lparam shr (0+8)
  3262  007F0E  6FB7               	movwf	?_eeprom_read^(__Lparam& (0+65280)),b
  3263  007F10  6BB8               	clrf	(?_eeprom_read+1)^(__Lparam& (0+65280)),b
  3264  007F12  EC2F  F007         	call	_eeprom_read	;wreg free
  3265  007F16  CFE8 F2C6          	movff	wreg,_DtKNF+24
  3266  007F1A                     l172:
  3267                           ;konfig.c: 566: }
  3268  007F1A  C2C5  F35C         	movff	_DtKNF+23,_RSDT1+47
  3269                           ;konfig.c: 568: RSDT1.outMMAX=DtKNF.mmax;
  3270  007F1E  C2C6  F35D         	movff	_DtKNF+24,_RSDT1+48
  3271                           ;konfig.c: 569: ModParam();
  3272  007F22  EC65  F000         	call	_ModParam	;wreg free
  3273                           ;konfig.c: 571: DtKNF.robg=eeprom_read(0x00C8);
  3274  007F26  0EC8               	movlw	200
  3275  007F28  0100               	movlb	__Lparam shr (0+8)
  3276  007F2A  6FB7               	movwf	?_eeprom_read^(__Lparam& (0+65280)),b
  3277  007F2C  6BB8               	clrf	(?_eeprom_read+1)^(__Lparam& (0+65280)),b
  3278  007F2E  EC2F  F007         	call	_eeprom_read	;wreg free
  3279  007F32  CFE8 F2C3          	movff	wreg,_DtKNF+21
  3280                           ;konfig.c: 572: RSDT1.outWOBG=DtKNF.robg;
  3281  007F36  C2C3  F358         	movff	_DtKNF+21,_RSDT1+43
  3282                           ;konfig.c: 573: DtKNF.opdg=eeprom_read(0x00C4);
  3283  007F3A  0EC4               	movlw	196
  3284  007F3C  0100               	movlb	__Lparam shr (0+8)
  3285  007F3E  6FB7               	movwf	?_eeprom_read^(__Lparam& (0+65280)),b
  3286  007F40  6BB8               	clrf	(?_eeprom_read+1)^(__Lparam& (0+65280)),b
  3287  007F42  EC2F  F007         	call	_eeprom_read	;wreg free
  3288  007F46  CFE8 F2C8          	movff	wreg,_DtKNF+26
  3289                           ;konfig.c: 574: RSDT1.outOPDG=DtKNF.opdg;
  3290  007F4A  C2C8  F35A         	movff	_DtKNF+26,_RSDT1+45
  3291                           ;konfig.c: 575: DtKNF.tpcs=eeprom_read(0x00CD);
  3292  007F4E  0ECD               	movlw	205
  3293  007F50  0100               	movlb	__Lparam shr (0+8)
  3294  007F52  6FB7               	movwf	?_eeprom_read^(__Lparam& (0+65280)),b
  3295  007F54  6BB8               	clrf	(?_eeprom_read+1)^(__Lparam& (0+65280)),b
  3296  007F56  EC2F  F007         	call	_eeprom_read	;wreg free
  3297  007F5A  CFE8 F2C9          	movff	wreg,_DtKNF+27
  3298                           ;konfig.c: 576: RSDT1.outTPCS=DtKNF.tpcs;
  3299  007F5E  C2C9  F35B         	movff	_DtKNF+27,_RSDT1+46
  3300                           ;konfig.c: 577: DtKNF.aleg=eeprom_read(0x00C6);
  3301  007F62  0EC6               	movlw	198
  3302  007F64  0100               	movlb	__Lparam shr (0+8)
  3303  007F66  6FB7               	movwf	?_eeprom_read^(__Lparam& (0+65280)),b
  3304  007F68  6BB8               	clrf	(?_eeprom_read+1)^(__Lparam& (0+65280)),b
  3305  007F6A  EC2F  F007         	call	_eeprom_read	;wreg free
  3306  007F6E  CFE8 F2C7          	movff	wreg,_DtKNF+25
  3307                           ;konfig.c: 578: RSDT1.outWANL=DtKNF.aleg;
  3308  007F72  C2C7  F356         	movff	_DtKNF+25,_RSDT1+41
  3309                           ;konfig.c: 579: DtKNF.nokr=eeprom_read(0x00CC);
  3310  007F76  0ECC               	movlw	204
  3311  007F78  0100               	movlb	__Lparam shr (0+8)
  3312  007F7A  6FB7               	movwf	?_eeprom_read^(__Lparam& (0+65280)),b
  3313  007F7C  6BB8               	clrf	(?_eeprom_read+1)^(__Lparam& (0+65280)),b
  3314  007F7E  EC2F  F007         	call	_eeprom_read	;wreg free
  3315  007F82  CFE8 F2C4          	movff	wreg,_DtKNF+22
  3316                           ;konfig.c: 580: RSDT1.outNOKR=DtKNF.nokr;
  3317  007F86  C2C4  F359         	movff	_DtKNF+22,_RSDT1+44
  3318                           ;konfig.c: 582: PFN.poz=eeprom_read(0x00CB);
  3319  007F8A  0ECB               	movlw	203
  3320  007F8C  0100               	movlb	__Lparam shr (0+8)
  3321  007F8E  6FB7               	movwf	?_eeprom_read^(__Lparam& (0+65280)),b
  3322  007F90  6BB8               	clrf	(?_eeprom_read+1)^(__Lparam& (0+65280)),b
  3323  007F92  EC2F  F007         	call	_eeprom_read	;wreg free
  3324  007F96  6E00               	movwf	btemp,c
  3325  007F98  0100               	movlb	(_PFN+1) shr (0+8)
  3326  007F9A  C000  F068         	movff	btemp,_PFN+1
  3327  007F9E  6B69               	clrf	(_PFN+2)& (0+255),b
  3328                           ;konfig.c: 583: SetPFN();
  3329  007FA0  D9B2               	call	_SetPFN	;wreg free
  3330                           ;konfig.c: 588: DtKNF.wymCO=0;
  3331  007FA2  0102               	movlb	_DtKNF shr (0+8)
  3332  007FA4  93AE               	bcf	_DtKNF& (0+255),1,b
  3333                           ;konfig.c: 589: DtKNF.wymCW=0;
  3334  007FA6  95AE               	bcf	_DtKNF& (0+255),2,b
  3335                           ;konfig.c: 591: M.LICZNIK_ANL=eeprom_read(0x00C7
      +                          );
  3336  007FA8  0EC7               	movlw	199
  3337  007FAA  0100               	movlb	__Lparam shr (0+8)
  3338  007FAC  6FB7               	movwf	?_eeprom_read^(__Lparam& (0+65280)),b
  3339  007FAE  6BB8               	clrf	(?_eeprom_read+1)^(__Lparam& (0+65280)),b
  3340  007FB0  EC2F  F007         	call	_eeprom_read	;wreg free
  3341  007FB4  CFE8 F311          	movff	wreg,_M+11
  3342                           ;konfig.c: 592: if(M.LICZNIK_ANL)
  3343  007FB8  EE03  F011         	lfsr	0,_M+11
  3344  007FBC  50EF               	movf	indf0,w,c
  3345  007FBE  E011               	bz	l173
  3346                           ;konfig.c: 593: {
  3347  007FC0  EE02  F0C7         	lfsr	0,_DtKNF+25
  3348  007FC4  50EF               	movf	indf0,w,c
  3349  007FC6  E004               	bz	u2990
  3350  007FC8  EE02  F0BC         	lfsr	0,_DtKNF+14
  3351  007FCC  50EF               	movf	indf0,w,c
  3352  007FCE  E009               	bz	l173
  3353  007FD0                     u2990:
  3354                           ;konfig.c: 595: {
  3355  007FD0  0EC7               	movlw	199
  3356  007FD2  0100               	movlb	__Lparam shr (0+8)
  3357  007FD4  6FB7               	movwf	?_eeprom_write^(__Lparam& (0+65280)),b
  3358  007FD6  6BB8               	clrf	(?_eeprom_write+1)^(__Lparam& (0+65280)),b
  3359  007FD8  6BB9               	clrf	(?_eeprom_write+2)^(__Lparam& (0+65280)),b
  3360  007FDA  EC5C  F006         	call	_eeprom_write	;wreg free
  3361                           ;konfig.c: 597: M.LICZNIK_ANL=0;
  3362  007FDE  0103               	movlb	(_M+11) shr (0+8)
  3363  007FE0  6B11               	clrf	(_M+11)& (0+255),b
  3364  007FE2                     l173:
  3365                           ;konfig.c: 598: }
  3366  007FE2  0ED0               	movlw	208
  3367  007FE4  0100               	movlb	__Lparam shr (0+8)
  3368  007FE6  6FB7               	movwf	?_eeprom_read^(__Lparam& (0+65280)),b
  3369  007FE8  6BB8               	clrf	(?_eeprom_read+1)^(__Lparam& (0+65280)),b
  3370  007FEA  EC2F  F007         	call	_eeprom_read	;wreg free
  3371  007FEE  CFE8 F2BE          	movff	wreg,_DtKNF+16
  3372                           ;konfig.c: 602: RSDT1.outRDPM=DtKNF.rdpm;
  3373  007FF2  C2BE  F35E         	movff	_DtKNF+16,_RSDT1+49
  3374                           ;konfig.c: 603: DtKNF.dtpm=eeprom_read(0x00D1);
  3375  007FF6  0ED1               	movlw	209
  3376  007FF8  0100               	movlb	__Lparam shr (0+8)
  3377  007FFA  6FB7               	movwf	?_eeprom_read^(__Lparam& (0+65280)),b
  3378  007FFC  6BB8               	clrf	(?_eeprom_read+1)^(__Lparam& (0+65280)),b
  3379  007FFE  EC2F  F007         	call	_eeprom_read	;wreg free
  3380  008002  CFE8 F2BF          	movff	wreg,_DtKNF+17
  3381                           ;konfig.c: 604: RSDT1.outDTPM=DtKNF.dtpm;
  3382  008006  C2BF  F35F         	movff	_DtKNF+17,_RSDT1+50
  3383                           ;konfig.c: 605: DtKNF.mdpm=eeprom_read(0x00D2);
  3384  00800A  0ED2               	movlw	210
  3385  00800C  0100               	movlb	__Lparam shr (0+8)
  3386  00800E  6FB7               	movwf	?_eeprom_read^(__Lparam& (0+65280)),b
  3387  008010  6BB8               	clrf	(?_eeprom_read+1)^(__Lparam& (0+65280)),b
  3388  008012  EC2F  F007         	call	_eeprom_read	;wreg free
  3389  008016  CFE8 F2C0          	movff	wreg,_DtKNF+18
  3390                           ;konfig.c: 606: RSDT1.outMDPM=DtKNF.mdpm;
  3391  00801A  C2C0  F360         	movff	_DtKNF+18,_RSDT1+51
  3392                           ;konfig.c: 607: DtKNF.teco=eeprom_read(0x00D3);
  3393  00801E  0ED3               	movlw	211
  3394  008020  0100               	movlb	__Lparam shr (0+8)
  3395  008022  6FB7               	movwf	?_eeprom_read^(__Lparam& (0+65280)),b
  3396  008024  6BB8               	clrf	(?_eeprom_read+1)^(__Lparam& (0+65280)),b
  3397  008026  EC2F  F007         	call	_eeprom_read	;wreg free
  3398  00802A  CFE8 F2C1          	movff	wreg,_DtKNF+19
  3399                           ;konfig.c: 608: RSDT1.outTECO=DtKNF.teco;
  3400  00802E  C2C1  F361         	movff	_DtKNF+19,_RSDT1+52
  3401                           ;konfig.c: 610: DtIN.Eco=eeprom_read(0x00D4);
  3402  008032  0ED4               	movlw	212
  3403  008034  0100               	movlb	__Lparam shr (0+8)
  3404  008036  6FB7               	movwf	?_eeprom_read^(__Lparam& (0+65280)),b
  3405  008038  6BB8               	clrf	(?_eeprom_read+1)^(__Lparam& (0+65280)),b
  3406  00803A  EC2F  F007         	call	_eeprom_read	;wreg free
  3407  00803E  CFE8 F099          	movff	wreg,_DtIN+9
  3408                           ;konfig.c: 611: RSDT1.outECO=DtIN.Eco;
  3409  008042  C099  F341         	movff	_DtIN+9,_RSDT1+20
  3410                           ;konfig.c: 613: DtKNF.mgpm=eeprom_read(0x00D7);
  3411  008046  0ED7               	movlw	215
  3412  008048  0100               	movlb	__Lparam shr (0+8)
  3413  00804A  6FB7               	movwf	?_eeprom_read^(__Lparam& (0+65280)),b
  3414  00804C  6BB8               	clrf	(?_eeprom_read+1)^(__Lparam& (0+65280)),b
  3415  00804E  EC2F  F007         	call	_eeprom_read	;wreg free
  3416  008052  CFE8 F2CA          	movff	wreg,_DtKNF+28
  3417                           ;konfig.c: 614: RSDT1.outMGPM=DtKNF.mgpm;
  3418  008056  C2CA  F364         	movff	_DtKNF+28,_RSDT1+55
  3419                           ;konfig.c: 615: DtKNF.mgpm2=eeprom_read(0x00D9);
  3420  00805A  0ED9               	movlw	217
  3421  00805C  0100               	movlb	__Lparam shr (0+8)
  3422  00805E  6FB7               	movwf	?_eeprom_read^(__Lparam& (0+65280)),b
  3423  008060  6BB8               	clrf	(?_eeprom_read+1)^(__Lparam& (0+65280)),b
  3424  008062  EC2F  F007         	call	_eeprom_read	;wreg free
  3425  008066  CFE8 F2CB          	movff	wreg,_DtKNF+29
  3426                           ;konfig.c: 616: RSDT1.outMGPM2=DtKNF.mgpm2;
  3427  00806A  C2CB  F365         	movff	_DtKNF+29,_RSDT1+56
  3428                           ;konfig.c: 617: DtKNF.hsco=eeprom_read(0x00DA);
  3429  00806E  0EDA               	movlw	218
  3430  008070  0100               	movlb	__Lparam shr (0+8)
  3431  008072  6FB7               	movwf	?_eeprom_read^(__Lparam& (0+65280)),b
  3432  008074  6BB8               	clrf	(?_eeprom_read+1)^(__Lparam& (0+65280)),b
  3433  008076  EC2F  F007         	call	_eeprom_read	;wreg free
  3434  00807A  CFE8 F2CD          	movff	wreg,_DtKNF+31
  3435                           ;konfig.c: 618: RSDT1.outHSCO=DtKNF.hsco;
  3436  00807E  C2CD  F367         	movff	_DtKNF+31,_RSDT1+58
  3437                           ;konfig.c: 619: DtKNF.conw=eeprom_read(0x00DB);
  3438  008082  0EDB               	movlw	219
  3439  008084  0100               	movlb	__Lparam shr (0+8)
  3440  008086  6FB7               	movwf	?_eeprom_read^(__Lparam& (0+65280)),b
  3441  008088  6BB8               	clrf	(?_eeprom_read+1)^(__Lparam& (0+65280)),b
  3442  00808A  EC2F  F007         	call	_eeprom_read	;wreg free
  3443  00808E  CFE8 F2CE          	movff	wreg,_DtKNF+32
  3444                           ;konfig.c: 620: RSDT1.outCONW=DtKNF.conw;
  3445  008092  C2CE  F368         	movff	_DtKNF+32,_RSDT1+59
  3446                           ;konfig.c: 621: DtKNF.prop=eeprom_read(0x00DC);
  3447  008096  0EDC               	movlw	220
  3448  008098  0100               	movlb	__Lparam shr (0+8)
  3449  00809A  6FB7               	movwf	?_eeprom_read^(__Lparam& (0+65280)),b
  3450  00809C  6BB8               	clrf	(?_eeprom_read+1)^(__Lparam& (0+65280)),b
  3451  00809E  EC2F  F007         	call	_eeprom_read	;wreg free
  3452  0080A2  CFE8 F2CF          	movff	wreg,_DtKNF+33
  3453                           ;konfig.c: 622: RSDT1.outPROP=DtKNF.prop;
  3454  0080A6  C2CF  F369         	movff	_DtKNF+33,_RSDT1+60
  3455                           ;konfig.c: 623: DtKNF.tstr=eeprom_read(0x00DE);
  3456  0080AA  0EDE               	movlw	222
  3457  0080AC  0100               	movlb	__Lparam shr (0+8)
  3458  0080AE  6FB7               	movwf	?_eeprom_read^(__Lparam& (0+65280)),b
  3459  0080B0  6BB8               	clrf	(?_eeprom_read+1)^(__Lparam& (0+65280)),b
  3460  0080B2  EC2F  F007         	call	_eeprom_read	;wreg free
  3461  0080B6  CFE8 F2D1          	movff	wreg,_DtKNF+35
  3462                           ;konfig.c: 624: RSDT1.outTSTR=DtKNF.tstr;
  3463  0080BA  C2D1  F36B         	movff	_DtKNF+35,_RSDT1+62
  3464                           ;konfig.c: 625: DtKNF.tL3=eeprom_read(0x00DF);
  3465  0080BE  0EDF               	movlw	223
  3466  0080C0  0100               	movlb	__Lparam shr (0+8)
  3467  0080C2  6FB7               	movwf	?_eeprom_read^(__Lparam& (0+65280)),b
  3468  0080C4  6BB8               	clrf	(?_eeprom_read+1)^(__Lparam& (0+65280)),b
  3469  0080C6  EC2F  F007         	call	_eeprom_read	;wreg free
  3470  0080CA  CFE8 F2D8          	movff	wreg,_DtKNF+42
  3471                           ;konfig.c: 626: RSDT1.outTL3=DtKNF.tL3;
  3472  0080CE  C2D8  F36C         	movff	_DtKNF+42,_RSDT1+63
  3473                           ;konfig.c: 628: DtKNF.pgdr=eeprom_read(0x01C0);
  3474  0080D2  0100               	movlb	__Lparam shr (0+8)
  3475  0080D4  0EC0               	movlw	192
  3476  0080D6  6FB7               	movwf	?_eeprom_read^(__Lparam& (0+65280)),b
  3477  0080D8  0E01               	movlw	1
  3478  0080DA  6FB8               	movwf	(?_eeprom_read+1)^(__Lparam& (0+65280)),b
  3479  0080DC  EC2F  F007         	call	_eeprom_read	;wreg free
  3480  0080E0  CFE8 F2D2          	movff	wreg,_DtKNF+36
  3481                           ;konfig.c: 629: RSDT1.outPGDR=DtKNF.pgdr;
  3482  0080E4  C2D2  F36D         	movff	_DtKNF+36,_RSDT1+64
  3483                           ;konfig.c: 630: DtKNF.pgdg=eeprom_read(0x01C1);
  3484  0080E8  0100               	movlb	__Lparam shr (0+8)
  3485  0080EA  0EC1               	movlw	193
  3486  0080EC  6FB7               	movwf	?_eeprom_read^(__Lparam& (0+65280)),b
  3487  0080EE  0E01               	movlw	1
  3488  0080F0  6FB8               	movwf	(?_eeprom_read+1)^(__Lparam& (0+65280)),b
  3489  0080F2  EC2F  F007         	call	_eeprom_read	;wreg free
  3490  0080F6  CFE8 F2D3          	movff	wreg,_DtKNF+37
  3491                           ;konfig.c: 631: RSDT1.outPGDG=DtKNF.pgdg;
  3492  0080FA  C2D3  F36E         	movff	_DtKNF+37,_RSDT1+65
  3493                           ;konfig.c: 632: DtKNF.pgdo=eeprom_read(0x01C2);
  3494  0080FE  0100               	movlb	__Lparam shr (0+8)
  3495  008100  0EC2               	movlw	194
  3496  008102  6FB7               	movwf	?_eeprom_read^(__Lparam& (0+65280)),b
  3497  008104  0E01               	movlw	1
  3498  008106  6FB8               	movwf	(?_eeprom_read+1)^(__Lparam& (0+65280)),b
  3499  008108  EC2F  F007         	call	_eeprom_read	;wreg free
  3500  00810C  CFE8 F2D4          	movff	wreg,_DtKNF+38
  3501                           ;konfig.c: 633: RSDT1.outPGDO=DtKNF.pgdo;
  3502  008110  C2D4  F36F         	movff	_DtKNF+38,_RSDT1+66
  3503                           ;konfig.c: 634: DtKNF.pgmx=eeprom_read(0x01C3);
  3504  008114  0100               	movlb	__Lparam shr (0+8)
  3505  008116  0EC3               	movlw	195
  3506  008118  6FB7               	movwf	?_eeprom_read^(__Lparam& (0+65280)),b
  3507  00811A  0E01               	movlw	1
  3508  00811C  6FB8               	movwf	(?_eeprom_read+1)^(__Lparam& (0+65280)),b
  3509  00811E  EC2F  F007         	call	_eeprom_read	;wreg free
  3510  008122  CFE8 F2D5          	movff	wreg,_DtKNF+39
  3511                           ;konfig.c: 635: RSDT1.outPGMX=DtKNF.pgmx;
  3512  008126  C2D5  F370         	movff	_DtKNF+39,_RSDT1+67
  3513                           ;konfig.c: 637: DtKNF.cwmg=eeprom_read(0x01C5);
  3514  00812A  0100               	movlb	__Lparam shr (0+8)
  3515  00812C  0EC5               	movlw	197
  3516  00812E  6FB7               	movwf	?_eeprom_read^(__Lparam& (0+65280)),b
  3517  008130  0E01               	movlw	1
  3518  008132  6FB8               	movwf	(?_eeprom_read+1)^(__Lparam& (0+65280)),b
  3519  008134  EC2F  F007         	call	_eeprom_read	;wreg free
  3520  008138  CFE8 F2D6          	movff	wreg,_DtKNF+40
  3521                           ;konfig.c: 638: RSDT1.outCWMG=DtKNF.cwmg;
  3522  00813C  C2D6  F371         	movff	_DtKNF+40,_RSDT1+68
  3523                           ;konfig.c: 639: DtKNF.cwtm=eeprom_read(0x01C4);
  3524  008140  0100               	movlb	__Lparam shr (0+8)
  3525  008142  0EC4               	movlw	196
  3526  008144  6FB7               	movwf	?_eeprom_read^(__Lparam& (0+65280)),b
  3527  008146  0E01               	movlw	1
  3528  008148  6FB8               	movwf	(?_eeprom_read+1)^(__Lparam& (0+65280)),b
  3529  00814A  EC2F  F007         	call	_eeprom_read	;wreg free
  3530  00814E  CFE8 F2D7          	movff	wreg,_DtKNF+41
  3531                           ;konfig.c: 640: RSDT1.outCWTM=DtKNF.cwtm;
  3532  008152  C2D7  F372         	movff	_DtKNF+41,_RSDT1+69
  3533                           ;konfig.c: 643: DtKNF.alin=eeprom_read(0x00D8);
  3534  008156  0ED8               	movlw	216
  3535  008158  0100               	movlb	__Lparam shr (0+8)
  3536  00815A  6FB7               	movwf	?_eeprom_read^(__Lparam& (0+65280)),b
  3537  00815C  6BB8               	clrf	(?_eeprom_read+1)^(__Lparam& (0+65280)),b
  3538  00815E  EC2F  F007         	call	_eeprom_read	;wreg free
  3539  008162  CFE8 F2CC          	movff	wreg,_DtKNF+30
  3540                           ;konfig.c: 644: if((DtKNF.alin<1)||(DtKNF.alin>5
      +                          )) DtKNF.alin=5;
  3541  008166  0E01               	movlw	1
  3542  008168  0102               	movlb	(_DtKNF+30) shr (0+8)
  3543  00816A  61CC               	cpfslt	(_DtKNF+30)& (0+255),b
  3544  00816C  D001               	goto	u3001
  3545  00816E  D003               	goto	u3020
  3546  008170                     u3001:
  3547  008170  0E05               	movlw	5
  3548  008172  65CC               	cpfsgt	(_DtKNF+30)& (0+255),b
  3549  008174  D003               	goto	l175
  3550  008176                     u3020:
  3551  008176  0E05               	movlw	5
  3552  008178  CFE8 F2CC          	movff	wreg,_DtKNF+30
  3553  00817C                     l175:
  3554                           ;konfig.c: 648: RSDT1.outALIN=DtKNF.alin;
  3555  00817C  C2CC  F366         	movff	_DtKNF+30,_RSDT1+57
  3556                           ;konfig.c: 650: DtCW.PCW=eeprom_read(0x00CA);
  3557  008180  0ECA               	movlw	202
  3558  008182  0100               	movlb	__Lparam shr (0+8)
  3559  008184  6FB7               	movwf	?_eeprom_read^(__Lparam& (0+65280)),b
  3560  008186  6BB8               	clrf	(?_eeprom_read+1)^(__Lparam& (0+65280)),b
  3561  008188  EC2F  F007         	call	_eeprom_read	;wreg free
  3562  00818C  CFE8 F071          	movff	wreg,_DtCW+3
  3563                           ;konfig.c: 651: RSDT1.outPCW=DtCW.PCW;
  3564  008190  C071  F338         	movff	_DtCW+3,_RSDT1+11
  3565                           ;konfig.c: 652: SetNSTCO();
  3566  008194  DE29               	call	_SetNSTCO	;wreg free
  3567                           ;konfig.c: 655: RSDT1.outPCO=DtCO.PCO;
  3568  008196  C081  F337         	movff	_DtCO+4,_RSDT1+10
  3569                           ;konfig.c: 656: RSDT1.outSETPmax=M.SETPmax;
  3570  00819A  C32B  F34E         	movff	_M+37,_RSDT1+33
  3571                           ;konfig.c: 657: }
  3572  00819E  0012               	return	
  3573  0081A0                     __end_of_RdEEParam:
  3574                           ;konfig.c: 661: void SetTpKtParam(void)
  3575                           ;konfig.c: 662: {
  3576  0081A0                     _SetTpKtParam:
  3577  000000                     
  3578                           ;konfig.c: 663: switch(DtKNF.kodkt)
  3579  0081A0  D08E               	goto	l178
  3580  0081A2                     l180:
  3581                           ;konfig.c: 667: case 1:
  3582  0081A2  0102               	movlb	(_DtKNF+14) shr (0+8)
  3583  0081A4  6BBC               	clrf	(_DtKNF+14)& (0+255),b
  3584  0081A6  D004               	goto	L3
  3585                           ;konfig.c: 670: DtKNF.czpr=0;
  3586                           ;konfig.c: 671: DtKNF.tpwm=0;
  3587                           ;konfig.c: 674: break;
  3588  0081A8                     l181:
  3589                           ;konfig.c: 675: }
  3590                           ;konfig.c: 677: {
  3591  0081A8  0E03               	movlw	3
  3592  0081AA  CFE8 F2BC          	movff	wreg,_DtKNF+14
  3593                           ;konfig.c: 679: DtKNF.czpr=0;
  3594  0081AE  0102               	movlb	(_DtKNF+12) shr (0+8)
  3595  0081B0                     L3:
  3596  0081B0  6BBA               	clrf	(_DtKNF+12)& (0+255),b
  3597                           ;konfig.c: 680: DtKNF.tpwm=0;
  3598  0081B2  6BC2               	clrf	(_DtKNF+20)& (0+255),b
  3599                           ;konfig.c: 683: break;
  3600  0081B4  D098               	goto	l177
  3601  0081B6                     l182:
  3602                           ;konfig.c: 684: }
  3603                           ;konfig.c: 687: {
  3604  0081B6  0102               	movlb	(_DtKNF+14) shr (0+8)
  3605  0081B8  6BBC               	clrf	(_DtKNF+14)& (0+255),b
  3606  0081BA  D07A               	goto	L18
  3607                           ;konfig.c: 699: DtKNF.tpwm=0;
  3608                           ;konfig.c: 700: DtKNF.mmin=16;
  3609                           ;konfig.c: 701: DtKNF.mmax=48;
  3610                           ;konfig.c: 702: break;
  3611  0081BC                     l184:
  3612                           ;konfig.c: 703: }
  3613                           ;konfig.c: 705: {
  3614  0081BC  0102               	movlb	(_DtKNF+14) shr (0+8)
  3615  0081BE  6BBC               	clrf	(_DtKNF+14)& (0+255),b
  3616  0081C0                     L19:
  3617                           ;konfig.c: 707: DtKNF.czpr=0;
  3618  0081C0  6BBA               	clrf	(_DtKNF+12)& (0+255),b
  3619                           ;konfig.c: 708: DtKNF.tpwm=0;
  3620  0081C2  6BC2               	clrf	(_DtKNF+20)& (0+255),b
  3621                           ;konfig.c: 709: DtKNF.mmin=16;
  3622  0081C4  0E10               	movlw	16
  3623  0081C6  CFE8 F2C5          	movff	wreg,_DtKNF+23
  3624                           ;konfig.c: 710: DtKNF.mmax=46;
  3625  0081CA  0E2E               	movlw	46
  3626  0081CC  D013               	goto	L7
  3627                           ;konfig.c: 711: break;
  3628  0081CE                     l185:
  3629                           ;konfig.c: 712: }
  3630                           ;konfig.c: 714: {
  3631  0081CE  0E03               	movlw	3
  3632  0081D0  CFE8 F2BC          	movff	wreg,_DtKNF+14
  3633                           ;konfig.c: 716: DtKNF.czpr=0;
  3634  0081D4  0102               	movlb	(_DtKNF+12) shr (0+8)
  3635  0081D6  6BBA               	clrf	(_DtKNF+12)& (0+255),b
  3636                           ;konfig.c: 717: DtKNF.tpwm=0;
  3637  0081D8  6BC2               	clrf	(_DtKNF+20)& (0+255),b
  3638                           ;konfig.c: 718: DtKNF.mmin=16;
  3639  0081DA  0E10               	movlw	16
  3640  0081DC  CFE8 F2C5          	movff	wreg,_DtKNF+23
  3641                           ;konfig.c: 719: DtKNF.mmax=55;
  3642  0081E0  0E37               	movlw	55
  3643  0081E2  D008               	goto	L7
  3644                           ;konfig.c: 720: break;
  3645  0081E4                     l186:
  3646                           ;konfig.c: 721: }
  3647                           ;konfig.c: 723: {
  3648  0081E4  0102               	movlb	(_DtKNF+14) shr (0+8)
  3649  0081E6  6BBC               	clrf	(_DtKNF+14)& (0+255),b
  3650  0081E8                     L8:
  3651  0081E8  6BBA               	clrf	(_DtKNF+12)& (0+255),b
  3652                           ;konfig.c: 735: DtKNF.tpwm=0;
  3653  0081EA  6BC2               	clrf	(_DtKNF+20)& (0+255),b
  3654                           ;konfig.c: 736: DtKNF.mmin=16;
  3655  0081EC  0E10               	movlw	16
  3656  0081EE  CFE8 F2C5          	movff	wreg,_DtKNF+23
  3657                           ;konfig.c: 737: DtKNF.mmax=58;
  3658  0081F2  0E3A               	movlw	58
  3659                           ;konfig.c: 725: DtKNF.czpr=0;
  3660                           ;konfig.c: 726: DtKNF.tpwm=0;
  3661                           ;konfig.c: 727: DtKNF.mmin=16;
  3662                           ;konfig.c: 728: DtKNF.mmax=58;
  3663  0081F4                     L7:
  3664  0081F4  CFE8 F2C6          	movff	wreg,_DtKNF+24
  3665                           ;konfig.c: 729: break;
  3666  0081F8  D076               	goto	l177
  3667  0081FA                     l187:
  3668  0081FA  D015               	goto	l193
  3669                           ;konfig.c: 730: }
  3670                           ;konfig.c: 732: {
  3671                           ;konfig.c: 734: DtKNF.czpr=0;
  3672                           ;konfig.c: 738: break;
  3673  0081FC                     l188:
  3674                           ;konfig.c: 739: }
  3675                           ;konfig.c: 741: {
  3676  0081FC  0102               	movlb	(_DtKNF+14) shr (0+8)
  3677  0081FE  6BBC               	clrf	(_DtKNF+14)& (0+255),b
  3678  008200  D004               	goto	L15
  3679                           ;konfig.c: 743: DtKNF.czpr=0;
  3680                           ;konfig.c: 744: DtKNF.tpwm=0;
  3681                           ;konfig.c: 745: DtKNF.mmin=16;
  3682                           ;konfig.c: 746: DtKNF.mmax=34;
  3683                           ;konfig.c: 747: break;
  3684  008202                     l189:
  3685                           ;konfig.c: 748: }
  3686                           ;konfig.c: 750: {
  3687  008202  0E03               	movlw	3
  3688  008204  CFE8 F2BC          	movff	wreg,_DtKNF+14
  3689                           ;konfig.c: 752: DtKNF.czpr=0;
  3690  008208  0102               	movlb	(_DtKNF+12) shr (0+8)
  3691  00820A                     L15:
  3692  00820A  6BBA               	clrf	(_DtKNF+12)& (0+255),b
  3693                           ;konfig.c: 753: DtKNF.tpwm=0;
  3694  00820C  6BC2               	clrf	(_DtKNF+20)& (0+255),b
  3695                           ;konfig.c: 754: DtKNF.mmin=16;
  3696  00820E  0E10               	movlw	16
  3697  008210  CFE8 F2C5          	movff	wreg,_DtKNF+23
  3698                           ;konfig.c: 755: DtKNF.mmax=34;
  3699  008214  0E22               	movlw	34
  3700  008216  D7EE               	goto	L7
  3701                           ;konfig.c: 756: break;
  3702  008218                     l190:
  3703  008218  D01F               	goto	l196
  3704                           ;konfig.c: 757: }
  3705                           ;konfig.c: 759: {
  3706                           ;konfig.c: 761: DtKNF.czpr=0;
  3707                           ;konfig.c: 762: DtKNF.tpwm=0;
  3708                           ;konfig.c: 763: DtKNF.mmin=16;
  3709                           ;konfig.c: 764: DtKNF.mmax=44;
  3710                           ;konfig.c: 765: break;
  3711  00821A                     l191:
  3712                           ;konfig.c: 766: }
  3713                           ;konfig.c: 768: {
  3714  00821A  0E03               	movlw	3
  3715  00821C  CFE8 F2BC          	movff	wreg,_DtKNF+14
  3716                           ;konfig.c: 770: DtKNF.czpr=0;
  3717  008220  0102               	movlb	(_DtKNF+12) shr (0+8)
  3718  008222  D01C               	goto	L17
  3719                           ;konfig.c: 771: DtKNF.tpwm=0;
  3720                           ;konfig.c: 772: DtKNF.mmin=16;
  3721                           ;konfig.c: 773: DtKNF.mmax=44;
  3722                           ;konfig.c: 774: break;
  3723  008224                     l192:
  3724  008224  D7C8               	goto	l182
  3725                           ;konfig.c: 775: }
  3726                           ;konfig.c: 777: {
  3727                           ;konfig.c: 779: DtKNF.czpr=0;
  3728                           ;konfig.c: 780: DtKNF.tpwm=0;
  3729                           ;konfig.c: 781: DtKNF.mmin=16;
  3730                           ;konfig.c: 782: DtKNF.mmax=48;
  3731                           ;konfig.c: 783: break;
  3732  008226                     l193:
  3733                           ;konfig.c: 784: }
  3734                           ;konfig.c: 786: {
  3735  008226  0E03               	movlw	3
  3736  008228  CFE8 F2BC          	movff	wreg,_DtKNF+14
  3737                           ;konfig.c: 788: DtKNF.czpr=0;
  3738  00822C  0102               	movlb	(_DtKNF+12) shr (0+8)
  3739  00822E  D7DC               	goto	L8
  3740                           ;konfig.c: 789: DtKNF.tpwm=0;
  3741                           ;konfig.c: 790: DtKNF.mmin=16;
  3742                           ;konfig.c: 791: DtKNF.mmax=58;
  3743                           ;konfig.c: 792: break;
  3744  008230                     l194:
  3745                           ;konfig.c: 793: }
  3746                           ;konfig.c: 795: {
  3747  008230  0102               	movlb	(_DtKNF+14) shr (0+8)
  3748  008232  6BBC               	clrf	(_DtKNF+14)& (0+255),b
  3749                           ;konfig.c: 797: DtKNF.czpr=0;
  3750  008234  6BBA               	clrf	(_DtKNF+12)& (0+255),b
  3751                           ;konfig.c: 798: DtKNF.tpwm=0;
  3752  008236  6BC2               	clrf	(_DtKNF+20)& (0+255),b
  3753                           ;konfig.c: 799: DtKNF.mmin=16;
  3754  008238  0E10               	movlw	16
  3755  00823A  CFE8 F2C5          	movff	wreg,_DtKNF+23
  3756                           ;konfig.c: 800: DtKNF.mmax=32;
  3757  00823E  0E20               	movlw	32
  3758  008240  D7D9               	goto	L7
  3759                           ;konfig.c: 801: break;
  3760  008242                     l195:
  3761                           ;konfig.c: 802: }
  3762                           ;konfig.c: 804: {
  3763  008242  0E03               	movlw	3
  3764  008244  CFE8 F2BC          	movff	wreg,_DtKNF+14
  3765                           ;konfig.c: 806: DtKNF.czpr=0;
  3766  008248  0102               	movlb	(_DtKNF+12) shr (0+8)
  3767  00824A  6BBA               	clrf	(_DtKNF+12)& (0+255),b
  3768                           ;konfig.c: 807: DtKNF.tpwm=0;
  3769  00824C  6BC2               	clrf	(_DtKNF+20)& (0+255),b
  3770                           ;konfig.c: 808: DtKNF.mmin=16;
  3771  00824E  0E10               	movlw	16
  3772  008250  CFE8 F2C5          	movff	wreg,_DtKNF+23
  3773                           ;konfig.c: 809: DtKNF.mmax=39;
  3774  008254  0E27               	movlw	39
  3775  008256  D7CE               	goto	L7
  3776                           ;konfig.c: 810: break;
  3777  008258                     l196:
  3778                           ;konfig.c: 811: }
  3779                           ;konfig.c: 813: {
  3780  008258  0102               	movlb	(_DtKNF+14) shr (0+8)
  3781  00825A  6BBC               	clrf	(_DtKNF+14)& (0+255),b
  3782  00825C                     L17:
  3783                           ;konfig.c: 815: DtKNF.czpr=0;
  3784  00825C  6BBA               	clrf	(_DtKNF+12)& (0+255),b
  3785                           ;konfig.c: 816: DtKNF.tpwm=0;
  3786  00825E  6BC2               	clrf	(_DtKNF+20)& (0+255),b
  3787                           ;konfig.c: 817: DtKNF.mmin=16;
  3788  008260  0E10               	movlw	16
  3789  008262  CFE8 F2C5          	movff	wreg,_DtKNF+23
  3790                           ;konfig.c: 818: DtKNF.mmax=44;
  3791  008266  0E2C               	movlw	44
  3792  008268  D7C5               	goto	L7
  3793                           ;konfig.c: 819: break;
  3794  00826A                     l197:
  3795                           ;konfig.c: 820: }
  3796                           ;konfig.c: 822: {
  3797  00826A  0E03               	movlw	3
  3798  00826C  CFE8 F2BC          	movff	wreg,_DtKNF+14
  3799                           ;konfig.c: 824: DtKNF.czpr=0;
  3800  008270  0102               	movlb	(_DtKNF+12) shr (0+8)
  3801  008272  6BBA               	clrf	(_DtKNF+12)& (0+255),b
  3802                           ;konfig.c: 825: DtKNF.tpwm=0;
  3803  008274  6BC2               	clrf	(_DtKNF+20)& (0+255),b
  3804                           ;konfig.c: 826: DtKNF.mmin=16;
  3805  008276  0E10               	movlw	16
  3806  008278  CFE8 F2C5          	movff	wreg,_DtKNF+23
  3807                           ;konfig.c: 827: DtKNF.mmax=52;
  3808  00827C  0E34               	movlw	52
  3809  00827E  D7BA               	goto	L7
  3810                           ;konfig.c: 828: break;
  3811  008280                     l198:
  3812  008280  D79D               	goto	l184
  3813                           ;konfig.c: 829: }
  3814                           ;konfig.c: 831: {
  3815                           ;konfig.c: 833: DtKNF.czpr=0;
  3816                           ;konfig.c: 834: DtKNF.tpwm=0;
  3817                           ;konfig.c: 835: DtKNF.mmin=16;
  3818                           ;konfig.c: 836: DtKNF.mmax=46;
  3819                           ;konfig.c: 837: break;
  3820  008282                     l199:
  3821                           ;konfig.c: 838: }
  3822                           ;konfig.c: 840: {
  3823  008282  0E03               	movlw	3
  3824  008284  CFE8 F2BC          	movff	wreg,_DtKNF+14
  3825                           ;konfig.c: 842: DtKNF.czpr=0;
  3826  008288  0102               	movlb	(_DtKNF+12) shr (0+8)
  3827  00828A  D79A               	goto	L19
  3828                           ;konfig.c: 843: DtKNF.tpwm=0;
  3829                           ;konfig.c: 844: DtKNF.mmin=16;
  3830                           ;konfig.c: 845: DtKNF.mmax=46;
  3831                           ;konfig.c: 846: break;
  3832  00828C                     l200:
  3833                           ;konfig.c: 847: }
  3834                           ;konfig.c: 849: {
  3835  00828C  0102               	movlb	(_DtKNF+14) shr (0+8)
  3836  00828E  6BBC               	clrf	(_DtKNF+14)& (0+255),b
  3837  008290  D004               	goto	L20
  3838                           ;konfig.c: 851: DtKNF.czpr=0;
  3839                           ;konfig.c: 852: DtKNF.tpwm=0;
  3840                           ;konfig.c: 853: DtKNF.mmin=16;
  3841                           ;konfig.c: 854: DtKNF.mmax=54;
  3842                           ;konfig.c: 855: break;
  3843  008292                     l201:
  3844                           ;konfig.c: 856: }
  3845                           ;konfig.c: 858: {
  3846  008292  0E03               	movlw	3
  3847  008294  CFE8 F2BC          	movff	wreg,_DtKNF+14
  3848                           ;konfig.c: 860: DtKNF.czpr=0;
  3849  008298  0102               	movlb	(_DtKNF+12) shr (0+8)
  3850  00829A                     L20:
  3851  00829A  6BBA               	clrf	(_DtKNF+12)& (0+255),b
  3852                           ;konfig.c: 861: DtKNF.tpwm=0;
  3853  00829C  6BC2               	clrf	(_DtKNF+20)& (0+255),b
  3854                           ;konfig.c: 862: DtKNF.mmin=16;
  3855  00829E  0E10               	movlw	16
  3856  0082A0  CFE8 F2C5          	movff	wreg,_DtKNF+23
  3857                           ;konfig.c: 863: DtKNF.mmax=54;
  3858  0082A4  0E36               	movlw	54
  3859  0082A6  D7A6               	goto	L7
  3860                           ;konfig.c: 864: break;
  3861  0082A8                     l202:
  3862                           ;konfig.c: 689: DtKNF.czpr=0;
  3863                           ;konfig.c: 690: DtKNF.tpwm=0;
  3864                           ;konfig.c: 691: DtKNF.mmin=16;
  3865                           ;konfig.c: 692: DtKNF.mmax=48;
  3866                           ;konfig.c: 693: break;
  3867  0082A8                     l183:
  3868                           ;konfig.c: 694: }
  3869                           ;konfig.c: 696: {
  3870  0082A8  0E03               	movlw	3
  3871  0082AA  CFE8 F2BC          	movff	wreg,_DtKNF+14
  3872                           ;konfig.c: 698: DtKNF.czpr=0;
  3873  0082AE  0102               	movlb	(_DtKNF+12) shr (0+8)
  3874                           ;konfig.c: 865: }
  3875                           ;konfig.c: 867: {
  3876                           ;konfig.c: 869: DtKNF.czpr=0;
  3877  0082B0                     L18:
  3878  0082B0  6BBA               	clrf	(_DtKNF+12)& (0+255),b
  3879                           ;konfig.c: 870: DtKNF.tpwm=0;
  3880  0082B2  6BC2               	clrf	(_DtKNF+20)& (0+255),b
  3881                           ;konfig.c: 871: DtKNF.mmin=16;
  3882  0082B4  0E10               	movlw	16
  3883  0082B6  CFE8 F2C5          	movff	wreg,_DtKNF+23
  3884                           ;konfig.c: 872: DtKNF.mmax=48;
  3885  0082BA  0E30               	movlw	48
  3886  0082BC  D79B               	goto	L7
  3887                           ;konfig.c: 873: break;
  3888  0082BE                     l178:
  3889  0082BE  C2BB  FFE8         	movff	_DtKNF+13,wreg
  3890  0082C2  0F00               	addlw	0
  3891  0082C4  E6F1               	bmi	l202
  3892  0082C6  0FE9               	addlw	-23
  3893  0082C8  E7EF               	bnn	l202
  3894  0082CA  0F17               	addlw	23
  3895  0082CC  0D02               	mullw	2
  3896  0082CE  0E32               	movlw	low S30004
  3897  0082D0  24F3               	addwf	prodl,w,c
  3898  0082D2  6EF6               	movwf	tblptrl,c
  3899  0082D4  0E10               	movlw	high S30004
  3900  0082D6  20F4               	addwfc	prodh,w,c
  3901  0082D8  6EF7               	movwf	tblptrh,c
  3902  0082DA  0009               	tblrd		*+
  3903  0082DC  50F5               	movf	tablat,w,c
  3904  0082DE  0009               	tblrd		*+
  3905  0082E0  CFF5 FFFA          	movff	tablat,pclath
  3906  0082E4  6EF9               	movwf	pcl,c
  3907  0082E6                     l177:
  3908                           ;konfig.c: 876: BitSet2(&RSDT1.outKSTAT0,1,(DtKN
      +                          F.tpkt==0)?1:0);
  3909  0082E6  0100               	movlb	__Lparam shr (0+8)
  3910  0082E8  0E50               	movlw	low (_RSDT1+35)
  3911  0082EA  6FAC               	movwf	?_BitSet2^(__Lparam& (0+65280)),b
  3912  0082EC  0E03               	movlw	high (_RSDT1+35)
  3913  0082EE  6FAD               	movwf	(?_BitSet2+1)^(__Lparam& (0+65280)),b
  3914  0082F0  0E01               	movlw	1
  3915  0082F2  6FAE               	movwf	(?_BitSet2+2)^(__Lparam& (0+65280)),b
  3916  0082F4  EE02  F0BC         	lfsr	0,_DtKNF+14
  3917  0082F8  50EF               	movf	indf0,w,c
  3918  0082FA  0E00               	movlw	0
  3919  0082FC  B4D8               	btfsc	status,2,c
  3920  0082FE                     L26:
  3921  0082FE  0E01               	movlw	1
  3922  008300  6FAF               	movwf	(?_BitSet2+3)^(__Lparam& (0+65280)),b
  3923  008302  EFEC  F003         	goto	_BitSet2	;wreg free
  3924                           ;konfig.c: 877: }
  3925  008306                     __end_of_SetTpKtParam:
  3926                           ;konfig.c: 881: void SetPFN(void)
  3927                           ;konfig.c: 882: {
  3928  008306                     _SetPFN:
  3929  000000                     
  3930                           ;konfig.c: 883: if(PFN.poz==1)
  3931  008306  0100               	movlb	(_PFN+1) shr (0+8)
  3932  008308  5168               	movf	(_PFN+1)& (0+255),w,b
  3933  00830A  0A01               	xorlw	1
  3934  00830C  1169               	iorwf	(_PFN+2)& (0+255),w,b
  3935  00830E  E121               	bnz	l204
  3936                           ;konfig.c: 884: {
  3937  008310  0100               	movlb	_PFN shr (0+8)
  3938  008312  9967               	bcf	_PFN& (0+255),4,b
  3939                           ;konfig.c: 886: PFN._lato=0;
  3940  008314  9767               	bcf	_PFN& (0+255),3,b
  3941                           ;konfig.c: 887: PFN._off=1;
  3942  008316  8567               	bsf	_PFN& (0+255),2,b
  3943                           ;konfig.c: 888: PFN._csn=0;
  3944  008318  9367               	bcf	_PFN& (0+255),1,b
  3945                           ;konfig.c: 889: BitSet2(&RSDT1.outSTAT2,4,0);
  3946  00831A  0100               	movlb	__Lparam shr (0+8)
  3947  00831C  0E46               	movlw	low (_RSDT1+25)
  3948  00831E  6FAC               	movwf	?_BitSet2^(__Lparam& (0+65280)),b
  3949  008320  0E03               	movlw	high (_RSDT1+25)
  3950  008322  6FAD               	movwf	(?_BitSet2+1)^(__Lparam& (0+65280)),b
  3951  008324  0E04               	movlw	4
  3952  008326  6FAE               	movwf	(?_BitSet2+2)^(__Lparam& (0+65280)),b
  3953  008328  6BAF               	clrf	(?_BitSet2+3)^(__Lparam& (0+65280)),b
  3954  00832A  ECEC  F003         	call	_BitSet2	;wreg free
  3955                           ;konfig.c: 890: BitSet2(&RSDT1.outSTAT2,5,0);
  3956  00832E  0100               	movlb	__Lparam shr (0+8)
  3957  008330  0E46               	movlw	low (_RSDT1+25)
  3958  008332  6FAC               	movwf	?_BitSet2^(__Lparam& (0+65280)),b
  3959  008334  0E03               	movlw	high (_RSDT1+25)
  3960  008336  6FAD               	movwf	(?_BitSet2+1)^(__Lparam& (0+65280)),b
  3961  008338  0E05               	movlw	5
  3962  00833A  6FAE               	movwf	(?_BitSet2+2)^(__Lparam& (0+65280)),b
  3963  00833C  6BAF               	clrf	(?_BitSet2+3)^(__Lparam& (0+65280)),b
  3964  00833E  ECEC  F003         	call	_BitSet2	;wreg free
  3965                           ;konfig.c: 891: BitSet2(&RSDT1.outSTAT2,6,1);
  3966  008342  0100               	movlb	__Lparam shr (0+8)
  3967  008344  0E46               	movlw	low (_RSDT1+25)
  3968  008346  6FAC               	movwf	?_BitSet2^(__Lparam& (0+65280)),b
  3969  008348  0E03               	movlw	high (_RSDT1+25)
  3970  00834A  6FAD               	movwf	(?_BitSet2+1)^(__Lparam& (0+65280)),b
  3971  00834C  0E06               	movlw	6
  3972  00834E  6FAE               	movwf	(?_BitSet2+2)^(__Lparam& (0+65280)),b
  3973  008350  D7D6               	goto	L26
  3974                           ;konfig.c: 892: }
  3975  008352                     l204:
  3976                           ;konfig.c: 893: else
  3977  008352  0100               	movlb	(_PFN+1) shr (0+8)
  3978  008354  5168               	movf	(_PFN+1)& (0+255),w,b
  3979  008356  0A03               	xorlw	3
  3980  008358  1169               	iorwf	(_PFN+2)& (0+255),w,b
  3981  00835A  E11B               	bnz	l206
  3982                           ;konfig.c: 895: {
  3983  00835C  0100               	movlb	_PFN shr (0+8)
  3984  00835E  8967               	bsf	_PFN& (0+255),4,b
  3985                           ;konfig.c: 897: PFN._lato=0;
  3986  008360  9767               	bcf	_PFN& (0+255),3,b
  3987                           ;konfig.c: 898: PFN._off=0;
  3988  008362  9567               	bcf	_PFN& (0+255),2,b
  3989                           ;konfig.c: 899: PFN._csn=0;
  3990  008364  9367               	bcf	_PFN& (0+255),1,b
  3991                           ;konfig.c: 900: BitSet2(&RSDT1.outSTAT2,4,1);
  3992  008366  0100               	movlb	__Lparam shr (0+8)
  3993  008368  0E46               	movlw	low (_RSDT1+25)
  3994  00836A  6FAC               	movwf	?_BitSet2^(__Lparam& (0+65280)),b
  3995  00836C  0E03               	movlw	high (_RSDT1+25)
  3996  00836E  6FAD               	movwf	(?_BitSet2+1)^(__Lparam& (0+65280)),b
  3997  008370  0E04               	movlw	4
  3998  008372  6FAE               	movwf	(?_BitSet2+2)^(__Lparam& (0+65280)),b
  3999  008374  0E01               	movlw	1
  4000  008376  6FAF               	movwf	(?_BitSet2+3)^(__Lparam& (0+65280)),b
  4001  008378  ECEC  F003         	call	_BitSet2	;wreg free
  4002                           ;konfig.c: 901: BitSet2(&RSDT1.outSTAT2,5,0);
  4003  00837C  0100               	movlb	__Lparam shr (0+8)
  4004  00837E  0E46               	movlw	low (_RSDT1+25)
  4005  008380  6FAC               	movwf	?_BitSet2^(__Lparam& (0+65280)),b
  4006  008382  0E03               	movlw	high (_RSDT1+25)
  4007  008384  6FAD               	movwf	(?_BitSet2+1)^(__Lparam& (0+65280)),b
  4008  008386  0E05               	movlw	5
  4009  008388  6FAE               	movwf	(?_BitSet2+2)^(__Lparam& (0+65280)),b
  4010  00838A  6BAF               	clrf	(?_BitSet2+3)^(__Lparam& (0+65280)),b
  4011  00838C  ECEC  F003         	call	_BitSet2	;wreg free
  4012  008390  D03E               	goto	L28
  4013                           ;konfig.c: 902: BitSet2(&RSDT1.outSTAT2,6,0);
  4014                           ;konfig.c: 903: }
  4015  008392                     l206:
  4016                           ;konfig.c: 904: else
  4017  008392  0100               	movlb	(_PFN+1) shr (0+8)
  4018  008394  5168               	movf	(_PFN+1)& (0+255),w,b
  4019  008396  0A02               	xorlw	2
  4020  008398  1169               	iorwf	(_PFN+2)& (0+255),w,b
  4021                           ;konfig.c: 906: {
  4022  00839A  0100               	movlb	_PFN shr (0+8)
  4023  00839C  E11A               	bnz	L22
  4024  00839E  9967               	bcf	_PFN& (0+255),4,b
  4025                           ;konfig.c: 908: PFN._lato=1;
  4026  0083A0  8767               	bsf	_PFN& (0+255),3,b
  4027                           ;konfig.c: 909: PFN._off=0;
  4028  0083A2  9567               	bcf	_PFN& (0+255),2,b
  4029                           ;konfig.c: 910: PFN._csn=0;
  4030  0083A4  9367               	bcf	_PFN& (0+255),1,b
  4031                           ;konfig.c: 911: BitSet2(&RSDT1.outSTAT2,4,0);
  4032  0083A6  0100               	movlb	__Lparam shr (0+8)
  4033  0083A8  0E46               	movlw	low (_RSDT1+25)
  4034  0083AA  6FAC               	movwf	?_BitSet2^(__Lparam& (0+65280)),b
  4035  0083AC  0E03               	movlw	high (_RSDT1+25)
  4036  0083AE  6FAD               	movwf	(?_BitSet2+1)^(__Lparam& (0+65280)),b
  4037  0083B0  0E04               	movlw	4
  4038  0083B2  6FAE               	movwf	(?_BitSet2+2)^(__Lparam& (0+65280)),b
  4039  0083B4  6BAF               	clrf	(?_BitSet2+3)^(__Lparam& (0+65280)),b
  4040  0083B6  ECEC  F003         	call	_BitSet2	;wreg free
  4041                           ;konfig.c: 912: BitSet2(&RSDT1.outSTAT2,5,1);
  4042  0083BA  0100               	movlb	__Lparam shr (0+8)
  4043  0083BC  0E46               	movlw	low (_RSDT1+25)
  4044  0083BE  6FAC               	movwf	?_BitSet2^(__Lparam& (0+65280)),b
  4045  0083C0  0E03               	movlw	high (_RSDT1+25)
  4046  0083C2  6FAD               	movwf	(?_BitSet2+1)^(__Lparam& (0+65280)),b
  4047  0083C4  0E05               	movlw	5
  4048  0083C6  6FAE               	movwf	(?_BitSet2+2)^(__Lparam& (0+65280)),b
  4049  0083C8  0E01               	movlw	1
  4050  0083CA  6FAF               	movwf	(?_BitSet2+3)^(__Lparam& (0+65280)),b
  4051  0083CC  ECEC  F003         	call	_BitSet2	;wreg free
  4052  0083D0  D01E               	goto	L28
  4053                           ;konfig.c: 913: BitSet2(&RSDT1.outSTAT2,6,0);
  4054                           ;konfig.c: 914: }
  4055                           ;konfig.c: 915: else
  4056  0083D2                     L22:
  4057  0083D2  8967               	bsf	_PFN& (0+255),4,b
  4058                           ;konfig.c: 918: PFN._lato=0;
  4059  0083D4  0100               	movlb	_PFN shr (0+8)
  4060  0083D6  9767               	bcf	_PFN& (0+255),3,b
  4061                           ;konfig.c: 919: PFN._off=0;
  4062  0083D8  9567               	bcf	_PFN& (0+255),2,b
  4063                           ;konfig.c: 920: PFN._csn=0;
  4064  0083DA  9367               	bcf	_PFN& (0+255),1,b
  4065                           ;konfig.c: 921: PFN.poz=3;
  4066  0083DC  0100               	movlb	(_PFN+1) shr (0+8)
  4067  0083DE  0E03               	movlw	3
  4068  0083E0  6F68               	movwf	(_PFN+1)& (0+255),b
  4069  0083E2  6B69               	clrf	(_PFN+2)& (0+255),b
  4070                           ;konfig.c: 922: BitSet2(&RSDT1.outSTAT2,4,1);
  4071  0083E4  0100               	movlb	__Lparam shr (0+8)
  4072  0083E6  0E46               	movlw	low (_RSDT1+25)
  4073  0083E8  6FAC               	movwf	?_BitSet2^(__Lparam& (0+65280)),b
  4074  0083EA  0E03               	movlw	high (_RSDT1+25)
  4075  0083EC  6FAD               	movwf	(?_BitSet2+1)^(__Lparam& (0+65280)),b
  4076  0083EE  0E04               	movlw	4
  4077  0083F0  6FAE               	movwf	(?_BitSet2+2)^(__Lparam& (0+65280)),b
  4078  0083F2  0E01               	movlw	1
  4079  0083F4  6FAF               	movwf	(?_BitSet2+3)^(__Lparam& (0+65280)),b
  4080  0083F6  ECEC  F003         	call	_BitSet2	;wreg free
  4081                           ;konfig.c: 923: BitSet2(&RSDT1.outSTAT2,5,0);
  4082  0083FA  0100               	movlb	__Lparam shr (0+8)
  4083  0083FC  0E46               	movlw	low (_RSDT1+25)
  4084  0083FE  6FAC               	movwf	?_BitSet2^(__Lparam& (0+65280)),b
  4085  008400  0E03               	movlw	high (_RSDT1+25)
  4086  008402  6FAD               	movwf	(?_BitSet2+1)^(__Lparam& (0+65280)),b
  4087  008404  0E05               	movlw	5
  4088  008406  6FAE               	movwf	(?_BitSet2+2)^(__Lparam& (0+65280)),b
  4089  008408  6BAF               	clrf	(?_BitSet2+3)^(__Lparam& (0+65280)),b
  4090  00840A  ECEC  F003         	call	_BitSet2	;wreg free
  4091  00840E                     L28:
  4092                           ;konfig.c: 924: BitSet2(&RSDT1.outSTAT2,6,0);
  4093  00840E  0100               	movlb	__Lparam shr (0+8)
  4094  008410  0E46               	movlw	low (_RSDT1+25)
  4095  008412  6FAC               	movwf	?_BitSet2^(__Lparam& (0+65280)),b
  4096  008414  0E03               	movlw	high (_RSDT1+25)
  4097  008416  6FAD               	movwf	(?_BitSet2+1)^(__Lparam& (0+65280)),b
  4098  008418  0E06               	movlw	6
  4099  00841A  6FAE               	movwf	(?_BitSet2+2)^(__Lparam& (0+65280)),b
  4100  00841C  6BAF               	clrf	(?_BitSet2+3)^(__Lparam& (0+65280)),b
  4101  00841E  EFEC  F003         	goto	_BitSet2	;wreg free
  4102                           ;konfig.c: 925: }
  4103  008422                     __end_of_SetPFN:
  4104                           ;konfig.c: 930: unsigned char ReadEEPCW(void)
  4105                           ;konfig.c: 931: {
  4106  008422                     _ReadEEPCW:
  4107  000000                     
  4108                           ;konfig.c: 932: return eeprom_read(0x00CA);
  4109  008422  0ECA               	movlw	202
  4110  008424  D16C               	goto	L59
  4111                           ;konfig.c: 933: }
  4112  008426                     __end_of_ReadEEPCW:
  4113                           ;konfig.c: 934: void WriteEEPCW(void)
  4114                           ;konfig.c: 935: {
  4115  008426                     _WriteEEPCW:
  4116  000000                     
  4117                           ;konfig.c: 936: if(DtCW.PCW!=eeprom_read(0x00CA)
      +                          )
  4118  008426  0ECA               	movlw	202
  4119  008428  0100               	movlb	__Lparam shr (0+8)
  4120  00842A  6FB7               	movwf	?_eeprom_read^(__Lparam& (0+65280)),b
  4121  00842C  6BB8               	clrf	(?_eeprom_read+1)^(__Lparam& (0+65280)),b
  4122  00842E  EC2F  F007         	call	_eeprom_read	;wreg free
  4123  008432  6E00               	movwf	btemp,c
  4124  008434  C000  F002         	movff	btemp,btemp+2
  4125  008438  6A03               	clrf	btemp+3,c
  4126  00843A  C071  FFE8         	movff	_DtCW+3,wreg
  4127  00843E  1802               	xorwf	btemp+2,w,c
  4128  008440  E101               	bnz	u3065
  4129  008442  5203               	movf	btemp+3,f,c
  4130  008444                     u3065:
  4131  008444  B4D8               	btfsc	status,2,c
  4132  008446  0012               	return	
  4133                           ;konfig.c: 937: {
  4134  008448  0ECA               	movlw	202
  4135  00844A  0100               	movlb	__Lparam shr (0+8)
  4136  00844C  6FB7               	movwf	?_eeprom_write^(__Lparam& (0+65280)),b
  4137  00844E  6BB8               	clrf	(?_eeprom_write+1)^(__Lparam& (0+65280)),b
  4138  008450  C071  F0B9         	movff	_DtCW+3,?_eeprom_write+2
  4139  008454  EF5C  F006         	goto	_eeprom_write	;wreg free
  4140                           ;konfig.c: 939: }
  4141  008458                     __end_of_WriteEEPCW:
  4142                           ;konfig.c: 944: unsigned char ReadEEPCO(void)
  4143                           ;konfig.c: 945: {
  4144  008458                     _ReadEEPCO:
  4145  000000                     
  4146                           ;konfig.c: 946: return eeprom_read(0x00C9);
  4147  008458  0EC9               	movlw	201
  4148  00845A  D151               	goto	L59
  4149                           ;konfig.c: 947: }
  4150  00845C                     __end_of_ReadEEPCO:
  4151                           ;konfig.c: 948: void WriteEEPCO(void)
  4152                           ;konfig.c: 949: {
  4153  00845C                     _WriteEEPCO:
  4154  000000                     
  4155                           ;konfig.c: 950: if(DtCO.PCO!=eeprom_read(0x00C9)
      +                          )
  4156  00845C  0EC9               	movlw	201
  4157  00845E  0100               	movlb	__Lparam shr (0+8)
  4158  008460  6FB7               	movwf	?_eeprom_read^(__Lparam& (0+65280)),b
  4159  008462  6BB8               	clrf	(?_eeprom_read+1)^(__Lparam& (0+65280)),b
  4160  008464  EC2F  F007         	call	_eeprom_read	;wreg free
  4161  008468  6E00               	movwf	btemp,c
  4162  00846A  C000  F002         	movff	btemp,btemp+2
  4163  00846E  6A03               	clrf	btemp+3,c
  4164  008470  C081  FFE8         	movff	_DtCO+4,wreg
  4165  008474  1802               	xorwf	btemp+2,w,c
  4166  008476  E101               	bnz	u3075
  4167  008478                     L65:
  4168  008478  5203               	movf	btemp+3,f,c
  4169  00847A                     u2895:
  4170  00847A                     u3075:
  4171  00847A  B4D8               	btfsc	status,2,c
  4172  00847C  0012               	return	
  4173                           ;konfig.c: 951: {
  4174  00847E  0EC9               	movlw	201
  4175  008480  0100               	movlb	__Lparam shr (0+8)
  4176  008482  6FB7               	movwf	?_eeprom_write^(__Lparam& (0+65280)),b
  4177  008484  6BB8               	clrf	(?_eeprom_write+1)^(__Lparam& (0+65280)),b
  4178  008486  D01A               	goto	L31
  4179                           ;konfig.c: 953: }
  4180  008488                     __end_of_WriteEEPCO:
  4181                           ;konfig.c: 958: unsigned char ReadEEPPGD(void)
  4182                           ;konfig.c: 959: {
  4183  008488                     _ReadEEPPGD:
  4184  000000                     
  4185                           ;konfig.c: 960: return eeprom_read(0x01C6);
  4186  008488  0100               	movlb	__Lparam shr (0+8)
  4187  00848A  0EC6               	movlw	198
  4188  00848C  D15D               	goto	L60
  4189                           ;konfig.c: 961: }
  4190  00848E                     __end_of_ReadEEPPGD:
  4191                           ;konfig.c: 962: void WriteEEPPGD(void)
  4192                           ;konfig.c: 963: {
  4193  00848E                     _WriteEEPPGD:
  4194  000000                     
  4195                           ;konfig.c: 964: if(DtCO.PCO!=eeprom_read(0x01C6)
      +                          )
  4196  00848E  0100               	movlb	__Lparam shr (0+8)
  4197  008490  0EC6               	movlw	198
  4198  008492  6FB7               	movwf	?_eeprom_read^(__Lparam& (0+65280)),b
  4199  008494  0E01               	movlw	1
  4200  008496  6FB8               	movwf	(?_eeprom_read+1)^(__Lparam& (0+65280)),b
  4201  008498  EC2F  F007         	call	_eeprom_read	;wreg free
  4202  00849C  6E00               	movwf	btemp,c
  4203  00849E  C000  F002         	movff	btemp,btemp+2
  4204  0084A2  6A03               	clrf	btemp+3,c
  4205  0084A4  C081  FFE8         	movff	_DtCO+4,wreg
  4206  0084A8  1802               	xorwf	btemp+2,w,c
  4207  0084AA  E101               	bnz	u3085
  4208  0084AC  5203               	movf	btemp+3,f,c
  4209  0084AE                     u3085:
  4210  0084AE  B4D8               	btfsc	status,2,c
  4211  0084B0  0012               	return	
  4212                           ;konfig.c: 965: {
  4213  0084B2  0100               	movlb	__Lparam shr (0+8)
  4214  0084B4  0EC6               	movlw	198
  4215  0084B6  6FB7               	movwf	?_eeprom_write^(__Lparam& (0+65280)),b
  4216  0084B8  0E01               	movlw	1
  4217  0084BA  6FB8               	movwf	(?_eeprom_write+1)^(__Lparam& (0+65280)),
      +                          b
  4218  0084BC                     L31:
  4219  0084BC  C081  F0B9         	movff	_DtCO+4,?_eeprom_write+2
  4220  0084C0  EF5C  F006         	goto	_eeprom_write	;wreg free
  4221                           ;konfig.c: 967: }
  4222  0084C4                     __end_of_WriteEEPPGD:
  4223                           ;konfig.c: 972: unsigned char ReadEEECO(void)
  4224                           ;konfig.c: 973: {
  4225  0084C4                     _ReadEEECO:
  4226  000000                     
  4227                           ;konfig.c: 974: return eeprom_read(0x00D4);
  4228  0084C4  0ED4               	movlw	212
  4229  0084C6  D11B               	goto	L59
  4230                           ;konfig.c: 975: }
  4231  0084C8                     __end_of_ReadEEECO:
  4232                           ;konfig.c: 976: void WriteEEECO(void)
  4233                           ;konfig.c: 977: {
  4234  0084C8                     _WriteEEECO:
  4235  000000                     
  4236                           ;konfig.c: 978: if(DtIN.Eco!=eeprom_read(0x00D4)
      +                          )
  4237  0084C8  0ED4               	movlw	212
  4238  0084CA  0100               	movlb	__Lparam shr (0+8)
  4239  0084CC  6FB7               	movwf	?_eeprom_read^(__Lparam& (0+65280)),b
  4240  0084CE  6BB8               	clrf	(?_eeprom_read+1)^(__Lparam& (0+65280)),b
  4241  0084D0  EC2F  F007         	call	_eeprom_read	;wreg free
  4242  0084D4  6E00               	movwf	btemp,c
  4243  0084D6  C000  F002         	movff	btemp,btemp+2
  4244  0084DA  6A03               	clrf	btemp+3,c
  4245  0084DC  C099  FFE8         	movff	_DtIN+9,wreg
  4246  0084E0  1802               	xorwf	btemp+2,w,c
  4247  0084E2  E101               	bnz	u3095
  4248  0084E4  5203               	movf	btemp+3,f,c
  4249  0084E6                     u3095:
  4250  0084E6  B4D8               	btfsc	status,2,c
  4251  0084E8  0012               	return	
  4252                           ;konfig.c: 979: {
  4253  0084EA  0ED4               	movlw	212
  4254  0084EC  0100               	movlb	__Lparam shr (0+8)
  4255  0084EE  6FB7               	movwf	?_eeprom_write^(__Lparam& (0+65280)),b
  4256  0084F0  6BB8               	clrf	(?_eeprom_write+1)^(__Lparam& (0+65280)),b
  4257  0084F2  C099  F0B9         	movff	_DtIN+9,?_eeprom_write+2
  4258  0084F6  EF5C  F006         	goto	_eeprom_write	;wreg free
  4259                           ;konfig.c: 981: }
  4260  0084FA                     __end_of_WriteEEECO:
  4261                           ;konfig.c: 986: void WriteEEPFN(void)
  4262                           ;konfig.c: 987: {
  4263  0084FA                     _WriteEEPFN:
  4264  000000                     
  4265                           ;konfig.c: 988: unsigned char d1,d2;
  4266  0084FA  0ECB               	movlw	203
  4267  0084FC  0100               	movlb	__Lparam shr (0+8)
  4268  0084FE  6FB7               	movwf	?_eeprom_read^(__Lparam& (0+65280)),b
  4269  008500  6BB8               	clrf	(?_eeprom_read+1)^(__Lparam& (0+65280)),b
  4270  008502  EC2F  F007         	call	_eeprom_read	;wreg free
  4271  008506  0100               	movlb	__Lparam shr (0+8)
  4272  008508  6FA9               	movwf	?a_WriteEEPFN^(__Lparam& (0+65280)),b
  4273                           ;konfig.c: 990: d1=d1<<4;
  4274  00850A  3BA9               	swapf	?a_WriteEEPFN^(__Lparam& (0+65280)),f,b
  4275  00850C  0EF0               	movlw	240
  4276  00850E  17A9               	andwf	?a_WriteEEPFN^(__Lparam& (0+65280)),f,b
  4277                           ;konfig.c: 991: d2=(PFN.poz&0b00001111);
  4278  008510  C068  FFE8         	movff	_PFN+1,wreg
  4279  008514  0B0F               	andlw	15
  4280  008516  6ED9               	movwf	fsr2l,c
  4281                           ;konfig.c: 992: d1=d1|d2;
  4282  008518  50D9               	movf	fsr2l,w,c
  4283  00851A  13A9               	iorwf	?a_WriteEEPFN^(__Lparam& (0+65280)),f,b
  4284                           ;konfig.c: 993: if(d1!=eeprom_read(0x00CB))
  4285  00851C  0ECB               	movlw	203
  4286  00851E  6FB7               	movwf	?_eeprom_read^(__Lparam& (0+65280)),b
  4287  008520  6BB8               	clrf	(?_eeprom_read+1)^(__Lparam& (0+65280)),b
  4288  008522  EC2F  F007         	call	_eeprom_read	;wreg free
  4289  008526  6E00               	movwf	btemp,c
  4290  008528  C000  F002         	movff	btemp,btemp+2
  4291  00852C  6A03               	clrf	btemp+3,c
  4292  00852E  C0A9  FFE8         	movff	?a_WriteEEPFN,wreg
  4293  008532  1802               	xorwf	btemp+2,w,c
  4294  008534  E101               	bnz	u3105
  4295  008536  5203               	movf	btemp+3,f,c
  4296  008538                     u3105:
  4297  008538  B4D8               	btfsc	status,2,c
  4298  00853A  0012               	return	
  4299                           ;konfig.c: 994: {
  4300  00853C  0ECB               	movlw	203
  4301  00853E  0100               	movlb	__Lparam shr (0+8)
  4302  008540  6FB7               	movwf	?_eeprom_write^(__Lparam& (0+65280)),b
  4303  008542  6BB8               	clrf	(?_eeprom_write+1)^(__Lparam& (0+65280)),b
  4304  008544  51A9               	movf	?a_WriteEEPFN^(__Lparam& (0+65280)),w
  4305  008546  D0F8               	goto	L58
  4306                           ;konfig.c: 996: }
  4307  008548                     __end_of_WriteEEPFN:
  4308                           ;konfig.c: 999: unsigned char ReadEEPFN(void)
  4309                           ;konfig.c: 1000: {
  4310  008548                     _ReadEEPFN:
  4311  000000                     
  4312                           ;konfig.c: 1001: unsigned char d;
  4313  008548  0ECB               	movlw	203
  4314  00854A  0100               	movlb	__Lparam shr (0+8)
  4315  00854C  6FB7               	movwf	?_eeprom_read^(__Lparam& (0+65280)),b
  4316  00854E  6BB8               	clrf	(?_eeprom_read+1)^(__Lparam& (0+65280)),b
  4317  008550  EC2F  F007         	call	_eeprom_read	;wreg free
  4318  008554  0100               	movlb	__Lparam shr (0+8)
  4319  008556  6FA9               	movwf	?a_ReadEEPFN^(__Lparam& (0+65280)),b
  4320                           ;konfig.c: 1003: d=d&0b00001111;
  4321  008558  0E0F               	movlw	15
  4322  00855A  17A9               	andwf	?a_ReadEEPFN^(__Lparam& (0+65280)),f,b
  4323                           ;konfig.c: 1004: return d;
  4324  00855C  51A9               	movf	?a_ReadEEPFN^(__Lparam& (0+65280)),w
  4325  00855E  0012               	return	
  4326                           ;konfig.c: 1005: }
  4327  008560                     __end_of_ReadEEPFN:
  4328                           ;konfig.c: 1007: unsigned char ReadEEPopPFN(void
      +                          )
  4329                           ;konfig.c: 1008: {
  4330  008560                     _ReadEEPopPFN:
  4331  000000                     
  4332                           ;konfig.c: 1009: unsigned char d;
  4333  008560  0ECB               	movlw	203
  4334  008562  0100               	movlb	__Lparam shr (0+8)
  4335  008564  6FB7               	movwf	?_eeprom_read^(__Lparam& (0+65280)),b
  4336  008566  6BB8               	clrf	(?_eeprom_read+1)^(__Lparam& (0+65280)),b
  4337  008568  EC2F  F007         	call	_eeprom_read	;wreg free
  4338  00856C  0100               	movlb	__Lparam shr (0+8)
  4339  00856E  6FA9               	movwf	?a_ReadEEPopPFN^(__Lparam& (0+65280)),b
  4340                           ;konfig.c: 1011: d=d&0b11110000;
  4341  008570  0EF0               	movlw	240
  4342  008572  17A9               	andwf	?a_ReadEEPopPFN^(__Lparam& (0+65280)),f,b
  4343                           ;konfig.c: 1012: d=d>>4;
  4344  008574  3BA9               	swapf	?a_ReadEEPopPFN^(__Lparam& (0+65280)),f,b
  4345  008576  0E0F               	movlw	15
  4346  008578  17A9               	andwf	?a_ReadEEPopPFN^(__Lparam& (0+65280)),f,b
  4347                           ;konfig.c: 1013: return d;
  4348  00857A  51A9               	movf	?a_ReadEEPopPFN^(__Lparam& (0+65280)),w
  4349  00857C  0012               	return	
  4350                           ;konfig.c: 1014: }
  4351  00857E                     __end_of_ReadEEPopPFN:
  4352                           ;konfig.c: 1018: void WriteEEALIN(unsigned char 
      +                          d)
  4353                           ;konfig.c: 1019: {
  4354  00857E                     _WriteEEALIN:
  4355  000000                     
  4356                           ;_d stored from wreg
  4357  00857E  0100               	movlb	__Lparam shr (0+8)
  4358  008580  6FAC               	movwf	?a_WriteEEALIN^(__Lparam& (0+65280)),b
  4359                           ;konfig.c: 1020: if(d!=eeprom_read(0x00D8))
  4360  008582  0ED8               	movlw	216
  4361  008584  6FB7               	movwf	?_eeprom_read^(__Lparam& (0+65280)),b
  4362  008586  6BB8               	clrf	(?_eeprom_read+1)^(__Lparam& (0+65280)),b
  4363  008588  EC2F  F007         	call	_eeprom_read	;wreg free
  4364  00858C  6E00               	movwf	btemp,c
  4365  00858E  C000  F002         	movff	btemp,btemp+2
  4366  008592  6A03               	clrf	btemp+3,c
  4367  008594  C0AC  FFE8         	movff	?a_WriteEEALIN,wreg
  4368  008598  1802               	xorwf	btemp+2,w,c
  4369  00859A  E101               	bnz	u3115
  4370  00859C  5203               	movf	btemp+3,f,c
  4371  00859E                     u3115:
  4372  00859E  B4D8               	btfsc	status,2,c
  4373  0085A0  0012               	return	
  4374                           ;konfig.c: 1021: {
  4375  0085A2  0ED8               	movlw	216
  4376  0085A4  0100               	movlb	__Lparam shr (0+8)
  4377  0085A6  6FB7               	movwf	?_eeprom_write^(__Lparam& (0+65280)),b
  4378  0085A8  6BB8               	clrf	(?_eeprom_write+1)^(__Lparam& (0+65280)),b
  4379  0085AA  51AC               	movf	?a_WriteEEALIN^(__Lparam& (0+65280)),w
  4380  0085AC  D0C5               	goto	L58
  4381                           ;konfig.c: 1023: }
  4382  0085AE                     __end_of_WriteEEALIN:
  4383                           ;konfig.c: 1025: unsigned char ReadEEALIN(void)
  4384                           ;konfig.c: 1026: {
  4385  0085AE                     _ReadEEALIN:
  4386  000000                     
  4387                           ;konfig.c: 1027: return eeprom_read(0x00D8);
  4388  0085AE  0ED8               	movlw	216
  4389  0085B0  D0A6               	goto	L59
  4390                           ;konfig.c: 1028: }
  4391  0085B2                     __end_of_ReadEEALIN:
  4392                           ;konfig.c: 1032: void ClearEETA(void)
  4393                           ;konfig.c: 1033: {
  4394  0085B2                     _ClearEETA:
  4395  000000                     
  4396                           ;konfig.c: 1034: eeprom_write(0x00C7,0);
  4397  0085B2  0EC7               	movlw	199
  4398  0085B4  0100               	movlb	__Lparam shr (0+8)
  4399  0085B6  6FB7               	movwf	?_eeprom_write^(__Lparam& (0+65280)),b
  4400  0085B8  6BB8               	clrf	(?_eeprom_write+1)^(__Lparam& (0+65280)),b
  4401  0085BA  6BB9               	clrf	(?_eeprom_write+2)^(__Lparam& (0+65280)),b
  4402  0085BC  EF5C  F006         	goto	_eeprom_write	;wreg free
  4403                           ;konfig.c: 1035: }
  4404  0085C0                     __end_of_ClearEETA:
  4405                           ;konfig.c: 1040: void WriteEEVNT0(unsigned char 
      +                          v,unsigned char p)
  4406                           ;konfig.c: 1041: {
  4407  0085C0  00AC               	dw	?_WriteEEVNT0
  4408  0085C2                     _WriteEEVNT0:
  4409  000000                     
  4410                           ; _v loaded to fsr2l
  4411  0085C2  6ED9               	movwf	fsr2l,c
  4412                           ;konfig.c: 1042: eeprom_write(0x00E0,v);
  4413  0085C4  0EE0               	movlw	224
  4414  0085C6  0100               	movlb	__Lparam shr (0+8)
  4415  0085C8  6FB7               	movwf	?_eeprom_write^(__Lparam& (0+65280)),b
  4416  0085CA  6BB8               	clrf	(?_eeprom_write+1)^(__Lparam& (0+65280)),b
  4417  0085CC  50D9               	movf	fsr2l,w,c
  4418  0085CE  6FB9               	movwf	(?_eeprom_write+2)^(__Lparam& (0+65280)),
      +                          b
  4419  0085D0  EC5C  F006         	call	_eeprom_write	;wreg free
  4420                           ;konfig.c: 1043: eeprom_write(0x00E1,p);
  4421  0085D4  0EE1               	movlw	225
  4422  0085D6  0100               	movlb	__Lparam shr (0+8)
  4423  0085D8  6FB7               	movwf	?_eeprom_write^(__Lparam& (0+65280)),b
  4424  0085DA  6BB8               	clrf	(?_eeprom_write+1)^(__Lparam& (0+65280)),b
  4425  0085DC  51AC               	movf	?_WriteEEVNT0^(__Lparam& (0+65280)),w
  4426  0085DE  D0AC               	goto	L58
  4427                           ;konfig.c: 1044: }
  4428  0085E0                     __end_of_WriteEEVNT0:
  4429                           ;konfig.c: 1045: unsigned char ReadEEVNT0_V()
  4430                           ;konfig.c: 1046: {
  4431  0085E0                     _ReadEEVNT0_V:
  4432  000000                     
  4433                           ;konfig.c: 1047: return eeprom_read(0x00E0);
  4434  0085E0  0EE0               	movlw	224
  4435  0085E2  D08D               	goto	L59
  4436                           ;konfig.c: 1048: }
  4437  0085E4                     __end_of_ReadEEVNT0_V:
  4438                           ;konfig.c: 1049: unsigned char ReadEEVNT0_P()
  4439                           ;konfig.c: 1050: {
  4440  0085E4                     _ReadEEVNT0_P:
  4441  000000                     
  4442                           ;konfig.c: 1051: return eeprom_read(0x00E1);
  4443  0085E4  0EE1               	movlw	225
  4444  0085E6  D08B               	goto	L59
  4445                           ;konfig.c: 1052: }
  4446  0085E8                     __end_of_ReadEEVNT0_P:
  4447                           ;konfig.c: 1054: void WriteEEVNT1(unsigned char 
      +                          v,unsigned char p)
  4448                           ;konfig.c: 1055: {
  4449  0085E8  00AC               	dw	?_WriteEEVNT1
  4450  0085EA                     _WriteEEVNT1:
  4451  000000                     
  4452                           ; _v loaded to fsr2l
  4453  0085EA  6ED9               	movwf	fsr2l,c
  4454                           ;konfig.c: 1056: eeprom_write(0x00E2,v);
  4455  0085EC  0EE2               	movlw	226
  4456  0085EE  0100               	movlb	__Lparam shr (0+8)
  4457  0085F0  6FB7               	movwf	?_eeprom_write^(__Lparam& (0+65280)),b
  4458  0085F2  6BB8               	clrf	(?_eeprom_write+1)^(__Lparam& (0+65280)),b
  4459  0085F4  50D9               	movf	fsr2l,w,c
  4460  0085F6  6FB9               	movwf	(?_eeprom_write+2)^(__Lparam& (0+65280)),
      +                          b
  4461  0085F8  EC5C  F006         	call	_eeprom_write	;wreg free
  4462                           ;konfig.c: 1057: eeprom_write(0x00E3,p);
  4463  0085FC  0EE3               	movlw	227
  4464  0085FE  0100               	movlb	__Lparam shr (0+8)
  4465  008600  6FB7               	movwf	?_eeprom_write^(__Lparam& (0+65280)),b
  4466  008602  6BB8               	clrf	(?_eeprom_write+1)^(__Lparam& (0+65280)),b
  4467  008604  51AC               	movf	?_WriteEEVNT1^(__Lparam& (0+65280)),w
  4468  008606  D098               	goto	L58
  4469                           ;konfig.c: 1058: }
  4470  008608                     __end_of_WriteEEVNT1:
  4471                           ;konfig.c: 1059: unsigned char ReadEEVNT1_V()
  4472                           ;konfig.c: 1060: {
  4473  008608                     _ReadEEVNT1_V:
  4474  000000                     
  4475                           ;konfig.c: 1061: return eeprom_read(0x00E2);
  4476  008608  0EE2               	movlw	226
  4477  00860A  D079               	goto	L59
  4478                           ;konfig.c: 1062: }
  4479  00860C                     __end_of_ReadEEVNT1_V:
  4480                           ;konfig.c: 1063: unsigned char ReadEEVNT1_P()
  4481                           ;konfig.c: 1064: {
  4482  00860C                     _ReadEEVNT1_P:
  4483  000000                     
  4484                           ;konfig.c: 1065: return eeprom_read(0x00E3);
  4485  00860C  0EE3               	movlw	227
  4486  00860E  D077               	goto	L59
  4487                           ;konfig.c: 1066: }
  4488  008610                     __end_of_ReadEEVNT1_P:
  4489                           ;konfig.c: 1068: void WriteEEVNT2(unsigned char 
      +                          v,unsigned char p)
  4490                           ;konfig.c: 1069: {
  4491  008610  00AC               	dw	?_WriteEEVNT2
  4492  008612                     _WriteEEVNT2:
  4493  000000                     
  4494                           ; _v loaded to fsr2l
  4495  008612  6ED9               	movwf	fsr2l,c
  4496                           ;konfig.c: 1070: eeprom_write(0x00E4,v);
  4497  008614  0EE4               	movlw	228
  4498  008616  0100               	movlb	__Lparam shr (0+8)
  4499  008618  6FB7               	movwf	?_eeprom_write^(__Lparam& (0+65280)),b
  4500  00861A  6BB8               	clrf	(?_eeprom_write+1)^(__Lparam& (0+65280)),b
  4501  00861C  50D9               	movf	fsr2l,w,c
  4502  00861E  6FB9               	movwf	(?_eeprom_write+2)^(__Lparam& (0+65280)),
      +                          b
  4503  008620  EC5C  F006         	call	_eeprom_write	;wreg free
  4504                           ;konfig.c: 1071: eeprom_write(0x00E5,p);
  4505  008624  0EE5               	movlw	229
  4506  008626  0100               	movlb	__Lparam shr (0+8)
  4507  008628  6FB7               	movwf	?_eeprom_write^(__Lparam& (0+65280)),b
  4508  00862A  6BB8               	clrf	(?_eeprom_write+1)^(__Lparam& (0+65280)),b
  4509  00862C  51AC               	movf	?_WriteEEVNT2^(__Lparam& (0+65280)),w
  4510  00862E  D084               	goto	L58
  4511                           ;konfig.c: 1072: }
  4512  008630                     __end_of_WriteEEVNT2:
  4513                           ;konfig.c: 1073: unsigned char ReadEEVNT2_V()
  4514                           ;konfig.c: 1074: {
  4515  008630                     _ReadEEVNT2_V:
  4516  000000                     
  4517                           ;konfig.c: 1075: return eeprom_read(0x00E4);
  4518  008630  0EE4               	movlw	228
  4519  008632  D065               	goto	L59
  4520                           ;konfig.c: 1076: }
  4521  008634                     __end_of_ReadEEVNT2_V:
  4522                           ;konfig.c: 1077: unsigned char ReadEEVNT2_P()
  4523                           ;konfig.c: 1078: {
  4524  008634                     _ReadEEVNT2_P:
  4525  000000                     
  4526                           ;konfig.c: 1079: return eeprom_read(0x00E5);
  4527  008634  0EE5               	movlw	229
  4528  008636  D063               	goto	L59
  4529                           ;konfig.c: 1080: }
  4530  008638                     __end_of_ReadEEVNT2_P:
  4531                           ;konfig.c: 1082: void WriteEEVNT3(unsigned char 
      +                          v,unsigned char p)
  4532                           ;konfig.c: 1083: {
  4533  008638  00AC               	dw	?_WriteEEVNT3
  4534  00863A                     _WriteEEVNT3:
  4535  000000                     
  4536                           ; _v loaded to fsr2l
  4537  00863A  6ED9               	movwf	fsr2l,c
  4538                           ;konfig.c: 1084: eeprom_write(0x00E6,v);
  4539  00863C  0EE6               	movlw	230
  4540  00863E  0100               	movlb	__Lparam shr (0+8)
  4541  008640  6FB7               	movwf	?_eeprom_write^(__Lparam& (0+65280)),b
  4542  008642  6BB8               	clrf	(?_eeprom_write+1)^(__Lparam& (0+65280)),b
  4543  008644  50D9               	movf	fsr2l,w,c
  4544  008646  6FB9               	movwf	(?_eeprom_write+2)^(__Lparam& (0+65280)),
      +                          b
  4545  008648  EC5C  F006         	call	_eeprom_write	;wreg free
  4546                           ;konfig.c: 1085: eeprom_write(0x00E7,p);
  4547  00864C  0EE7               	movlw	231
  4548  00864E  0100               	movlb	__Lparam shr (0+8)
  4549  008650  6FB7               	movwf	?_eeprom_write^(__Lparam& (0+65280)),b
  4550  008652  6BB8               	clrf	(?_eeprom_write+1)^(__Lparam& (0+65280)),b
  4551  008654  51AC               	movf	?_WriteEEVNT3^(__Lparam& (0+65280)),w
  4552  008656  D070               	goto	L58
  4553                           ;konfig.c: 1086: }
  4554  008658                     __end_of_WriteEEVNT3:
  4555                           ;konfig.c: 1087: unsigned char ReadEEVNT3_V()
  4556                           ;konfig.c: 1088: {
  4557  008658                     _ReadEEVNT3_V:
  4558  000000                     
  4559                           ;konfig.c: 1089: return eeprom_read(0x00E6);
  4560  008658  0EE6               	movlw	230
  4561  00865A  D051               	goto	L59
  4562                           ;konfig.c: 1090: }
  4563  00865C                     __end_of_ReadEEVNT3_V:
  4564                           ;konfig.c: 1091: unsigned char ReadEEVNT3_P()
  4565                           ;konfig.c: 1092: {
  4566  00865C                     _ReadEEVNT3_P:
  4567  000000                     
  4568                           ;konfig.c: 1093: return eeprom_read(0x00E7);
  4569  00865C  0EE7               	movlw	231
  4570  00865E  D04F               	goto	L59
  4571                           ;konfig.c: 1094: }
  4572  008660                     __end_of_ReadEEVNT3_P:
  4573                           ;konfig.c: 1096: void WriteEEVNT4(unsigned char 
      +                          v,unsigned char p)
  4574                           ;konfig.c: 1097: {
  4575  008660  00AC               	dw	?_WriteEEVNT4
  4576  008662                     _WriteEEVNT4:
  4577  000000                     
  4578                           ; _v loaded to fsr2l
  4579  008662  6ED9               	movwf	fsr2l,c
  4580                           ;konfig.c: 1098: eeprom_write(0x00E8,v);
  4581  008664  0EE8               	movlw	232
  4582  008666  0100               	movlb	__Lparam shr (0+8)
  4583  008668  6FB7               	movwf	?_eeprom_write^(__Lparam& (0+65280)),b
  4584  00866A  6BB8               	clrf	(?_eeprom_write+1)^(__Lparam& (0+65280)),b
  4585  00866C  50D9               	movf	fsr2l,w,c
  4586  00866E  6FB9               	movwf	(?_eeprom_write+2)^(__Lparam& (0+65280)),
      +                          b
  4587  008670  EC5C  F006         	call	_eeprom_write	;wreg free
  4588                           ;konfig.c: 1099: eeprom_write(0x00E9,p);
  4589  008674  0EE9               	movlw	233
  4590  008676  0100               	movlb	__Lparam shr (0+8)
  4591  008678  6FB7               	movwf	?_eeprom_write^(__Lparam& (0+65280)),b
  4592  00867A  6BB8               	clrf	(?_eeprom_write+1)^(__Lparam& (0+65280)),b
  4593  00867C  51AC               	movf	?_WriteEEVNT4^(__Lparam& (0+65280)),w
  4594  00867E  D05C               	goto	L58
  4595                           ;konfig.c: 1100: }
  4596  008680                     __end_of_WriteEEVNT4:
  4597                           ;konfig.c: 1101: unsigned char ReadEEVNT4_V()
  4598                           ;konfig.c: 1102: {
  4599  008680                     _ReadEEVNT4_V:
  4600  000000                     
  4601                           ;konfig.c: 1103: return eeprom_read(0x00E8);
  4602  008680  0EE8               	movlw	232
  4603  008682  D03D               	goto	L59
  4604                           ;konfig.c: 1104: }
  4605  008684                     __end_of_ReadEEVNT4_V:
  4606                           ;konfig.c: 1105: unsigned char ReadEEVNT4_P()
  4607                           ;konfig.c: 1106: {
  4608  008684                     _ReadEEVNT4_P:
  4609  000000                     
  4610                           ;konfig.c: 1107: return eeprom_read(0x00E9);
  4611  008684  0EE9               	movlw	233
  4612  008686  D03B               	goto	L59
  4613                           ;konfig.c: 1108: }
  4614  008688                     __end_of_ReadEEVNT4_P:
  4615                           ;konfig.c: 1110: void WriteEEVNT5(unsigned char 
      +                          v,unsigned char p)
  4616                           ;konfig.c: 1111: {
  4617  008688  00AC               	dw	?_WriteEEVNT5
  4618  00868A                     _WriteEEVNT5:
  4619  000000                     
  4620                           ; _v loaded to fsr2l
  4621  00868A  6ED9               	movwf	fsr2l,c
  4622                           ;konfig.c: 1112: eeprom_write(0x00EA,v);
  4623  00868C  0EEA               	movlw	234
  4624  00868E  0100               	movlb	__Lparam shr (0+8)
  4625  008690  6FB7               	movwf	?_eeprom_write^(__Lparam& (0+65280)),b
  4626  008692  6BB8               	clrf	(?_eeprom_write+1)^(__Lparam& (0+65280)),b
  4627  008694  50D9               	movf	fsr2l,w,c
  4628  008696  6FB9               	movwf	(?_eeprom_write+2)^(__Lparam& (0+65280)),
      +                          b
  4629  008698  EC5C  F006         	call	_eeprom_write	;wreg free
  4630                           ;konfig.c: 1113: eeprom_write(0x00EB,p);
  4631  00869C  0EEB               	movlw	235
  4632  00869E  0100               	movlb	__Lparam shr (0+8)
  4633  0086A0  6FB7               	movwf	?_eeprom_write^(__Lparam& (0+65280)),b
  4634  0086A2  6BB8               	clrf	(?_eeprom_write+1)^(__Lparam& (0+65280)),b
  4635  0086A4  51AC               	movf	?_WriteEEVNT5^(__Lparam& (0+65280)),w
  4636  0086A6  D048               	goto	L58
  4637                           ;konfig.c: 1114: }
  4638  0086A8                     __end_of_WriteEEVNT5:
  4639                           ;konfig.c: 1115: unsigned char ReadEEVNT5_V()
  4640                           ;konfig.c: 1116: {
  4641  0086A8                     _ReadEEVNT5_V:
  4642  000000                     
  4643                           ;konfig.c: 1117: return eeprom_read(0x00EA);
  4644  0086A8  0EEA               	movlw	234
  4645  0086AA  D029               	goto	L59
  4646                           ;konfig.c: 1118: }
  4647  0086AC                     __end_of_ReadEEVNT5_V:
  4648                           ;konfig.c: 1119: unsigned char ReadEEVNT5_P()
  4649                           ;konfig.c: 1120: {
  4650  0086AC                     _ReadEEVNT5_P:
  4651  000000                     
  4652                           ;konfig.c: 1121: return eeprom_read(0x00EB);
  4653  0086AC  0EEB               	movlw	235
  4654  0086AE  D027               	goto	L59
  4655                           ;konfig.c: 1122: }
  4656  0086B0                     __end_of_ReadEEVNT5_P:
  4657                           ;konfig.c: 1124: void WriteEEVNT6(unsigned char 
      +                          v,unsigned char p)
  4658                           ;konfig.c: 1125: {
  4659  0086B0  00AC               	dw	?_WriteEEVNT6
  4660  0086B2                     _WriteEEVNT6:
  4661  000000                     
  4662                           ; _v loaded to fsr2l
  4663  0086B2  6ED9               	movwf	fsr2l,c
  4664                           ;konfig.c: 1126: eeprom_write(0x00EC,v);
  4665  0086B4  0EEC               	movlw	236
  4666  0086B6  0100               	movlb	__Lparam shr (0+8)
  4667  0086B8  6FB7               	movwf	?_eeprom_write^(__Lparam& (0+65280)),b
  4668  0086BA  6BB8               	clrf	(?_eeprom_write+1)^(__Lparam& (0+65280)),b
  4669  0086BC  50D9               	movf	fsr2l,w,c
  4670  0086BE  6FB9               	movwf	(?_eeprom_write+2)^(__Lparam& (0+65280)),
      +                          b
  4671  0086C0  EC5C  F006         	call	_eeprom_write	;wreg free
  4672                           ;konfig.c: 1127: eeprom_write(0x00ED,p);
  4673  0086C4  0EED               	movlw	237
  4674  0086C6  0100               	movlb	__Lparam shr (0+8)
  4675  0086C8  6FB7               	movwf	?_eeprom_write^(__Lparam& (0+65280)),b
  4676  0086CA  6BB8               	clrf	(?_eeprom_write+1)^(__Lparam& (0+65280)),b
  4677  0086CC  51AC               	movf	?_WriteEEVNT6^(__Lparam& (0+65280)),w
  4678  0086CE  D034               	goto	L58
  4679                           ;konfig.c: 1128: }
  4680  0086D0                     __end_of_WriteEEVNT6:
  4681                           ;konfig.c: 1129: unsigned char ReadEEVNT6_V()
  4682                           ;konfig.c: 1130: {
  4683  0086D0                     _ReadEEVNT6_V:
  4684  000000                     
  4685                           ;konfig.c: 1131: return eeprom_read(0x00EC);
  4686  0086D0  0EEC               	movlw	236
  4687  0086D2  D015               	goto	L59
  4688                           ;konfig.c: 1132: }
  4689  0086D4                     __end_of_ReadEEVNT6_V:
  4690                           ;konfig.c: 1133: unsigned char ReadEEVNT6_P()
  4691                           ;konfig.c: 1134: {
  4692  0086D4                     _ReadEEVNT6_P:
  4693  000000                     
  4694                           ;konfig.c: 1135: return eeprom_read(0x00ED);
  4695  0086D4  0EED               	movlw	237
  4696  0086D6  D013               	goto	L59
  4697                           ;konfig.c: 1136: }
  4698  0086D8                     __end_of_ReadEEVNT6_P:
  4699                           ;konfig.c: 1138: void WriteEEVNT7(unsigned char 
      +                          v,unsigned char p)
  4700                           ;konfig.c: 1139: {
  4701  0086D8  00AC               	dw	?_WriteEEVNT7
  4702  0086DA                     _WriteEEVNT7:
  4703  000000                     
  4704                           ; _v loaded to fsr2l
  4705  0086DA  6ED9               	movwf	fsr2l,c
  4706                           ;konfig.c: 1140: eeprom_write(0x00EE,v);
  4707  0086DC  0EEE               	movlw	238
  4708  0086DE  0100               	movlb	__Lparam shr (0+8)
  4709  0086E0  6FB7               	movwf	?_eeprom_write^(__Lparam& (0+65280)),b
  4710  0086E2  6BB8               	clrf	(?_eeprom_write+1)^(__Lparam& (0+65280)),b
  4711  0086E4  50D9               	movf	fsr2l,w,c
  4712  0086E6  6FB9               	movwf	(?_eeprom_write+2)^(__Lparam& (0+65280)),
      +                          b
  4713  0086E8  EC5C  F006         	call	_eeprom_write	;wreg free
  4714                           ;konfig.c: 1141: eeprom_write(0x00EF,p);
  4715  0086EC  0EEF               	movlw	239
  4716  0086EE  0100               	movlb	__Lparam shr (0+8)
  4717  0086F0  6FB7               	movwf	?_eeprom_write^(__Lparam& (0+65280)),b
  4718  0086F2  6BB8               	clrf	(?_eeprom_write+1)^(__Lparam& (0+65280)),b
  4719  0086F4  51AC               	movf	?_WriteEEVNT7^(__Lparam& (0+65280)),w
  4720  0086F6  D020               	goto	L58
  4721                           ;konfig.c: 1142: }
  4722  0086F8                     __end_of_WriteEEVNT7:
  4723                           ;konfig.c: 1143: unsigned char ReadEEVNT7_V()
  4724                           ;konfig.c: 1144: {
  4725  0086F8                     _ReadEEVNT7_V:
  4726  000000                     
  4727                           ;konfig.c: 1145: return eeprom_read(0x00EE);
  4728  0086F8  0EEE               	movlw	238
  4729  0086FA  D001               	goto	L59
  4730                           ;konfig.c: 1146: }
  4731  0086FC                     __end_of_ReadEEVNT7_V:
  4732                           ;konfig.c: 1147: unsigned char ReadEEVNT7_P()
  4733                           ;konfig.c: 1148: {
  4734  0086FC                     _ReadEEVNT7_P:
  4735  000000                     
  4736                           ;konfig.c: 1149: return eeprom_read(0x00EF);
  4737  0086FC  0EEF               	movlw	239
  4738  0086FE                     L59:
  4739  0086FE  0100               	movlb	__Lparam shr (0+8)
  4740  008700  6FB7               	movwf	?_eeprom_read^(__Lparam& (0+65280)),b
  4741  008702  6BB8               	clrf	(?_eeprom_read+1)^(__Lparam& (0+65280)),b
  4742  008704  EF2F  F007         	goto	_eeprom_read	;wreg free
  4743                           ;konfig.c: 1150: }
  4744  008708                     __end_of_ReadEEVNT7_P:
  4745                           ;konfig.c: 1154: void if_eeprom_write(unsigned i
      +                          nt adr, unsigned char dta)
  4746                           ;konfig.c: 1155: {
  4747  008708  00B4               	dw	?_if_eeprom_write
  4748  00870A                     _if_eeprom_write:
  4749  000000                     
  4750                           ;konfig.c: 1156: if(eeprom_read(adr)!=dta)
  4751  00870A  C0B4  F0B7         	movff	?_if_eeprom_write,?_eeprom_read
  4752  00870E  C0B5  F0B8         	movff	?_if_eeprom_write+1,?_eeprom_read+1
  4753  008712  EC2F  F007         	call	_eeprom_read	;wreg free
  4754  008716  6E00               	movwf	btemp,c
  4755  008718  C0B6  F002         	movff	?_if_eeprom_write+2,btemp+2
  4756  00871C  6A03               	clrf	btemp+3,c
  4757  00871E  C000  FFE8         	movff	btemp,wreg
  4758  008722  1802               	xorwf	btemp+2,w,c
  4759  008724  E101               	bnz	u3125
  4760  008726  5203               	movf	btemp+3,f,c
  4761  008728                     u3125:
  4762  008728  B4D8               	btfsc	status,2,c
  4763  00872A  0012               	return	
  4764                           ;konfig.c: 1157: {
  4765  00872C  C0B4  F0B7         	movff	?_if_eeprom_write,?_eeprom_write
  4766  008730  C0B5  F0B8         	movff	?_if_eeprom_write+1,?_eeprom_write+1
  4767  008734  0100               	movlb	__Lparam shr (0+8)
  4768  008736  51B6               	movf	(?_if_eeprom_write+2)^(__Lparam& (0+65280)
      +                          ),w
  4769  008738                     L58:
  4770  008738  6FB9               	movwf	(?_eeprom_write+2)^(__Lparam& (0+65280)),
      +                          b
  4771  00873A  EF5C  F006         	goto	_eeprom_write	;wreg free
  4772                           ;konfig.c: 1159: }
  4773  00873E                     __end_of_if_eeprom_write:
  4774                           ;konfig.c: 1164: unsigned char ReadBtyHNPZ(void)
  4775                           ;konfig.c: 1165: {
  4776  00873E                     _ReadBtyHNPZ:
  4777  000000                     
  4778                           ;konfig.c: 1166: return eeprom_read(0x01EA);
  4779  00873E  0100               	movlb	__Lparam shr (0+8)
  4780  008740  0EEA               	movlw	234
  4781  008742  D002               	goto	L60
  4782                           ;konfig.c: 1167: }
  4783  008744                     __end_of_ReadBtyHNPZ:
  4784                           ;konfig.c: 1171: unsigned char ReadBtyHFLG(void)
  4785                           ;konfig.c: 1172: {
  4786  008744                     _ReadBtyHFLG:
  4787  000000                     
  4788                           ;konfig.c: 1173: return eeprom_read(0x01ED);
  4789  008744  0100               	movlb	__Lparam shr (0+8)
  4790  008746  0EED               	movlw	237
  4791  008748                     L60:
  4792  008748  6FB7               	movwf	?_eeprom_read^(__Lparam& (0+65280)),b
  4793  00874A  0E01               	movlw	1
  4794  00874C  D063               	goto	L61
  4795                           ;konfig.c: 1174: }
  4796  00874E                     __end_of_ReadBtyHFLG:
  4797                           ;konfig.c: 1178: unsigned char ReadBtyHREF(const
      +                           unsigned char ind)
  4798                           ;konfig.c: 1179: {
  4799  00874E                     _ReadBtyHREF:
  4800  000000                     
  4801                           ; _ind loaded to fsr2l
  4802  00874E  6ED9               	movwf	fsr2l,c
  4803                           ;_ind stored from fsr2l
  4804                           ;konfig.c: 1180: if(ind>1) return 0;
  4805                           ;_ind stored from fsr2l
  4806  008750  50D9               	movf	fsr2l,w,c
  4807  008752  0100               	movlb	__Lparam shr (0+8)
  4808  008754  6FB0               	movwf	?a_ReadBtyHREF^(__Lparam& (0+65280)),b
  4809  008756  0E01               	movlw	1
  4810  008758  64D9               	cpfsgt	fsr2l,c
  4811  00875A  D001               	goto	l259
  4812  00875C  0C00               	retlw	0
  4813  00875E                     l259:
  4814                           ;konfig.c: 1181: return eeprom_read(0x01EB+ind);
  4815  00875E  0100               	movlb	__Lparam shr (0+8)
  4816  008760  0EEB               	movlw	235
  4817  008762  25B0               	addwf	?a_ReadBtyHREF^(__Lparam& (0+65280)),w
  4818  008764  D00B               	goto	L62
  4819                           ;konfig.c: 1182: }
  4820  008766                     __end_of_ReadBtyHREF:
  4821                           ;konfig.c: 1186: unsigned char ReadBtyEEHIST(con
      +                          st unsigned char ind)
  4822                           ;konfig.c: 1187: {
  4823  008766                     _ReadBtyEEHIST:
  4824  000000                     
  4825                           ; _ind loaded to fsr2l
  4826  008766  6ED9               	movwf	fsr2l,c
  4827                           ;_ind stored from fsr2l
  4828                           ;konfig.c: 1188: if(ind>16-1) return 0;
  4829                           ;_ind stored from fsr2l
  4830  008768  50D9               	movf	fsr2l,w,c
  4831  00876A  0100               	movlb	__Lparam shr (0+8)
  4832  00876C  6FB0               	movwf	?a_ReadBtyEEHIST^(__Lparam& (0+65280)),b
  4833  00876E  0E0F               	movlw	15
  4834  008770  64D9               	cpfsgt	fsr2l,c
  4835  008772  D001               	goto	l261
  4836  008774  0C00               	retlw	0
  4837  008776                     l261:
  4838                           ;konfig.c: 1189: return eeprom_read(0x01EE+ind);
  4839  008776  0100               	movlb	__Lparam shr (0+8)
  4840  008778  0EEE               	movlw	238
  4841  00877A  25B0               	addwf	?a_ReadBtyEEHIST^(__Lparam& (0+65280)),w
  4842  00877C                     L62:
  4843  00877C  6FB7               	movwf	?_eeprom_read^(__Lparam& (0+65280)),b
  4844  00877E  6BB8               	clrf	(?_eeprom_read+1)^(__Lparam& (0+65280)),b
  4845  008780  0E01               	movlw	1
  4846  008782  D00E               	goto	L63
  4847                           ;konfig.c: 1190: }
  4848  008784                     __end_of_ReadBtyEEHIST:
  4849                           ;konfig.c: 1203: unsigned char ReadBtyNZSTAT(con
      +                          st unsigned char ind)
  4850                           ;konfig.c: 1204: {
  4851  008784                     _ReadBtyNZSTAT:
  4852  000000                     
  4853                           ; _ind loaded to fsr2l
  4854  008784  6ED9               	movwf	fsr2l,c
  4855                           ;_ind stored from fsr2l
  4856                           ;konfig.c: 1205: if(ind>1) return 0;
  4857                           ;_ind stored from fsr2l
  4858  008786  50D9               	movf	fsr2l,w,c
  4859  008788  0100               	movlb	__Lparam shr (0+8)
  4860  00878A  6FB0               	movwf	?a_ReadBtyNZSTAT^(__Lparam& (0+65280)),b
  4861  00878C  0E01               	movlw	1
  4862  00878E  64D9               	cpfsgt	fsr2l,c
  4863  008790  D001               	goto	l263
  4864  008792  0C00               	retlw	0
  4865  008794                     l263:
  4866                           ;konfig.c: 1206: return eeprom_read(0x0200+ind);
  4867  008794  0100               	movlb	__Lparam shr (0+8)
  4868  008796  0E00               	movlw	0
  4869  008798  25B0               	addwf	?a_ReadBtyNZSTAT^(__Lparam& (0+65280)),w
  4870  00879A  6FB7               	movwf	?_eeprom_read^(__Lparam& (0+65280)),b
  4871  00879C  6BB8               	clrf	(?_eeprom_read+1)^(__Lparam& (0+65280)),b
  4872  00879E  0E02               	movlw	2
  4873  0087A0                     L63:
  4874  0087A0  23B8               	addwfc	(?_eeprom_read+1)^(__Lparam& (0+65280)),
      +                          f,b
  4875  0087A2  EF2F  F007         	goto	_eeprom_read	;wreg free
  4876                           ;konfig.c: 1207: }
  4877  0087A6                     __end_of_ReadBtyNZSTAT:
  4878                           ;konfig.c: 1211: void WriteBtyNZSTAT(const unsig
      +                          ned char ind, const unsigned char dt)
  4879                           ;konfig.c: 1212: {
  4880  0087A6  00B0               	dw	?_WriteBtyNZSTAT
  4881  0087A8                     _WriteBtyNZSTAT:
  4882  000000                     
  4883                           ; _ind loaded to fsr2l
  4884  0087A8  6ED9               	movwf	fsr2l,c
  4885                           ;konfig.c: 1213: if(ind>1) return;
  4886  0087AA  0E01               	movlw	1
  4887  0087AC  64D9               	cpfsgt	fsr2l,c
  4888  0087AE  D001               	goto	l265
  4889  0087B0  0C01               	retlw	1
  4890  0087B2                     l265:
  4891                           ;konfig.c: 1214: if_eeprom_write(0x0200+ind,dt);
  4892  0087B2  0E00               	movlw	0
  4893  0087B4  24D9               	addwf	fsr2l,w,c
  4894  0087B6  0100               	movlb	__Lparam shr (0+8)
  4895  0087B8  6FB4               	movwf	?_if_eeprom_write^(__Lparam& (0+65280)),b
  4896  0087BA  6BB5               	clrf	(?_if_eeprom_write+1)^(__Lparam& (0+65280)
      +                          ),b
  4897  0087BC  0E02               	movlw	2
  4898  0087BE  23B5               	addwfc	(?_if_eeprom_write+1)^(__Lparam& (0+6528
      +                          0)),f,b
  4899  0087C0  51B0               	movf	?_WriteBtyNZSTAT^(__Lparam& (0+65280)),w
  4900  0087C2  D055               	goto	L64
  4901                           ;konfig.c: 1215: }
  4902  0087C4                     __end_of_WriteBtyNZSTAT:
  4903                           ;konfig.c: 1222: unsigned char ReadBtySTAT(const
      +                           unsigned char nr, const unsigned char ind)
  4904                           ;konfig.c: 1223: {
  4905  0087C4  00B2               	dw	?_ReadBtySTAT
  4906  0087C6                     _ReadBtySTAT:
  4907  000000                     
  4908                           ; _nr loaded to fsr2l
  4909  0087C6  6ED9               	movwf	fsr2l,c
  4910                           ;konfig.c: 1224: volatile unsigned int adr;
  4911  0087C8  0E03               	movlw	3
  4912  0087CA  64D9               	cpfsgt	fsr2l,c
  4913  0087CC  D001               	goto	l267
  4914  0087CE  0C00               	retlw	0
  4915  0087D0                     l267:
  4916                           ;konfig.c: 1227: if(ind>23-1) return 0;
  4917  0087D0  0E16               	movlw	22
  4918  0087D2  0100               	movlb	__Lparam shr (0+8)
  4919  0087D4  65B2               	cpfsgt	?_ReadBtySTAT^(__Lparam& (0+65280)),b
  4920  0087D6  D010               	goto	l270
  4921  0087D8  0C00               	retlw	0
  4922                           ;konfig.c: 1228: switch(nr)
  4923  0087DA                     l271:
  4924                           ;konfig.c: 1229: {
  4925                           ;konfig.c: 1231: {
  4926  0087DA  0100               	movlb	__Lparam shr (0+8)
  4927  0087DC  0E08               	movlw	8
  4928  0087DE  D008               	goto	L11
  4929                           ;konfig.c: 1233: break;
  4930  0087E0                     l272:
  4931                           ;konfig.c: 1234: }
  4932                           ;konfig.c: 1236: {
  4933  0087E0  0100               	movlb	__Lparam shr (0+8)
  4934  0087E2  0E28               	movlw	40
  4935  0087E4  D005               	goto	L11
  4936                           ;konfig.c: 1238: break;
  4937  0087E6                     l273:
  4938                           ;konfig.c: 1239: }
  4939                           ;konfig.c: 1241: {
  4940  0087E6  0100               	movlb	__Lparam shr (0+8)
  4941  0087E8  0E48               	movlw	72
  4942  0087EA  D002               	goto	L11
  4943                           ;konfig.c: 1243: break;
  4944  0087EC                     l274:
  4945                           ;konfig.c: 1244: }
  4946                           ;konfig.c: 1246: {
  4947  0087EC  0100               	movlb	__Lparam shr (0+8)
  4948  0087EE  0E68               	movlw	104
  4949  0087F0                     L11:
  4950  0087F0  6FB3               	movwf	?a_ReadBtySTAT^(__Lparam& (0+65280)),b	;v
      +                          olatile
  4951  0087F2  0E02               	movlw	2
  4952  0087F4  6FB4               	movwf	(?a_ReadBtySTAT+1)^(__Lparam& (0+65280)),
      +                          b	;volatile
  4953                           ;konfig.c: 1248: break;
  4954  0087F6  D008               	goto	l269
  4955  0087F8                     l270:
  4956  0087F8  50D9               	movf	fsr2l,w,c
  4957  0087FA  E0EF               	bz	l271
  4958  0087FC  0A01               	xorlw	1
  4959  0087FE  E0F0               	bz	l272
  4960  008800  0A03               	xorlw	3
  4961  008802  E0F1               	bz	l273
  4962  008804  0A01               	xorlw	1
  4963  008806  E0F2               	bz	l274
  4964  008808                     l269:
  4965                           ;konfig.c: 1251: return eeprom_read(adr+ind);
  4966  008808  0100               	movlb	__Lparam shr (0+8)
  4967  00880A  51B2               	movf	?_ReadBtySTAT^(__Lparam& (0+65280)),w
  4968  00880C  25B3               	addwf	?a_ReadBtySTAT^(__Lparam& (0+65280)),w	;v
      +                          olatile
  4969  00880E  6FB7               	movwf	?_eeprom_read^(__Lparam& (0+65280)),b
  4970  008810  0E00               	movlw	0
  4971  008812  21B4               	addwfc	(?a_ReadBtySTAT+1)^(__Lparam& (0+65280))
      +                          ,w
  4972  008814                     L61:
  4973  008814  6FB8               	movwf	(?_eeprom_read+1)^(__Lparam& (0+65280)),b
      +                          	;volatile
  4974  008816  EF2F  F007         	goto	_eeprom_read	;wreg free
  4975                           ;konfig.c: 1252: }
  4976  00881A                     __end_of_ReadBtySTAT:
  4977                           ;konfig.c: 1259: void WriteBtySTAT(const unsigne
      +                          d char nr, const unsigned char ind, const unsign
      +                          ed char dt)
  4978                           ;konfig.c: 1260: {
  4979  00881A  00B0               	dw	?_WriteBtySTAT
  4980  00881C                     _WriteBtySTAT:
  4981  000000                     
  4982                           ; _nr loaded to fsr2l
  4983  00881C  6ED9               	movwf	fsr2l,c
  4984                           ;konfig.c: 1261: volatile unsigned int adr;
  4985  00881E  0E03               	movlw	3
  4986  008820  64D9               	cpfsgt	fsr2l,c
  4987  008822  D001               	goto	l276
  4988  008824  0C03               	retlw	3
  4989  008826                     l276:
  4990                           ;konfig.c: 1264: if(ind>23-1) return;
  4991  008826  0E16               	movlw	22
  4992  008828  0100               	movlb	__Lparam shr (0+8)
  4993  00882A  65B0               	cpfsgt	?_WriteBtySTAT^(__Lparam& (0+65280)),b
  4994  00882C  D010               	goto	l279
  4995  00882E  0C16               	retlw	22
  4996                           ;konfig.c: 1265: switch(nr)
  4997  008830                     l280:
  4998                           ;konfig.c: 1266: {
  4999                           ;konfig.c: 1268: {
  5000  008830  0100               	movlb	__Lparam shr (0+8)
  5001  008832  0E08               	movlw	8
  5002  008834  D008               	goto	L14
  5003                           ;konfig.c: 1270: break;
  5004  008836                     l281:
  5005                           ;konfig.c: 1271: }
  5006                           ;konfig.c: 1273: {
  5007  008836  0100               	movlb	__Lparam shr (0+8)
  5008  008838  0E28               	movlw	40
  5009  00883A  D005               	goto	L14
  5010                           ;konfig.c: 1275: break;
  5011  00883C                     l282:
  5012                           ;konfig.c: 1276: }
  5013                           ;konfig.c: 1278: {
  5014  00883C  0100               	movlb	__Lparam shr (0+8)
  5015  00883E  0E48               	movlw	72
  5016  008840  D002               	goto	L14
  5017                           ;konfig.c: 1280: break;
  5018  008842                     l283:
  5019                           ;konfig.c: 1281: }
  5020                           ;konfig.c: 1283: {
  5021  008842  0100               	movlb	__Lparam shr (0+8)
  5022  008844  0E68               	movlw	104
  5023  008846                     L14:
  5024  008846  6FB2               	movwf	?a_WriteBtySTAT^(__Lparam& (0+65280)),b	;
      +                          volatile
  5025  008848  0E02               	movlw	2
  5026  00884A  6FB3               	movwf	(?a_WriteBtySTAT+1)^(__Lparam& (0+65280))
      +                          ,b	;volatile
  5027                           ;konfig.c: 1285: break;
  5028  00884C  D008               	goto	l278
  5029  00884E                     l279:
  5030  00884E  50D9               	movf	fsr2l,w,c
  5031  008850  E0EF               	bz	l280
  5032  008852  0A01               	xorlw	1
  5033  008854  E0F0               	bz	l281
  5034  008856  0A03               	xorlw	3
  5035  008858  E0F1               	bz	l282
  5036  00885A  0A01               	xorlw	1
  5037  00885C  E0F2               	bz	l283
  5038  00885E                     l278:
  5039                           ;konfig.c: 1288: if_eeprom_write(adr+ind,dt);
  5040  00885E  0100               	movlb	__Lparam shr (0+8)
  5041  008860  51B0               	movf	?_WriteBtySTAT^(__Lparam& (0+65280)),w
  5042  008862  25B2               	addwf	?a_WriteBtySTAT^(__Lparam& (0+65280)),w	;
      +                          volatile
  5043  008864  6FB4               	movwf	?_if_eeprom_write^(__Lparam& (0+65280)),b
  5044  008866  0E00               	movlw	0
  5045  008868  21B3               	addwfc	(?a_WriteBtySTAT+1)^(__Lparam& (0+65280)
      +                          ),w
  5046  00886A  6FB5               	movwf	(?_if_eeprom_write+1)^(__Lparam& (0+65280
      +                          )),b	;volatile
  5047  00886C  51B1               	movf	(?_WriteBtySTAT+1)^(__Lparam& (0+65280)),w
  5048  00886E                     L64:
  5049  00886E  6FB6               	movwf	(?_if_eeprom_write+2)^(__Lparam& (0+65280
      +                          )),b
  5050  008870  D74C               	goto	_if_eeprom_write	;wreg free
  5051                           ;konfig.c: 1289: }
  5052  008872                     __end_of_WriteBtySTAT:
  5053                           ;konfig.c: 1295: void WriteEESTAT(const unsigned
      +                           char nr)
  5054                           ;konfig.c: 1296: {
  5055  008872                     _WriteEESTAT:
  5056  000000                     
  5057                           ; _nr loaded to fsr2l
  5058  008872  6ED9               	movwf	fsr2l,c
  5059                           ;_nr stored from fsr2l
  5060                           ;konfig.c: 1297: volatile unsigned int d;
  5061                           ;_nr stored from fsr2l
  5062  008874  50D9               	movf	fsr2l,w,c
  5063  008876  0100               	movlb	__Lparam shr (0+8)
  5064  008878  6FAC               	movwf	(?a_WriteEESTAT+1)^(__Lparam& (0+65280)),
      +                          b
  5065  00887A  0E03               	movlw	3
  5066  00887C  64D9               	cpfsgt	fsr2l,c
  5067  00887E  D001               	goto	l285
  5068  008880  0C03               	retlw	3
  5069  008882                     l285:
  5070                           ;konfig.c: 1304: d=ReadBtyNZSTAT(0)+(ReadBtyNZST
      +                          AT(1)*256);
  5071  008882  0E00               	movlw	0
  5072  008884  DF7F               	call	_ReadBtyNZSTAT
  5073  008886  0100               	movlb	__Lparam shr (0+8)
  5074  008888  6FAF               	movwf	(?a_WriteEESTAT+4)^(?a_WriteEESTAT& (0+65
      +                          280)),b
  5075  00888A  0E01               	movlw	1
  5076  00888C  DF7B               	call	_ReadBtyNZSTAT
  5077  00888E  0100               	movlb	__Lparam shr (0+8)
  5078  008890  6FAE               	movwf	(?a_WriteEESTAT+3)^(__Lparam& (0+65280)),
      +                          b	;volatile
  5079  008892  C0AF  F0AD         	movff	?a_WriteEESTAT+4,?a_WriteEESTAT+2
  5080                           ;konfig.c: 1305: if(d<0xffff) d++;
  5081  008896  29AD               	incf	(?a_WriteEESTAT+2)^(__Lparam& (0+65280)),w
      +                          	;volatile
  5082  008898  B4D8               	btfsc	status,2,c
  5083  00889A  29AE               	incf	(?a_WriteEESTAT+3)^(__Lparam& (0+65280)),w
      +                          	;volatile
  5084  00889C  E003               	bz	l286
  5085  00889E  4BAD               	infsnz	(?a_WriteEESTAT+2)^(__Lparam& (0+65280))
      +                          ,f,b	;volatile
  5086  0088A0  2BAE               	incf	(?a_WriteEESTAT+3)^(__Lparam& (0+65280)),f
      +                          ,b	;volatile
  5087  0088A2  D004               	goto	l287
  5088  0088A4                     l286:
  5089                           ;konfig.c: 1306: else d=1;
  5090  0088A4  0E01               	movlw	1
  5091  0088A6  0100               	movlb	__Lparam shr (0+8)
  5092  0088A8  6FAD               	movwf	(?a_WriteEESTAT+2)^(__Lparam& (0+65280)),
      +                          b	;volatile
  5093  0088AA  6BAE               	clrf	(?a_WriteEESTAT+3)^(__Lparam& (0+65280)),b
      +                          	;volatile
  5094  0088AC                     l287:
  5095                           ;konfig.c: 1308: e=(unsigned char)(d&0x00ff);
  5096  0088AC  C0AD  F0AB         	movff	?a_WriteEESTAT+2,?a_WriteEESTAT	;volatile
  5097                           ;konfig.c: 1309: WriteBtyNZSTAT(0,e);
  5098  0088B0  0100               	movlb	__Lparam shr (0+8)
  5099  0088B2  51AB               	movf	?a_WriteEESTAT^(__Lparam& (0+65280)),w	;vo
      +                          latile
  5100  0088B4  6FB0               	movwf	?_WriteBtyNZSTAT^(__Lparam& (0+65280)),b
  5101  0088B6  0E00               	movlw	0
  5102  0088B8  DF77               	call	_WriteBtyNZSTAT
  5103                           ;konfig.c: 1310: e=(unsigned char)((d&0xff00)>>8
      +                          );
  5104  0088BA  0100               	movlb	__Lparam shr (0+8)
  5105  0088BC  0E00               	movlw	0
  5106  0088BE  15AD               	andwf	(?a_WriteEESTAT+2)^(__Lparam& (0+65280)),
      +                          w	;volatile
  5107  0088C0  6E00               	movwf	btemp,c
  5108  0088C2  0EFF               	movlw	255
  5109  0088C4  15AE               	andwf	(?a_WriteEESTAT+3)^(__Lparam& (0+65280)),
      +                          w	;volatile
  5110  0088C6  6E01               	movwf	btemp+1,c
  5111  0088C8  C001  F000         	movff	btemp+1,btemp
  5112  0088CC  6A01               	clrf	btemp+1,c
  5113  0088CE  5000               	movf	btemp,w,c
  5114  0088D0  6FAB               	movwf	?a_WriteEESTAT^(__Lparam& (0+65280)),b	;v
      +                          olatile
  5115                           ;konfig.c: 1311: WriteBtyNZSTAT(1,e);
  5116  0088D2  51AB               	movf	?a_WriteEESTAT^(__Lparam& (0+65280)),w	;vo
      +                          latile
  5117  0088D4  6FB0               	movwf	?_WriteBtyNZSTAT^(__Lparam& (0+65280)),b
  5118  0088D6  0E01               	movlw	1
  5119  0088D8  DF67               	call	_WriteBtyNZSTAT
  5120                           ;konfig.c: 1314: e=ReadBtyHREF(0);
  5121  0088DA  0E00               	movlw	0
  5122  0088DC  DF38               	call	_ReadBtyHREF
  5123  0088DE  0100               	movlb	__Lparam shr (0+8)
  5124  0088E0  6FAB               	movwf	?a_WriteEESTAT^(__Lparam& (0+65280)),b	;v
      +                          olatile
  5125                           ;konfig.c: 1315: WriteBtySTAT(nr,0,e);
  5126  0088E2  6BB0               	clrf	?_WriteBtySTAT^(__Lparam& (0+65280)),b
  5127  0088E4  51AB               	movf	?a_WriteEESTAT^(__Lparam& (0+65280)),w	;vo
      +                          latile
  5128  0088E6  6FB1               	movwf	(?_WriteBtySTAT+1)^(__Lparam& (0+65280)),
      +                          b
  5129  0088E8  51AC               	movf	(?a_WriteEESTAT+1)^(__Lparam& (0+65280)),w
  5130  0088EA  DF98               	call	_WriteBtySTAT
  5131                           ;konfig.c: 1316: e=ReadBtyHREF(1);
  5132  0088EC  0E01               	movlw	1
  5133  0088EE  DF2F               	call	_ReadBtyHREF
  5134  0088F0  0100               	movlb	__Lparam shr (0+8)
  5135  0088F2  6FAB               	movwf	?a_WriteEESTAT^(__Lparam& (0+65280)),b	;v
      +                          olatile
  5136                           ;konfig.c: 1317: WriteBtySTAT(nr,1,e);
  5137  0088F4  0E01               	movlw	1
  5138  0088F6  6FB0               	movwf	?_WriteBtySTAT^(__Lparam& (0+65280)),b
  5139  0088F8  51AB               	movf	?a_WriteEESTAT^(__Lparam& (0+65280)),w	;vo
      +                          latile
  5140  0088FA  6FB1               	movwf	(?_WriteBtySTAT+1)^(__Lparam& (0+65280)),
      +                          b
  5141  0088FC  51AC               	movf	(?a_WriteEESTAT+1)^(__Lparam& (0+65280)),w
  5142  0088FE  DF8E               	call	_WriteBtySTAT
  5143                           ;konfig.c: 1319: e=RSDT1.outSTAT0;
  5144  008900  C344  F0AB         	movff	_RSDT1+23,?a_WriteEESTAT	;volatile
  5145                           ;konfig.c: 1320: e|=0b00000001;
  5146  008904  0100               	movlb	__Lparam shr (0+8)
  5147  008906  81AB               	bsf	?a_WriteEESTAT^(__Lparam& (0+65280)),0,b	;v
      +                          olatile
  5148                           ;konfig.c: 1321: if(DtKNF.tpkt==0)
  5149  008908  EE02  F0BC         	lfsr	0,_DtKNF+14
  5150  00890C  50EF               	movf	indf0,w,c
  5151  00890E  E102               	bnz	l288
  5152                           ;konfig.c: 1322: {
  5153  008910  83AB               	bsf	?a_WriteEESTAT^(__Lparam& (0+65280)),1,b	;v
      +                          olatile
  5154                           ;konfig.c: 1324: }
  5155  008912  D002               	goto	l289
  5156  008914                     l288:
  5157                           ;konfig.c: 1325: else
  5158  008914  0100               	movlb	__Lparam shr (0+8)
  5159  008916  93AB               	bcf	?a_WriteEESTAT^(__Lparam& (0+65280)),1,b	;v
      +                          olatile
  5160  008918                     l289:
  5161                           ;konfig.c: 1328: }
  5162  008918  0E02               	movlw	2
  5163  00891A  0100               	movlb	__Lparam shr (0+8)
  5164  00891C  6FB0               	movwf	?_WriteBtySTAT^(__Lparam& (0+65280)),b
  5165  00891E  51AB               	movf	?a_WriteEESTAT^(__Lparam& (0+65280)),w	;vo
      +                          latile
  5166  008920  6FB1               	movwf	(?_WriteBtySTAT+1)^(__Lparam& (0+65280)),
      +                          b
  5167  008922  51AC               	movf	(?a_WriteEESTAT+1)^(__Lparam& (0+65280)),w
  5168  008924  DF7B               	call	_WriteBtySTAT
  5169                           ;konfig.c: 1330: WriteBtySTAT(nr,3,RSDT1.outSTAT
      +                          1);
  5170  008926  0E03               	movlw	3
  5171  008928  0100               	movlb	__Lparam shr (0+8)
  5172  00892A  6FB0               	movwf	?_WriteBtySTAT^(__Lparam& (0+65280)),b
  5173  00892C  C345  F0B1         	movff	_RSDT1+24,?_WriteBtySTAT+1
  5174  008930  51AC               	movf	(?a_WriteEESTAT+1)^(__Lparam& (0+65280)),w
  5175  008932  DF74               	call	_WriteBtySTAT
  5176                           ;konfig.c: 1331: WriteBtySTAT(nr,4,RSDT1.outSTAT
      +                          2);
  5177  008934  0E04               	movlw	4
  5178  008936  0100               	movlb	__Lparam shr (0+8)
  5179  008938  6FB0               	movwf	?_WriteBtySTAT^(__Lparam& (0+65280)),b
  5180  00893A  C346  F0B1         	movff	_RSDT1+25,?_WriteBtySTAT+1
  5181  00893E  51AC               	movf	(?a_WriteEESTAT+1)^(__Lparam& (0+65280)),w
  5182  008940  DF6D               	call	_WriteBtySTAT
  5183                           ;konfig.c: 1332: WriteBtySTAT(nr,5,RSDT1.outSTAT
      +                          3);
  5184  008942  0E05               	movlw	5
  5185  008944  0100               	movlb	__Lparam shr (0+8)
  5186  008946  6FB0               	movwf	?_WriteBtySTAT^(__Lparam& (0+65280)),b
  5187  008948  C347  F0B1         	movff	_RSDT1+26,?_WriteBtySTAT+1
  5188  00894C  51AC               	movf	(?a_WriteEESTAT+1)^(__Lparam& (0+65280)),w
  5189  00894E  DF66               	call	_WriteBtySTAT
  5190                           ;konfig.c: 1333: WriteBtySTAT(nr,6,RSDT1.outSTAT
      +                          4);
  5191  008950  0E06               	movlw	6
  5192  008952  0100               	movlb	__Lparam shr (0+8)
  5193  008954  6FB0               	movwf	?_WriteBtySTAT^(__Lparam& (0+65280)),b
  5194  008956  C348  F0B1         	movff	_RSDT1+27,?_WriteBtySTAT+1
  5195  00895A  51AC               	movf	(?a_WriteEESTAT+1)^(__Lparam& (0+65280)),w
  5196  00895C  DF5F               	call	_WriteBtySTAT
  5197                           ;konfig.c: 1334: WriteBtySTAT(nr,7,RSDT1.outSTAT
      +                          5);
  5198  00895E  0E07               	movlw	7
  5199  008960  0100               	movlb	__Lparam shr (0+8)
  5200  008962  6FB0               	movwf	?_WriteBtySTAT^(__Lparam& (0+65280)),b
  5201  008964  C349  F0B1         	movff	_RSDT1+28,?_WriteBtySTAT+1
  5202  008968  51AC               	movf	(?a_WriteEESTAT+1)^(__Lparam& (0+65280)),w
  5203  00896A  DF58               	call	_WriteBtySTAT
  5204                           ;konfig.c: 1335: WriteBtySTAT(nr,8,RSDT1.outrCO)
      +                          ;
  5205  00896C  0E08               	movlw	8
  5206  00896E  0100               	movlb	__Lparam shr (0+8)
  5207  008970  6FB0               	movwf	?_WriteBtySTAT^(__Lparam& (0+65280)),b
  5208  008972  C34A  F0B1         	movff	_RSDT1+29,?_WriteBtySTAT+1
  5209  008976  51AC               	movf	(?a_WriteEESTAT+1)^(__Lparam& (0+65280)),w
  5210  008978  DF51               	call	_WriteBtySTAT
  5211                           ;konfig.c: 1336: WriteBtySTAT(nr,9,RSDT1.outrCW)
      +                          ;
  5212  00897A  0E09               	movlw	9
  5213  00897C  0100               	movlb	__Lparam shr (0+8)
  5214  00897E  6FB0               	movwf	?_WriteBtySTAT^(__Lparam& (0+65280)),b
  5215  008980  C34B  F0B1         	movff	_RSDT1+30,?_WriteBtySTAT+1
  5216  008984  51AC               	movf	(?a_WriteEESTAT+1)^(__Lparam& (0+65280)),w
  5217  008986  DF4A               	call	_WriteBtySTAT
  5218                           ;konfig.c: 1337: WriteBtySTAT(nr,10,RSDT1.outCS)
      +                          ;
  5219  008988  0E0A               	movlw	10
  5220  00898A  0100               	movlb	__Lparam shr (0+8)
  5221  00898C  6FB0               	movwf	?_WriteBtySTAT^(__Lparam& (0+65280)),b
  5222  00898E  C334  F0B1         	movff	_RSDT1+7,?_WriteBtySTAT+1
  5223  008992  51AC               	movf	(?a_WriteEESTAT+1)^(__Lparam& (0+65280)),w
  5224  008994  DF43               	call	_WriteBtySTAT
  5225                           ;konfig.c: 1338: WriteBtySTAT(nr,11,RSDT1.outIN)
      +                          ;
  5226  008996  0E0B               	movlw	11
  5227  008998  0100               	movlb	__Lparam shr (0+8)
  5228  00899A  6FB0               	movwf	?_WriteBtySTAT^(__Lparam& (0+65280)),b
  5229  00899C  C335  F0B1         	movff	_RSDT1+8,?_WriteBtySTAT+1
  5230  0089A0  51AC               	movf	(?a_WriteEESTAT+1)^(__Lparam& (0+65280)),w
  5231  0089A2  DF3C               	call	_WriteBtySTAT
  5232                           ;konfig.c: 1339: WriteBtySTAT(nr,12,RSDT1.outVNT
      +                          );
  5233  0089A4  0E0C               	movlw	12
  5234  0089A6  0100               	movlb	__Lparam shr (0+8)
  5235  0089A8  6FB0               	movwf	?_WriteBtySTAT^(__Lparam& (0+65280)),b
  5236  0089AA  C336  F0B1         	movff	_RSDT1+9,?_WriteBtySTAT+1
  5237  0089AE  51AC               	movf	(?a_WriteEESTAT+1)^(__Lparam& (0+65280)),w
  5238  0089B0  DF35               	call	_WriteBtySTAT
  5239                           ;konfig.c: 1340: WriteBtySTAT(nr,13,RSDT1.outPCO
      +                          );
  5240  0089B2  0E0D               	movlw	13
  5241  0089B4  0100               	movlb	__Lparam shr (0+8)
  5242  0089B6  6FB0               	movwf	?_WriteBtySTAT^(__Lparam& (0+65280)),b
  5243  0089B8  C337  F0B1         	movff	_RSDT1+10,?_WriteBtySTAT+1
  5244  0089BC  51AC               	movf	(?a_WriteEESTAT+1)^(__Lparam& (0+65280)),w
  5245  0089BE  DF2E               	call	_WriteBtySTAT
  5246                           ;konfig.c: 1341: WriteBtySTAT(nr,14,RSDT1.outPCW
      +                          );
  5247  0089C0  0E0E               	movlw	14
  5248  0089C2  0100               	movlb	__Lparam shr (0+8)
  5249  0089C4  6FB0               	movwf	?_WriteBtySTAT^(__Lparam& (0+65280)),b
  5250  0089C6  C338  F0B1         	movff	_RSDT1+11,?_WriteBtySTAT+1
  5251  0089CA  51AC               	movf	(?a_WriteEESTAT+1)^(__Lparam& (0+65280)),w
  5252  0089CC  DF27               	call	_WriteBtySTAT
  5253                           ;konfig.c: 1342: WriteBtySTAT(nr,15,RSDT1.outPPC
      +                          O);
  5254  0089CE  0E0F               	movlw	15
  5255  0089D0  0100               	movlb	__Lparam shr (0+8)
  5256  0089D2  6FB0               	movwf	?_WriteBtySTAT^(__Lparam& (0+65280)),b
  5257  0089D4  C33D  F0B1         	movff	_RSDT1+16,?_WriteBtySTAT+1
  5258  0089D8  51AC               	movf	(?a_WriteEESTAT+1)^(__Lparam& (0+65280)),w
  5259  0089DA  DF20               	call	_WriteBtySTAT
  5260                           ;konfig.c: 1343: WriteBtySTAT(nr,16,RSDT1.outPPC
      +                          W);
  5261  0089DC  0E10               	movlw	16
  5262  0089DE  0100               	movlb	__Lparam shr (0+8)
  5263  0089E0  6FB0               	movwf	?_WriteBtySTAT^(__Lparam& (0+65280)),b
  5264  0089E2  C33E  F0B1         	movff	_RSDT1+17,?_WriteBtySTAT+1
  5265  0089E6  51AC               	movf	(?a_WriteEESTAT+1)^(__Lparam& (0+65280)),w
  5266  0089E8  DF19               	call	_WriteBtySTAT
  5267                           ;konfig.c: 1344: WriteBtySTAT(nr,17,RSDT1.outERR
      +                          );
  5268  0089EA  0E11               	movlw	17
  5269  0089EC  0100               	movlb	__Lparam shr (0+8)
  5270  0089EE  6FB0               	movwf	?_WriteBtySTAT^(__Lparam& (0+65280)),b
  5271  0089F0  C33F  F0B1         	movff	_RSDT1+18,?_WriteBtySTAT+1
  5272  0089F4  51AC               	movf	(?a_WriteEESTAT+1)^(__Lparam& (0+65280)),w
  5273  0089F6  DF12               	call	_WriteBtySTAT
  5274                           ;konfig.c: 1345: WriteBtySTAT(nr,18,RSDT1.outAWR
      +                          );
  5275  0089F8  0E12               	movlw	18
  5276  0089FA  0100               	movlb	__Lparam shr (0+8)
  5277  0089FC  6FB0               	movwf	?_WriteBtySTAT^(__Lparam& (0+65280)),b
  5278  0089FE  C340  F0B1         	movff	_RSDT1+19,?_WriteBtySTAT+1
  5279  008A02  51AC               	movf	(?a_WriteEESTAT+1)^(__Lparam& (0+65280)),w
  5280  008A04  DF0B               	call	_WriteBtySTAT
  5281                           ;konfig.c: 1346: WriteBtySTAT(nr,19,RSDT1.outPP)
      +                          ;
  5282  008A06  0E13               	movlw	19
  5283  008A08  0100               	movlb	__Lparam shr (0+8)
  5284  008A0A  6FB0               	movwf	?_WriteBtySTAT^(__Lparam& (0+65280)),b
  5285  008A0C  C342  F0B1         	movff	_RSDT1+21,?_WriteBtySTAT+1
  5286  008A10  51AC               	movf	(?a_WriteEESTAT+1)^(__Lparam& (0+65280)),w
  5287  008A12  DF04               	call	_WriteBtySTAT
  5288                           ;konfig.c: 1347: WriteBtySTAT(nr,20,RSDT1.outPG)
      +                          ;
  5289  008A14  0E14               	movlw	20
  5290  008A16  0100               	movlb	__Lparam shr (0+8)
  5291  008A18  6FB0               	movwf	?_WriteBtySTAT^(__Lparam& (0+65280)),b
  5292  008A1A  C343  F0B1         	movff	_RSDT1+22,?_WriteBtySTAT+1
  5293  008A1E  51AC               	movf	(?a_WriteEESTAT+1)^(__Lparam& (0+65280)),w
  5294  008A20  DEFD               	call	_WriteBtySTAT
  5295                           ;konfig.c: 1348: WriteBtySTAT(nr,21,M.CONTSETP);
  5296  008A22  0E15               	movlw	21
  5297  008A24  0100               	movlb	__Lparam shr (0+8)
  5298  008A26  6FB0               	movwf	?_WriteBtySTAT^(__Lparam& (0+65280)),b
  5299  008A28  C329  F0B1         	movff	_M+35,?_WriteBtySTAT+1
  5300  008A2C  51AC               	movf	(?a_WriteEESTAT+1)^(__Lparam& (0+65280)),w
  5301  008A2E  DEF6               	call	_WriteBtySTAT
  5302                           ;konfig.c: 1349: WriteBtySTAT(nr,22,RSDT1.outZW)
      +                          ;
  5303  008A30  0E16               	movlw	22
  5304  008A32  0100               	movlb	__Lparam shr (0+8)
  5305  008A34  6FB0               	movwf	?_WriteBtySTAT^(__Lparam& (0+65280)),b
  5306  008A36  C34C  F0B1         	movff	_RSDT1+31,?_WriteBtySTAT+1
  5307  008A3A  51AC               	movf	(?a_WriteEESTAT+1)^(__Lparam& (0+65280)),w
  5308  008A3C  D6EF               	goto	_WriteBtySTAT
  5309                           ;konfig.c: 1350: }
  5310  008A3E                     __end_of_WriteEESTAT:
  5311                           ;konfig.c: 1357: void CopyEESTAT(const unsigned 
      +                          char nr0,const unsigned char nr1)
  5312                           ;konfig.c: 1358: {
  5313  008A3E  00AB               	dw	?_CopyEESTAT
  5314  008A40                     _CopyEESTAT:
  5315  000000                     
  5316                           ; _nr0 loaded to fsr2l
  5317  008A40  6ED9               	movwf	fsr2l,c
  5318                           ;_nr0 stored from fsr2l
  5319                           ;konfig.c: 1359: volatile unsigned char i;
  5320                           ;_nr0 stored from fsr2l
  5321  008A42  50D9               	movf	fsr2l,w,c
  5322  008A44  0100               	movlb	__Lparam shr (0+8)
  5323  008A46  6FAC               	movwf	?a_CopyEESTAT^(__Lparam& (0+65280)),b
  5324  008A48  0E03               	movlw	3
  5325  008A4A  64D9               	cpfsgt	fsr2l,c
  5326  008A4C  D001               	goto	u3241
  5327  008A4E  0C03               	retlw	3
  5328  008A50                     u3241:
  5329  008A50  0E03               	movlw	3
  5330  008A52  65AB               	cpfsgt	?_CopyEESTAT^(__Lparam& (0+65280)),b
  5331  008A54  D001               	goto	l291
  5332  008A56  0C03               	retlw	3
  5333  008A58                     l291:
  5334                           ;konfig.c: 1361: for(i=0;i<23;i++)
  5335  008A58  0100               	movlb	__Lparam shr (0+8)
  5336  008A5A  6BAD               	clrf	(?a_CopyEESTAT+1)^(__Lparam& (0+65280)),b	
      +                          ;volatile
  5337  008A5C  0E16               	movlw	22
  5338  008A5E  65AD               	cpfsgt	(?a_CopyEESTAT+1)^(__Lparam& (0+65280)),
      +                          b	;volatile
  5339  008A60  D001               	goto	l292
  5340  008A62  0C16               	retlw	22
  5341  008A64                     l292:
  5342                           ;konfig.c: 1362: {
  5343  008A64  0100               	movlb	__Lparam shr (0+8)
  5344  008A66  51AD               	movf	(?a_CopyEESTAT+1)^(__Lparam& (0+65280)),w	
      +                          ;volatile
  5345  008A68  6FB0               	movwf	?_WriteBtySTAT^(__Lparam& (0+65280)),b
  5346  008A6A  51AD               	movf	(?a_CopyEESTAT+1)^(__Lparam& (0+65280)),w	
      +                          ;volatile
  5347  008A6C  6FB2               	movwf	?_ReadBtySTAT^(__Lparam& (0+65280)),b
  5348  008A6E  51AC               	movf	?a_CopyEESTAT^(__Lparam& (0+65280)),w
  5349  008A70  DEAA               	call	_ReadBtySTAT
  5350  008A72  0100               	movlb	__Lparam shr (0+8)
  5351  008A74  6FB1               	movwf	(?_WriteBtySTAT+1)^(__Lparam& (0+65280)),
      +                          b
  5352  008A76  51AB               	movf	?_CopyEESTAT^(__Lparam& (0+65280)),w
  5353  008A78  DED1               	call	_WriteBtySTAT
  5354  008A7A  0100               	movlb	__Lparam shr (0+8)
  5355  008A7C  2BAD               	incf	(?a_CopyEESTAT+1)^(__Lparam& (0+65280)),f,
      +                          b	;volatile
  5356  008A7E  0E16               	movlw	22
  5357  008A80  65AD               	cpfsgt	(?a_CopyEESTAT+1)^(__Lparam& (0+65280)),
      +                          b	;volatile
  5358  008A82  D7F0               	goto	l292
  5359  008A84  0C16               	retlw	22
  5360                           ;konfig.c: 1364: }
  5361  008A86                     __end_of_CopyEESTAT:
  5362  000000                     
  5363  000000                     
  5364  000000                     
  5365  000000                     
  5366  000000                     
  5367  000000                     
  5368  000000                     
  5369  000000                     
  5370  000000                     
  5371  000000                     
  5372  000000                     
  5373  000000                     
  5374  000000                     
  5375  000000                     
  5376  000000                     
  5377  000000                     
  5378  000000                     
  5379  000000                     
  5380  000000                     
  5381  000000                     
  5382  000000                     
  5383  000000                     
  5384  000000                     
  5385  000000                     
  5386  000000                     
  5387  000000                     
  5388  000000                     
  5389  000000                     
  5390  000000                     
  5391  000000                     
  5392  000000                     
  5393  000000                     
  5394  000000                     
  5395  000000                     
  5396  000000                     
  5397  000000                     
  5398  000000                     
  5399  000000                     
  5400  000000                     
  5401  000000                     
  5402  000000                     
  5403  000000                     
  5404  000000                     
  5405  000000                     
  5406  000000                     
  5407  000000                     
  5408  000000                     
  5409  000000                     
  5410  000000                     
  5411  000000                     
  5412  000000                     
  5413  000000                     
  5414  000000                     
  5415  000000                     
  5416  000000                     
  5417  000000                     
  5418  000000                     
  5419  000000                     
  5420  000000                     
  5421  000000                     
  5422  000000                     
  5423  000000                     
  5424  000000                     
  5425  000000                     
  5426  000000                     
  5427  000000                     
  5428  000000                     
  5429  000000                     
  5430  000000                     
  5431  000000                     
  5432  000000                     
  5433  000000                     
  5434  000000                     
  5435  000000                     
  5436  000000                     
  5437  000000                     
  5438  000000                     
  5439  000000                     
  5440  000000                     
  5441  000000                     
  5442  000000                     
  5443  000000                     
  5444  000000                     
  5445  000000                     
  5446  000000                     
  5447  000000                     
  5448  000000                     
  5449  000000                     
  5450  000000                     
  5451  000000                     
  5452  000000                     
  5453  000000                     
  5454  000000                     
  5455  000000                     
  5456  000000                     
  5457  000000                     
  5458  000000                     
  5459  000000                     
  5460  000000                     
  5461  000000                     
  5462  000000                     
  5463  000000                     
  5464  000000                     
  5465  000000                     
  5466  000000                     
  5467  000000                     
  5468  000000                     
  5469  000000                     
  5470  000000                     
  5471  000000                     
  5472  000000                     
  5473  000000                     
  5474  000000                     
  5475  000000                     
  5476  000000                     
  5477  000000                     
  5478  000000                     
  5479  000000                     
  5480  000000                     
  5481  000000                     
  5482  000000                     
  5483  000000                     
  5484  000000                     
  5485  000000                     
  5486  000000                     
  5487  000000                     
  5488  000000                     
  5489  000000                     
  5490  000000                     
  5491  000000                     
  5492  000000                     
  5493  000000                     
  5494  000000                     
  5495  000000                     
  5496  000000                     
  5497  000000                     
  5498  000000                     
  5499  000000                     
  5500  000000                     
  5501  000000                     
  5502  000000                     
  5503  000000                     
  5504  000000                     
  5505  000000                     
  5506  000000                     
  5507  000000                     
  5508  000000                     
  5509  000000                     
  5510  000000                     
  5511  000000                     
  5512  000000                     
  5513  000000                     
  5514  000000                     
  5515  000000                     
  5516  000000                     
  5517  000000                     
  5518  000000                     
  5519  000000                     
  5520  000000                     
  5521  000000                     
  5522  000000                     
  5523  000000                     
  5524  000000                     
  5525  000000                     
  5526  000000                     
  5527  000000                     
  5528  000000                     
  5529  000000                     
  5530  000000                     
  5531  000000                     
  5532  000000                     
  5533  000000                     
  5534  000000                     
  5535  000000                     
  5536  000000                     
  5537  000000                     
  5538  000000                     
  5539  000000                     
  5540  000000                     
  5541  000000                     
  5542  000000                     
  5543  000000                     
  5544  000000                     
  5545  000000                     
  5546  000000                     
  5547  000000                     
  5548  000000                     
  5549  000000                     
  5550  000000                     
  5551  000000                     
  5552  000000                     
  5553  000000                     
  5554  000000                     
  5555  000000                     
  5556  000000                     
  5557  000000                     
  5558  000000                     
  5559  000000                     
  5560  000000                     
  5561  000000                     
  5562  000000                     
  5563  000000                     
  5564  000000                     
  5565  000000                     
  5566  000000                     
  5567  000000                     
  5568  000000                     
  5569  000000                     
  5570  000000                     
  5571  000000                     
  5572  000000                     
  5573  000000                     
  5574  000000                     
  5575  000000                     
  5576  000000                     
  5577  000000                     
  5578  000000                     
  5579  000000                     
  5580  000000                     
  5581  000000                     
  5582  000000                     
  5583  000000                     
  5584  000000                     
  5585  000000                     
  5586  000000                     
  5587  000000                     
  5588  000000                     
  5589  000000                     
  5590  000000                     
  5591  000000                     
  5592  000000                     
  5593  000000                     
  5594  000000                     
  5595  000000                     
  5596  000000                     
  5597  000000                     
  5598  000000                     
  5599  000000                     
  5600  000000                     
  5601  000000                     
  5602  000000                     
  5603  000000                     
  5604  000000                     
  5605  000000                     
  5606  000000                     
  5607  000000                     
  5608  000000                     
  5609  000000                     
  5610  000000                     
  5611  000000                     
  5612  000000                     
  5613  000000                     
  5614  000000                     
  5615  000000                     
  5616  000000                     
  5617  000000                     
  5618  000000                     
  5619  000000                     
  5620  000000                     
  5621  000000                     
  5622  000000                     
  5623  000000                     
  5624  000000                     
  5625  000000                     
  5626  000000                     
  5627  000000                     
  5628  000000                     
  5629  000000                     
  5630  000000                     
  5631  000000                     
  5632  000000                     
  5633  000000                     
  5634  000000                     
  5635  000000                     
  5636  000000                     
  5637  000000                     
  5638  000000                     
  5639  000000                     
  5640  000000                     
  5641  000000                     
  5642  000000                     
  5643  000000                     
  5644  000000                     
  5645  000000                     
  5646  000000                     
  5647  000000                     
  5648  000000                     
  5649  000000                     
  5650  000000                     
  5651  000000                     
  5652  000000                     
  5653  000000                     
  5654  000000                     
  5655  000000                     
  5656  000000                     
  5657  000000                     
  5658  000000                     
  5659  000000                     
  5660  000000                     
  5661  000000                     
  5662  000000                     
  5663  000000                     
  5664  000000                     
  5665  000000                     
  5666  000000                     
  5667  000000                     
  5668  000000                     
  5669  000000                     
  5670  000000                     
  5671  000000                     
  5672  000000                     
  5673  000000                     
  5674  000000                     
  5675  000000                     
  5676  000000                     
  5677  000000                     
  5678  000000                     
  5679  000000                     
  5680  000000                     
  5681  000000                     
  5682  000000                     
  5683  000000                     
  5684  000000                     
  5685  000000                     
  5686  000000                     
  5687  000000                     
  5688  000000                     
  5689  000000                     
  5690  000000                     
  5691  000000                     
  5692  000000                     
  5693  000000                     
  5694  000000                     
  5695  000000                     
  5696  000000                     
  5697  000000                     
  5698  000000                     
  5699  000000                     
  5700  000000                     
  5701  000000                     
  5702  000000                     
  5703  000000                     
  5704  000000                     
  5705  000000                     
  5706  000000                     
  5707  000000                     
  5708  000000                     
  5709  000000                     
  5710  000000                     
  5711  000000                     
  5712  000000                     
  5713  000000                     
  5714  000000                     
  5715  000000                     
  5716  000000                     
  5717  000000                     
  5718  000000                     
  5719  000000                     
  5720  000000                     
  5721  000000                     
  5722  000000                     
  5723  000000                     
  5724  000000                     
  5725  000000                     
  5726  000000                     
  5727  000000                     
  5728  000000                     
  5729  000000                     
  5730  000000                     
  5731  000000                     
  5732  000000                     
  5733  000000                     
  5734  000000                     
  5735  000000                     
  5736  000000                     
  5737  000000                     
  5738  000000                     
  5739  000000                     
  5740  000000                     
  5741  000000                     
  5742  000000                     
  5743  000000                     
  5744  000000                     
  5745  000000                     
  5746  000000                     
  5747  000000                     
  5748  000000                     
  5749  000000                     
  5750  000000                     
  5751  000000                     
  5752  000000                     
  5753  000000                     
  5754  000000                     
  5755  000000                     
  5756  000000                     
  5757  000000                     
  5758  000000                     
  5759  000000                     
  5760  000000                     
  5761  000000                     
  5762  000000                     
  5763  000000                     
  5764  000000                     
  5765  000000                     
  5766  000000                     
  5767  000000                     
  5768  000000                     
  5769  000000                     
  5770  000000                     
  5771  000000                     
  5772  000000                     
  5773  000000                     
  5774  000000                     
  5775  000000                     
  5776  000000                     
  5777  000000                     
  5778  000000                     
  5779  000000                     
  5780  000000                     
  5781  000000                     
  5782  000000                     
  5783  000000                     
  5784  000000                     
  5785  000000                     
  5786  000000                     
  5787  000000                     
  5788  000000                     
  5789  000000                     
  5790  000000                     
  5791  000000                     
  5792  000000                     
  5793  000000                     
  5794  000000                     
  5795  000000                     
  5796  000000                     
  5797  000000                     
  5798                           
  5799                           	psect	data
  5800                           ;main.h: 120: extern void GoldenEye(void);
  5801                           ;main.h: 123: void InitGlobal(void);
  5802                           ;main.h: 124: void ErrDTF(void);
  5803                           ;main.h: 125: void ErrPTG(void);
  5804                           ;main.h: 126: void ToReset(void);
  5805                           ;main.h: 127: void DecWSW(void);
  5806                           ;main.h: 128: void DecERR(void);
  5807                           ;main.h: 129: void DecSTR(void);
  5808                           ;main.h: 130: void DecRozruch(void);
  5809                           ;main.h: 131: void SetRozruch(void);
  5810                           ;main.h: 132: void DecWylacz(void);
  5811                           ;main.h: 133: void SetWylacz(void);
  5812                           ;main.h: 134: void RuszPlomien(void);
  5813                           ;main.h: 135: void ReloadPlomien(void);
  5814                           ;main.h: 136: void RuszCiag(void);
  5815                           ;main.h: 137: void ReloadCiag(void);
  5816                           ;main.h: 138: void Proba48(void);
  5817                           ;main.h: 139: void Rusz48(void);
  5818                           ;main.h: 140: void Proba48Z3(void);
  5819                           ;main.h: 141: void Rusz48Z3(void);
  5820                           ;main.h: 142: void Rozruch(void);
  5821                           ;main.h: 143: void DecyzjaPLM(void);
  5822                           ;main.h: 144: void DecyzjaPLM2(void);
  5823                           ;main.h: 145: void VWybieg(void);
  5824                           ;main.h: 146: void ZmienKCOKCW(void);
  5825                           ;main.h: 147: void FunkcjaSerwisowa(void);
  5826                           ;main.h: 148: void KolejkaPobudzen(void);
  5827                           ;main.h: 149: void BlokadaL3(void);
  5828                           ;main.h: 150: void Blokada15S(void);
  5829                           ;main.h: 151: void ToObiegCW(void);
  5830                           ;main.h: 152: void ToObiegCO(void);
  5831                           ;main.h: 153: void Wylacz(void);
  5832                           ;main.h: 154: void RuszPWR(void);
  5833                           ;main.h: 155: void ClearData(void);
  5834                           ;main.h: 156: void SetLoMod(void);
  5835                           ;main.h: 157: void RestartFltPrt(void);
  5836                           ;main.h: 158: void ClearDiode(void);
  5837                           ;main.h: 159: void DecyzjaAntyLeg(void);
  5838                           ;main.h: 160: void DetekcjaPrzeplywuWG(void);
  5839                           ;main.h: 161: void OczekujNaPrzeplywWG(void);
  5840                           ;main.h: 162: void RefLCDData(void);
  5841                           ;main.h: 163: void GrzejON(void);
  5842                           ;main.h: 164: void GrzejOFF(void);
  5843                           ;main.h: 165: void KalibracjaWentylatora(void);
  5844                           ;main.h: 166: void KontrolaWentylatora(void);
  5845                           ;main.h: 167: void Odpowietrzenie(void);
  5846                           ;main.h: 168: void DecyzjaOdp(void);
  5847                           ;main.h: 170: extern void InitOsc(void);
  5848                           ;main.h: 172: extern void InitAC(void);
  5849                           ;main.h: 174: extern void InitWsw(void);
  5850                           ;main.h: 175: extern bit GetPoz(const unsigned c
      +                          har nrkol,const unsigned char nrpoz);
  5851                           ;main.h: 177: extern void InitPWM(void);
  5852                           ;main.h: 178: extern void WritePWM(const unsigne
      +                          d char tpwm);
  5853                           ;main.h: 179: extern void WritePWM2(const unsign
      +                          ed char tpwm);
  5854                           ;main.h: 181: extern void ClsScr(void);
  5855                           ;main.h: 182: extern void EndClsScr(void);
  5856                           ;main.h: 183: extern void TestScr(void);
  5857                           ;main.h: 184: extern void EndTestScr(void);
  5858                           ;main.h: 185: extern void ClsScr(void);
  5859                           ;main.h: 186: extern void EndClsScr(void);
  5860                           ;main.h: 187: extern void PrintErr(const unsigne
      +                          d char kod, const unsigned char pls);
  5861                           ;main.h: 188: extern void PrintErrCs(const unsig
      +                          ned char kod,const unsigned char cs, const unsig
      +                          ned char pls);
  5862                           ;main.h: 189: extern void PrintErrTm(const unsig
      +                          ned char kod,const unsigned char tm, const unsig
      +                          ned char pls);
  5863                           ;main.h: 190: extern void EndErr(void);
  5864                           ;main.h: 191: extern void PrintPR(const unsigned
      +                           char lkod,unsigned char nkod,unsigned char tryb
      +                          );
  5865                           ;main.h: 192: extern void EndPR(void);
  5866                           ;main.h: 193: extern void PrintNstCO(const unsig
      +                          ned char nst);
  5867                           ;main.h: 194: extern void PrintNstCW(const unsig
      +                          ned char nst);
  5868                           ;main.h: 195: extern void PrintNstKt(const unsig
      +                          ned char nst);
  5869                           ;main.h: 196: extern void EndNst(void);
  5870                           ;main.h: 197: extern void PrintL3(void);
  5871                           ;main.h: 198: extern void EndL3(void);
  5872                           ;main.h: 199: extern void PrintTdzCO(const unsig
      +                          ned char tm);
  5873                           ;main.h: 200: extern void EndTdzCO(void);
  5874                           ;main.h: 201: extern void PrintTdzCW(const unsig
      +                          ned char tm);
  5875                           ;main.h: 202: extern void EndTdzCW(void);
  5876                           ;main.h: 203: extern void PrintOFF(void);
  5877                           ;main.h: 204: extern void EndOFF(void);
  5878                           ;main.h: 205: extern void PrintCS(const unsigned
      +                           char cs);
  5879                           ;main.h: 206: extern void EndCS(void);
  5880                           ;main.h: 207: extern void PrintCW(const unsigned
      +                           char tm);
  5881                           ;main.h: 208: extern void EndCW(void);
  5882                           ;main.h: 209: extern void PrintCO(const unsigned
      +                           char tm);
  5883                           ;main.h: 210: extern void PrintHex(const unsigne
      +                          d char tm);
  5884                           ;main.h: 211: extern void SetDiode(unsigned char
      +                           nrd, unsigned char stn);
  5885                           ;main.h: 212: extern void RefreshNst(const unsig
      +                          ned char nst);
  5886                           ;main.h: 214: extern bit GetBit(const unsigned c
      +                          har data,const unsigned char nbit);
  5887                           ;main.h: 215: extern void BitSet(unsigned char *
      +                          data, const unsigned char nbit,const unsigned ch
      +                          ar bt);
  5888                           ;main.h: 216: extern void BitSet2(unsigned char 
      +                          *data, const unsigned char nbit,const unsigned c
      +                          har bt);
  5889                           ;main.h: 218: extern void StartRTG(const unsigne
      +                          d char Index);
  5890                           ;main.h: 219: extern unsigned char RTG(const uns
      +                          igned char Index);
  5891                           ;main.h: 220: extern void StartRTS(const unsigne
      +                          d char Index);
  5892                           ;main.h: 221: extern unsigned char RTS(const uns
      +                          igned char Index);
  5893                           ;main.h: 222: extern void StartRTdS(const unsign
      +                          ed char Index);
  5894                           ;main.h: 223: extern unsigned char RTdS(const un
      +                          signed char Index);
  5895                           ;main.h: 225: extern void InitTimer1(void);
  5896                           ;main.h: 227: extern void InitTimer3(void);
  5897                           ;main.h: 229: extern void InitPort(void);
  5898                           ;main.h: 230: extern bit RdPrt(const unsigned ch
      +                          ar Index);
  5899                           ;main.h: 231: extern void SetPrt(const unsigned 
      +                          char Index, const unsigned char nw);
  5900  000100                     _MinMax:
  5901  000100                     	ds	2
  5902  000100                     	ds	2
  5903  000100                     	ds	2
  5904  000100                     	ds	2
  5905  000100                     	ds	2
  5906  000100                     	ds	2
  5907  000100                     	ds	2
  5908  000100                     	ds	2
  5909  000100                     	ds	2
  5910  000100                     	ds	2
  5911  000100                     	ds	2
  5912  000100                     	ds	2
  5913  000100                     	ds	2
  5914  000100                     	ds	2
  5915  000100                     	ds	2
  5916  000100                     	ds	2
  5917  000100                     	ds	2
  5918  000100                     	ds	2
  5919  000100                     	ds	2
  5920  000100                     	ds	2
  5921  000100                     	ds	2
  5922  000100                     	ds	2
  5923  000100                     	ds	2
  5924  000100                     	ds	2
  5925  000100                     	ds	2
  5926  000100                     	ds	2
  5927  000100                     	ds	2
  5928  000100                     	ds	2
  5929  000100                     	ds	2
  5930  000100                     	ds	2
  5931  000100                     	ds	2
  5932  000100                     	ds	2
  5933  000100                     	ds	2
  5934  000100                     	ds	2
  5935  000100                     	ds	2
  5936  000100                     	ds	2
  5937  000100                     	ds	2
  5938  000100                     	ds	2
  5939  000100                     	ds	2
  5940  000100                     	ds	2
  5941  000100                     	ds	2
  5942  000100                     	ds	2
  5943  000100                     	ds	2
  5944  000100                     	ds	2
  5945  000100                     	ds	2
  5946  000100                     	ds	2
  5947  000100                     	ds	2
  5948  000100                     	ds	2
  5949  000100                     	ds	2
  5950  000100                     	ds	2
  5951  000100                     	ds	2
  5952  000100                     	ds	2
  5953  000100                     	ds	2
  5954  000100                     	ds	2
  5955  000100                     	ds	2
  5956  000100                     	ds	2
  5957  000100                     	ds	2
  5958  000100                     	ds	2
  5959  000100                     	ds	2
  5960  000100                     	ds	2
  5961  000100                     	ds	2
  5962  000100                     	ds	2
  5963  000100                     	ds	2
  5964  000100                     	ds	2
  5965  000100                     	ds	2
  5966  000100                     	ds	2
  5967  000100                     	ds	2
  5968  000100                     	ds	2
  5969  000100                     	ds	2
  5970  000100                     	ds	2
  5971  000100                     	ds	2
  5972  000100                     	ds	2
  5973  000100                     	ds	2
  5974  000100                     	ds	2
  5975  000100                     	ds	2
  5976  000100                     	ds	2
  5977  000100                     	ds	2
  5978  000100                     	ds	2
  5979  000100                     	ds	2
  5980  000100                     	ds	2
  5981  000100                     	ds	2
  5982  000100                     	ds	2
  5983  000100                     	ds	2
  5984  000100                     	ds	2
  5985  000100                     	ds	2
  5986  000100                     	ds	2
  5987  000100                     	ds	2
  5988  000100                     	ds	2
  5989  000100                     	ds	2
  5990  000100                     	ds	2
  5991  000100                     	ds	2
  5992  000100                     	ds	2
  5993  000100                     	ds	2
  5994                           
  5995                           	psect	idata
  5996  001064  00C1               	dw	193
  5997  001066  0000               	dw	0
  5998  001068  0063               	dw	99
  5999  00106A  00C2               	dw	194
  6000  00106C  0000               	dw	0
  6001  00106E  0063               	dw	99
  6002  001070  00C3               	dw	195
  6003  001072  0000               	dw	0
  6004  001074  0063               	dw	99
  6005  001076  00CE               	dw	206
  6006  001078  000C               	dw	12
  6007  00107A  0014               	dw	20
  6008  00107C  00CF               	dw	207
  6009  00107E  0019               	dw	25
  6010  001080  005F               	dw	95
  6011  001082  00C5               	dw	197
  6012  001084  0001               	dw	1
  6013  001086  0002               	dw	2
  6014  001088  00C8               	dw	200
  6015  00108A  0000               	dw	0
  6016  00108C  0001               	dw	1
  6017  00108E  00C4               	dw	196
  6018  001090  0000               	dw	0
  6019  001092  0001               	dw	1
  6020  001094  00CD               	dw	205
  6021  001096  0000               	dw	0
  6022  001098  0001               	dw	1
  6023  00109A  00C6               	dw	198
  6024  00109C  0000               	dw	0
  6025  00109E  0001               	dw	1
  6026  0010A0  00CC               	dw	204
  6027  0010A2  0001               	dw	1
  6028  0010A4  0004               	dw	4
  6029  0010A6  00D0               	dw	208
  6030  0010A8  0000               	dw	0
  6031  0010AA  0001               	dw	1
  6032  0010AC  00D1               	dw	209
  6033  0010AE  0005               	dw	5
  6034  0010B0  0019               	dw	25
  6035  0010B2  00D2               	dw	210
  6036  0010B4  000F               	dw	15
  6037  0010B6  0063               	dw	99
  6038  0010B8  00D3               	dw	211
  6039  0010BA  0000               	dw	0
  6040  0010BC  0001               	dw	1
  6041  0010BE  00D5               	dw	213
  6042  0010C0  0000               	dw	0
  6043  0010C2  0005               	dw	5
  6044  0010C4  00D6               	dw	214
  6045  0010C6  0000               	dw	0
  6046  0010C8  0019               	dw	25
  6047  0010CA  00D7               	dw	215
  6048  0010CC  0019               	dw	25
  6049  0010CE  0063               	dw	99
  6050  0010D0  00D9               	dw	217
  6051  0010D2  0019               	dw	25
  6052  0010D4  0063               	dw	99
  6053  0010D6  00DA               	dw	218
  6054  0010D8  0000               	dw	0
  6055  0010DA  000F               	dw	15
  6056  0010DC  00DB               	dw	219
  6057  0010DE  0046               	dw	70
  6058  0010E0  0059               	dw	89
  6059  0010E2  00DC               	dw	220
  6060  0010E4  0000               	dw	0
  6061  0010E6  0014               	dw	20
  6062  0010E8  00DD               	dw	221
  6063  0010EA  0000               	dw	0
  6064  0010EC  0001               	dw	1
  6065  0010EE  00DE               	dw	222
  6066  0010F0  0002               	dw	2
  6067  0010F2  001E               	dw	30
  6068  0010F4  00DF               	dw	223
  6069  0010F6  0001               	dw	1
  6070  0010F8  003C               	dw	60
  6071  0010FA  01C0               	dw	448
  6072  0010FC  0000               	dw	0
  6073  0010FE  0003               	dw	3
  6074  001100  01C1               	dw	449
  6075  001102  000A               	dw	10
  6076  001104  0015               	dw	21
  6077  001106  01C2               	dw	450
  6078  001108  0000               	dw	0
  6079  00110A  0014               	dw	20
  6080  00110C  01C3               	dw	451
  6081  00110E  0019               	dw	25
  6082  001110  0050               	dw	80
  6083  001112  01C5               	dw	453
  6084  001114  0000               	dw	0
  6085  001116  0001               	dw	1
  6086  001118  01C4               	dw	452
  6087  00111A  0000               	dw	0
  6088  00111C  0001               	dw	1
  6089                           
  6090                           	psect	const
  6091  001032                     S30004:
  6092  001032  81A2               	dw	l180	;
  6093  001034  81A2               	dw	l180	;
  6094  001036  81A8               	dw	l181	;
  6095  001038  81B6               	dw	l182	;
  6096  00103A  82A8               	dw	l183	;
  6097  00103C  81BC               	dw	l184	;
  6098  00103E  81CE               	dw	l185	;
  6099  001040  81E4               	dw	l186	;
  6100  001042  81FA               	dw	l187	;
  6101  001044  81FC               	dw	l188	;
  6102  001046  8202               	dw	l189	;
  6103  001048  8218               	dw	l190	;
  6104  00104A  821A               	dw	l191	;
  6105  00104C  8224               	dw	l192	;
  6106  00104E  8226               	dw	l193	;
  6107  001050  8230               	dw	l194	;
  6108  001052  8242               	dw	l195	;
  6109  001054  8258               	dw	l196	;
  6110  001056  826A               	dw	l197	;
  6111  001058  8280               	dw	l198	;
  6112  00105A  8282               	dw	l199	;
  6113  00105C  828C               	dw	l200	;
  6114  00105E  8292               	dw	l201	;
  6115                           
  6116                           	psect	bigbss
  6117  000EE1                     F2116:
  6118  000EE1                     	ds	1
  6119  000EE1                     F2117:
  6120  000EE1                     	ds	1
  6121  000000                     
  6122  000000                     
  6123  000000                     
  6124  000000                     
  6125  000000                     
  6126  000000                     
  6127  000000                     
  6128  000000                     
  6129  000000                     
  6130  000000                     
  6131  000000                     
  6132  000000                     
  6133  000000                     
  6134  000000                     
  6135  000000                     
  6136  000000                     
  6137  000000                     
  6138  000000                     
  6139  000000                     
  6140  000000                     
  6141  000000                     
  6142  000000                     
  6143  000000                     
  6144  000000                     
  6145  000000                     
  6146  000000                     
  6147  000000                     
  6148  000000                     
  6149  000000                     
  6150  000000                     
  6151  000000                     
  6152  000000                     
  6153  000000                     
  6154  000000                     
  6155  000000                     
  6156  000000                     
  6157  000000                     
  6158  000000                     
  6159  000000                     
  6160  000000                     
  6161  000000                     
  6162  000000                     
  6163  000000                     
  6164  000000                     
  6165  000000                     
  6166  000000                     
  6167  000000                     
  6168  000000                     
  6169  000000                     
  6170  000000                     
  6171  000000                     
  6172  000000                     
  6173  000000                     
  6174  000000                     
  6175  000000                     
  6176  000000                     
  6177  000000                     
  6178  000000                     
  6179  000000                     
  6180  000000                     
  6181  000000                     
  6182  000000                     
  6183  000000                     
  6184  000000                     
  6185  000000                     
  6186  000000                     
  6187  000000                     
  6188  000000                     
  6189  000000                     
  6190  000000                     
  6191  000000                     
  6192  000000                     
  6193  000000                     
  6194  000000                     
  6195  000000                     
  6196  000000                     
  6197  000000                     
  6198  000000                     
  6199  000000                     
  6200  000000                     
  6201  000000                     
  6202  000000                     
  6203  000000                     
  6204  000000                     
  6205  000000                     
  6206  000000                     
  6207  000000                     
  6208  000000                     
  6209  000000                     
  6210  000000                     
  6211  000000                     
  6212  000000                     
  6213  000000                     
  6214  000000                     
  6215  000000                     
  6216  000000                     
  6217  000000                     
  6218  000000                     
  6219  000000                     
  6220  000000                     
  6221  000000                     
  6222  000000                     
  6223  000000                     
  6224  000000                     
  6225  000000                     
  6226  000000                     
  6227  000000                     
  6228  000000                     
  6229  000000                     
  6230  000000                     
  6231  000000                     
  6232  000000                     
  6233  000000                     
  6234  000000                     
  6235  000000                     
  6236  000000                     
  6237  000000                     
  6238  000000                     
  6239  000000                     
  6240  000000                     
  6241  000000                     
  6242  000000                     
  6243  000000                     
  6244  000000                     
  6245  000000                     
  6246  000000                     
  6247  000000                     
  6248  000000                     
  6249  000000                     
  6250  000000                     
  6251  000000                     
  6252  000000                     
  6253                           
  6254                           	psect	bss
  6255  0002AE                     _DtKNF:
  6256  0002AE                     	ds	43
  6257                           
  6258                           	psect	temp
  6259  000000                     btemp:
  6260  000000                     	ds	4
  6261                           pclath	equ	0xFFA
  6262                           pcl	equ	0xFF9
  6263                           tblptrh	equ	0xFF7
  6264                           tblptrl	equ	0xFF6
  6265                           tablat	equ	0xFF5
  6266                           prodh	equ	0xFF4
  6267                           prodl	equ	0xFF3
  6268                           indf0	equ	0xFEF
  6269                           postinc0	equ	0xFEE
  6270                           postdec0	equ	0xFED
  6271                           wreg	equ	0xFE8
  6272                           fsr2l	equ	0xFD9
  6273                           status	equ	0xFD8


HI-TECH Software PICC-18 Macro Assembler V9.51PL3
Symbol Table                                           Mon Sep 14 17:33:14 2020

   __end_of_SetMinMaxPGD 7D6E     __end_of_SetMinMaxPCO 7D44  
                      _M 0306                 _PomiarZW 97AA  
                     l31 676A                       l32 676C  
                     l33 6790                       l50 681E  
                     l42 680C                       l43 67CE  
                     l35 67A0                       l60 6900  
                     l52 6854                       l44 67DA  
                     l61 68EE                       l45 67EE  
                     l37 6882                       l70 6944  
                     l54 6880                       l38 67B0  
                     l63 6998                       l71 6950  
                     l39 67B8                       l80 6ADA  
                     l72 6954                       l64 6970  
                     l65 6912                       l49 6800  
                     l82 6B72                       l74 6966  
                     l66 691A                       l91 6DEA  
                     l75 696E                       l67 691E  
                     l59 68CA                       l84 6CB2  
                     l68 6932                       l93 6E82  
                     l85 6C16                       l77 7CC6  
                     l78 6A42                       l95 6F1A  
                     l97 6FC6                       l89 6D52  
                     l99 705E                       u51 6778  
                     u70 677E   __end_of_WriteBtyNZSTAT 87C4  
        ?a_ReadBtyEEHIST 00B0                       pcl 000FF9  
               _StartRTG FD4A                 _StartRTS FCA2  
          ??_WriteEESTAT 00AB             _SetTpKtParam 81A0  
                    l101 70F6                      l111 7382  
                    l103 718E                      l200 828C  
                    l201 8292                      l121 760E  
                    l113 741A                      l105 7252  
                    l202 82A8                      l106 7222  
                    l131 7916                      l123 76A6  
                    l115 74DE                      l204 8352  
                    l116 74AE                      l141 7C22  
                    l133 79B2                      l125 773E  
                    l109 72EA                      l206 8392  
                    l151 7D14                      l143 7CBE  
                    l135 7A4E                      l127 77E6  
                    l119 7576                      l152 7D1E  
                    l128 77E2                      l153 7D30  
                    l137 7AEA                      l129 787E  
                    l162 7DB8                      l146 7D02  
                    l163 7DC6                      l155 7D5A  
                    l147 7CE2                      l139 7B86  
                    l180 81A2                      l172 7F1A  
                    l148 7CEC                      l261 8776  
                    l181 81A8                      l173 7FE2  
                    l149 7CFE                      l270 87F8  
                    l190 8218                      l182 81B6  
                    l166 7DF8                      l158 7D7C  
                    l271 87DA                      l263 8794  
                    l191 821A                      l183 82A8  
                    l175 817C                      l167 7DEE  
                    l159 7D8A                      l280 8830  
                    l272 87E0                      l192 8224  
                    l184 81BC                      l281 8836  
                    l273 87E6                      l265 87B2  
                    l193 8226                      l185 81CE  
                    l177 82E6                      l169 7E22  
                    l282 883C                      l274 87EC  
                    l194 8230                      l186 81E4  
                    l178 82BE                      l291 8A58  
                    l283 8842                      l267 87D0  
                    l259 875E                      l195 8242  
                    l187 81FA                      l292 8A64  
                    l276 8826                      l196 8258  
                    l188 81FC                      l285 8882  
                    l269 8808                      l197 826A  
                    l189 8202                      l286 88A4  
                    l278 885E                      l198 8280  
                    l287 88AC                      l279 884E  
                    l199 8282                      l288 8914  
                    l289 8918                      u310 6A12  
                    u160 6850                      u315 6A10  
                    u415 6AC8                      u335 6A30  
                    u441 6B16                      u425 6AF6  
                    u361 6A7E                      u345 6A5E  
                    u281 69E6                      u265 69C6  
                    _PFN 0067                      u611 6C52  
                    u531 6BB6                      u515 6B96  
                    u435 6B14                      u355 6A7C  
                    u275 69E4                      u605 6C50  
                    u525 6BB4                      u470 6B42  
                    u390 6AAA                      u455 6B2A  
                    u375 6A92                      u295 69FA  
                    u800 6DBA                      u720 6D1A  
                    u640 6C7E                      u560 6BE2  
                    u705 6D02                      u625 6C66  
                    u545 6BCA                      u475 6B40  
                    u395 6AA8                      u805 6DB8  
                    u725 6D18                      u645 6C7C  
                    u565 6BE0                      u495 6B60  
                    u905 6E70                      u825 6DD8  
                    u745 6D38                      u665 6C9C  
                    u585 6C00                      u931 6EBE  
                    u915 6E9E                      u851 6E26  
                    u835 6E06                      u771 6D8E  
                    u755 6D6E                      u691 6CEE  
                    u675 6CCE                      u595 6C32  
                    u925 6EBC                      u845 6E24  
                    u765 6D8C                      u685 6CEC  
                    u960 6EEA                      u880 6E52  
                    u945 6ED2                      u865 6E3A  
                    u785 6DA2                      u965 6EE8  
                    u885 6E50                      u985 6F08  
                    u995 6F36          ?a_ReadBtyNZSTAT 00B0  
               __config1 0030FF                 __config2 00EFEF  
               __config3 007DFF                 __config4 00FFFB  
               __config5 00FFF0                 __config6 00DFF0  
   __end_of_SetTpKtParam 8306                      wreg 000FE8  
          ?_eeprom_write 00B7               ?a_SetNSTCO 00AC  
                   F2116 0EE1                     F2117 0EE2  
           _ReadEEVNT0_P 85E4             _ReadEEVNT1_P 860C  
           _ReadEEVNT0_V 85E0             _ReadEEVNT2_P 8634  
           _ReadEEVNT1_V 8608             _ReadEEVNT3_P 865C  
           _ReadEEVNT2_V 8630             _ReadEEVNT4_P 8684  
           _ReadEEVNT3_V 8658             _ReadEEVNT5_P 86AC  
           _ReadEEVNT4_V 8680             _ReadEEVNT6_P 86D4  
           _ReadEEVNT5_V 86A8             _ReadEEVNT7_P 86FC  
           _ReadEEVNT6_V 86D0             _ReadEEVNT7_V 86F8  
        _if_eeprom_write 870A           ?a_SetMinMaxPCO 00AD  
                   f6603 00AF              ?a_ReadEEPFN 00A9  
                   u1011 6F56                     u1005 6F54  
                   u1200 70C6                     u1120 702E  
                   u1040 6F82                     u1105 7016  
                   u1025 6F6A                     u2011 76E2  
                   u2005 76E0                     u1205 70C4  
                   u1125 702C                     u1045 6F80  
                   u2200 784E                     u2120 77A6  
                   u2040 770E                     u3001 8170  
                   u2105 778E                     u2025 76F6  
                   u1305 717C                     u1225 70E4  
                   u1145 704C                     u1065 6FA0  
                   u1331 71CA                     u1315 71AA  
                   u1251 7132                     u1235 7112  
                   u1171 709A                     u1155 707A  
                   u1091 7002                     u1075 6FE2  
                   u3020 8176                     u2205 784C  
                   u2125 77A4                     u2045 770C  
                   u1405 7240                     u1325 71C8  
                   u1245 7130                     u1165 7098  
                   u1085 7000                     u1511 7326  
                   u1431 728E                     u1415 726E  
                   u1360 71F6                     u1280 715E  
                   u3105 8538                     u2305 7904  
                   u2225 786C                     u2145 77C4  
                   u2065 772C                     u1505 7324  
                   u1425 728C                     u1345 71DE  
                   u1265 7146                     u1185 70AE  
                   u3115 859E                     u2411 79EE  
                   u2331 7952                     u2315 7932  
                   u2251 78BA                     u2235 789A  
                   u2171 7822                     u2155 7802  
                   u2091 777A                     u2075 775A  
                   u1700 7482                     u1620 73EA  
                   u1540 7352                     u1460 72BA  
                   u3125 8728                     u2405 79EC  
                   u2325 7950                     u2245 78B8  
                   u2165 7820                     u2085 7778  
                   u1605 73D2                     u1525 733A  
                   u1445 72A2                     u1365 71F4  
                   u1285 715C                     u2600 7B52  
                   u2520 7AB6                     u2440 7A1A  
                   u2360 797E                     u2280 78E6  
                   u1800 7546                     u3241 8A50  
                   u3065 8444                     u2505 7A9E  
                   u2425 7A02                     u2345 7966  
                   u2265 78CE                     u2185 7836  
                   u1705 7480                     u1625 73E8  
                   u1545 7350                     u1465 72B8  
                   u3075 847A                     u1395 721C  
                   u3085 84AE                     u2605 7B50  
                   u2525 7AB4                     u2445 7A18  
                   u2365 797C                     u2285 78E4  
                   u1805 7544                     u1645 7408  
                   u1565 7370                     u1485 72D8  
                   u3095 84E6                     u1735 74A8  
                   u1671 7456                     u1655 7436  
                   u1591 73BE                     u1575 739E  
                   u1495 7306                     u2705 7C0E  
                   u2625 7B72                     u2545 7AD6  
                   u2465 7A3A                     u2385 799E  
                   u1905 75FC                     u1825 7564  
                   u1745 74CC                     u1665 7454  
                   u1585 73BC                     u2731 7C5E  
                   u2715 7C3E                     u2651 7BC2  
                   u2635 7BA2                     u2571 7B26  
                   u2555 7B06                     u2491 7A8A  
                   u2475 7A6A                     u2395 79CE  
                   u1931 764A                     u1915 762A  
                   u1851 75B2                     u1835 7592  
                   u1771 751A                     u1755 74FA  
                   u2725 7C5C                     u2645 7BC0  
                   u2565 7B24                     u2485 7A88  
                   u1925 7648                     u1845 75B0  
                   u1765 7518                     u1685 746A  
                   u2760 7C8A                     u2680 7BEE  
                   u1960 7676                     u1880 75DE  
                   u2745 7C72                     u2665 7BD6  
                   u2585 7B3A                     u1945 765E  
                   u1865 75C6                     u1785 752E  
                   u2925 7DE6                     u2765 7C88  
                   u2685 7BEC                     u1965 7674  
                   u1885 75DC                     _MGSD 03AA  
                   u2785 7CAA                     u1985 7694  
                   u1995 76C2                     u2990 7FD0  
                   u2895 847A         ?_if_eeprom_write 00B4  
           _ReadEEPopPFN 8560     __end_of_ReadEEVNT0_P 85E8  
   __end_of_ReadEEVNT1_P 8610     __end_of_ReadEEVNT0_V 85E4  
   __end_of_ReadEEVNT2_P 8638     __end_of_ReadEEVNT1_V 860C  
   __end_of_ReadEEVNT3_P 8660     __end_of_ReadEEVNT2_V 8634  
                   _DtCO 007D     __end_of_ReadEEVNT4_P 8688  
   __end_of_ReadEEVNT3_V 865C     __end_of_ReadEEVNT5_P 86B0  
   __end_of_ReadEEVNT4_V 8684                     _DtCW 006E  
   __end_of_ReadEEVNT6_P 86D8                     _DtIN 0090  
   __end_of_ReadEEVNT5_V 86AC     __end_of_ReadEEVNT7_P 8708  
   __end_of_ReadEEVNT6_V 86D4     __end_of_ReadEEVNT7_V 86FC  
                   _DtZW 0063                     indf0 000FEF  
                   fsr2l 000FD9                     btemp 0000  
           ?a_CopyEESTAT 00AC     __end_of_ReadEEPopPFN 857E  
                   prodh 000FF4                     prodl 000FF3  
                ?_SetPrt 00AD                    S30004 1032  
             _WriteEEECO 84C8               _WriteEEPCO 845C  
             _WriteEEPFN 84FA               _WriteEEPCW 8426  
     __end_of_WriteEEECO 84FA           ?a_ReadEEPopPFN 00A9  
     __end_of_WriteEEPCO 8488       __end_of_WriteEEPFN 8548  
     __end_of_WriteEEPCW 8458                    _RSDT1 032D  
                  _DtKNF 02AE                    _RdPrt F438  
             used_btemp0 0001               used_btemp1 0001  
             used_btemp2 0001               used_btemp3 0001  
            _eeprom_read 0E5E                    pclath 000FFA  
                  tablat 000FF5                  _BitSet2 07D8  
                _GetBit2 0772                 ?_BitSet2 00AC  
                  status 000FD8                 ?_GetBit2 00AE  
__end_of_if_eeprom_write 873E             _WriteBtySTAT 881C  
       __end_of_SetNSTCO 7E54                  __Lparam 00A4  
             _GetPGD_PCO 9AB0     __end_of_WriteBtySTAT 8872  
           ?_eeprom_read 00B7                  __ramtop 1000  
         __end_of_ChkPGD 7DE8           __end_of_ChkPCO 7DAA  
         __end_of_EnKonf 6742           __end_of_DsKonf 674C  
         __end_of_SetPFN 8422           ?a_WriteBtySTAT 00B2  
            _WriteEEALIN 857E               _CopyEESTAT 8A40  
            _WriteEEPPGD 848E              _WriteEESTAT 8872  
            _WriteEEVNT0 85C2              _WriteEEVNT1 85EA  
            _WriteEEVNT2 8612              _WriteEEVNT3 863A  
            _WriteEEVNT4 8662              _WriteEEVNT5 868A  
            _WriteEEVNT6 86B2              _WriteEEVNT7 86DA  
     __end_of_CopyEESTAT 8A86              _ReadBtyHFLG 8744  
            _ReadBtyHREF 874E              _ReadBtyHNPZ 873E  
    __end_of_WriteEEALIN 85AE              _ReadBtySTAT 87C6  
    __end_of_WriteEEPPGD 84C4      __end_of_WriteEESTAT 8A3E  
    __end_of_WriteEEVNT0 85E0      __end_of_WriteEEVNT1 8608  
    __end_of_WriteEEVNT2 8630      __end_of_WriteEEVNT3 8658  
    __end_of_WriteEEVNT4 8680      __end_of_WriteEEVNT5 86A8  
    __end_of_WriteEEVNT6 86D0      __end_of_WriteEEVNT7 86F8  
    __end_of_ReadBtyHFLG 874E      __end_of_ReadBtyHREF 8766  
    __end_of_ReadBtyHNPZ 8744      __end_of_ReadBtySTAT 881A  
                 _ChkPGD 7DAA                   _ChkPCO 7D6E  
          _ReadBtyEEHIST 8766                   _EnKonf 673C  
                 _DsKonf 6742            ?_WriteBtySTAT 00B0  
            ?_CopyEESTAT 00AB                   _MinMax 0100  
                 _SetPFN 8306                _RdEEParam 7E54  
          ?a_WriteEEALIN 00AC                   _SetPrt F45A  
      __end_of_RdEEParam 81A0            _ReadBtyNZSTAT 8784  
          ?a_WriteEESTAT 00AB                _ClearEETA 85B2  
      __end_of_ClearEETA 85C0            ?a_ReadBtyHREF 00B0  
             _ReadEEALIN 85AE            ?a_ReadBtySTAT 00B3  
             _ReadEEPPGD 8488                  postdec0 000FED  
     __end_of_ReadEEALIN 85B2                  postinc0 000FEE  
     __end_of_ReadEEPPGD 848E    __end_of_ReadBtyEEHIST 8784  
           ?_WriteEEVNT0 00AC             ?_WriteEEVNT1 00AC  
           ?_WriteEEVNT2 00AC             ?_WriteEEVNT3 00AC  
           ?_WriteEEVNT4 00AC             ?_WriteEEVNT5 00AC  
           ?_WriteEEVNT6 00AC             ?_WriteEEVNT7 00AC  
           ?_ReadBtySTAT 00B2    __end_of_ReadBtyNZSTAT 87A6  
           _eeprom_write 0CB8             ?a_WriteEEPFN 00A9  
                 tblptrh 000FF7                   tblptrl 000FF6  
         _WriteBtyNZSTAT 87A8                _ReadEEECO 84C4  
              _ReadEEPCO 8458                _ReadEEPFN 8548  
              _ReadEEPCW 8422        __end_of_ReadEEECO 84C8  
      __end_of_ReadEEPCO 845C        __end_of_ReadEEPFN 8560  
      __end_of_ReadEEPCW 8426            _MKonfiguracja 674C  
        ?_WriteBtyNZSTAT 00B0                _RefKnfPar 6894  
      __end_of_RefKnfPar 69A0                 _ModParam 00CA  
              _SetDefFan BCE6             _SetMinMaxPGD 7D44  
           _SetMinMaxPCO 7CC8                 _SetNSTCO 7DE8  
  __end_of_MKonfiguracja 6894               _SaveKnfPar 69A0  
              _SetModPCO 996E       __end_of_SaveKnfPar 7CC8  
