

HI-TECH Software PICC-18 Macro Assembler V9.51PL3
                                                       Mon Sep 14 17:33:12 2020


     1                           	processor	18F46K20
     2                           	opt	pw 80
     3                           	psect	text,global,reloc=2,class=CODE,delta=1
     4                           	psect	bigbss,global,class=BIGRAM,space=1,delta=
      +                          1
     5                           	psect	bss,global,class=RAM,space=1,delta=1
     6                           	psect	temp,global,ovrld,common,class=COMRAM,spa
      +                          ce=1,delta=1
     7                           	psect	intsave_regs,global,class=BIGRAM,space=1,
      +                          delta=1
     8  000000                     
     9  000000                     
    10  000000                     
    11  000000                     
    12  000000                     
    13  000000                     
    14  000000                     
    15  000000                     
    16  000000                     
    17  000000                     
    18  000000                     
    19  000000                     
    20  000000                     
    21  000000                     
    22  000000                     
    23  000000                     
    24  000000                     
    25  000000                     
    26  000000                     
    27  000000                     
    28  000000                     
    29  000000                     
    30  000000                     
    31  000000                     
    32  000000                     
    33  000000                     
    34  000000                     
    35  000000                     
    36  000000                     
    37  000000                     
    38  000000                     
    39  000000                     
    40  000000                     
    41  000000                     
    42  000000                     
    43  000000                     
    44  000000                     
    45  000000                     
    46  000000                     
    47  000000                     
    48  000000                     
    49  000000                     
    50  000000                     
    51  000000                     
    52  000000                     
    53  000000                     
    54  000000                     
    55  000000                     
    56  000000                     
    57  000000                     
    58  000000                     
    59  000000                     
    60  000000                     
    61  000000                     
    62  000000                     
    63  000000                     
    64  000000                     
    65  000000                     
    66  000000                     
    67  000000                     
    68  000000                     
    69  000000                     
    70  000000                     
    71  000000                     
    72  000000                     
    73  000000                     
    74  000000                     
    75  000000                     
    76  000000                     
    77  000000                     
    78  000000                     
    79  000000                     
    80  000000                     
    81  000000                     
    82  000000                     
    83  000000                     
    84  000000                     
    85  000000                     
    86  000000                     
    87  000000                     
    88  000000                     
    89  000000                     
    90  000000                     
    91  000000                     
    92  000000                     
    93  000000                     
    94  000000                     
    95  000000                     
    96  000000                     
    97                           
    98                           	psect	text
    99                           ;pic18f45k20.h: 20: static volatile near unsigne
      +                          d char TOSU @ 0xFFF;
   100                           ;pic18f45k20.h: 21: static volatile near unsigne
      +                          d char TOSH @ 0xFFE;
   101                           ;pic18f45k20.h: 22: static volatile near unsigne
      +                          d char TOSL @ 0xFFD;
   102                           ;pic18f45k20.h: 23: static volatile near unsigne
      +                          d char STKPTR @ 0xFFC;
   103                           ;pic18f45k20.h: 24: static volatile near unsigne
      +                          d char PCLATU @ 0xFFB;
   104                           ;pic18f45k20.h: 25: static volatile near unsigne
      +                          d char PCLATH @ 0xFFA;
   105                           ;pic18f45k20.h: 26: static volatile near unsigne
      +                          d char PCL @ 0xFF9;
   106                           ;pic18f45k20.h: 27: static volatile far unsigned
      +                           char * TBLPTR @ 0xFF6;
   107                           ;pic18f45k20.h: 28: static volatile near unsigne
      +                          d char TBLPTRU @ 0xFF8;
   108                           ;pic18f45k20.h: 29: static volatile near unsigne
      +                          d char TBLPTRH @ 0xFF7;
   109                           ;pic18f45k20.h: 30: static volatile near unsigne
      +                          d char TBLPTRL @ 0xFF6;
   110                           ;pic18f45k20.h: 31: static volatile near unsigne
      +                          d char TABLAT @ 0xFF5;
   111                           ;pic18f45k20.h: 32: static volatile near unsigne
      +                          d char PRODH @ 0xFF4;
   112                           ;pic18f45k20.h: 33: static volatile near unsigne
      +                          d char PRODL @ 0xFF3;
   113                           ;pic18f45k20.h: 34: static volatile near unsigne
      +                          d char INTCON @ 0xFF2;
   114                           ;pic18f45k20.h: 35: static near unsigned char IN
      +                          TCON2 @ 0xFF1;
   115                           ;pic18f45k20.h: 36: static volatile near unsigne
      +                          d char INTCON3 @ 0xFF0;
   116                           ;pic18f45k20.h: 37: static volatile near unsigne
      +                          d char INDF0 @ 0xFEF;
   117                           ;pic18f45k20.h: 38: static volatile near unsigne
      +                          d char POSTINC0 @ 0xFEE;
   118                           ;pic18f45k20.h: 39: static volatile near unsigne
      +                          d char POSTDEC0 @ 0xFED;
   119                           ;pic18f45k20.h: 40: static volatile near unsigne
      +                          d char PREINC0 @ 0xFEC;
   120                           ;pic18f45k20.h: 41: static volatile near unsigne
      +                          d char PLUSW0 @ 0xFEB;
   121                           ;pic18f45k20.h: 42: static volatile near unsigne
      +                          d char FSR0H @ 0xFEA;
   122                           ;pic18f45k20.h: 43: static volatile near unsigne
      +                          d char FSR0L @ 0xFE9;
   123                           ;pic18f45k20.h: 44: static volatile near unsigne
      +                          d char WREG @ 0xFE8;
   124                           ;pic18f45k20.h: 45: static volatile near unsigne
      +                          d char INDF1 @ 0xFE7;
   125                           ;pic18f45k20.h: 46: static volatile near unsigne
      +                          d char POSTINC1 @ 0xFE6;
   126                           ;pic18f45k20.h: 47: static volatile near unsigne
      +                          d char POSTDEC1 @ 0xFE5;
   127                           ;pic18f45k20.h: 48: static volatile near unsigne
      +                          d char PREINC1 @ 0xFE4;
   128                           ;pic18f45k20.h: 49: static volatile near unsigne
      +                          d char PLUSW1 @ 0xFE3;
   129                           ;pic18f45k20.h: 50: static volatile near unsigne
      +                          d char FSR1H @ 0xFE2;
   130                           ;pic18f45k20.h: 51: static volatile near unsigne
      +                          d char FSR1L @ 0xFE1;
   131                           ;pic18f45k20.h: 52: static near unsigned char BS
      +                          R @ 0xFE0;
   132                           ;pic18f45k20.h: 53: static volatile near unsigne
      +                          d char INDF2 @ 0xFDF;
   133                           ;pic18f45k20.h: 54: static volatile near unsigne
      +                          d char POSTINC2 @ 0xFDE;
   134                           ;pic18f45k20.h: 55: static volatile near unsigne
      +                          d char POSTDEC2 @ 0xFDD;
   135                           ;pic18f45k20.h: 56: static volatile near unsigne
      +                          d char PREINC2 @ 0xFDC;
   136                           ;pic18f45k20.h: 57: static volatile near unsigne
      +                          d char PLUSW2 @ 0xFDB;
   137                           ;pic18f45k20.h: 58: static volatile near unsigne
      +                          d char FSR2H @ 0xFDA;
   138                           ;pic18f45k20.h: 59: static volatile near unsigne
      +                          d char FSR2L @ 0xFD9;
   139                           ;pic18f45k20.h: 60: static volatile near unsigne
      +                          d char STATUS @ 0xFD8;
   140                           ;pic18f45k20.h: 61: static volatile near unsigne
      +                          d char TMR0H @ 0xFD7;
   141                           ;pic18f45k20.h: 62: static volatile near unsigne
      +                          d char TMR0L @ 0xFD6;
   142                           ;pic18f45k20.h: 64: static volatile near unsigne
      +                          d int TMR0 @ 0xFD6;
   143                           ;pic18f45k20.h: 65: static near unsigned char T0
      +                          CON @ 0xFD5;
   144                           ;pic18f45k20.h: 66: static volatile near unsigne
      +                          d char OSCCON @ 0xFD3;
   145                           ;pic18f45k20.h: 67: static volatile near unsigne
      +                          d char HLVDCON @ 0xFD2;
   146                           ;pic18f45k20.h: 68: static volatile near unsigne
      +                          d char WDTCON @ 0xFD1;
   147                           ;pic18f45k20.h: 69: static volatile near unsigne
      +                          d char RCON @ 0xFD0;
   148                           ;pic18f45k20.h: 70: static volatile near unsigne
      +                          d char TMR1H @ 0xFCF;
   149                           ;pic18f45k20.h: 71: static volatile near unsigne
      +                          d char TMR1L @ 0xFCE;
   150                           ;pic18f45k20.h: 73: static volatile near unsigne
      +                          d int TMR1 @ 0xFCE;
   151                           ;pic18f45k20.h: 74: static near unsigned char T1
      +                          CON @ 0xFCD;
   152                           ;pic18f45k20.h: 75: static volatile near unsigne
      +                          d char TMR2 @ 0xFCC;
   153                           ;pic18f45k20.h: 76: static near unsigned char PR
      +                          2 @ 0xFCB;
   154                           ;pic18f45k20.h: 77: static near unsigned char T2
      +                          CON @ 0xFCA;
   155                           ;pic18f45k20.h: 78: static volatile near unsigne
      +                          d char SSPBUF @ 0xFC9;
   156                           ;pic18f45k20.h: 79: static near unsigned char SS
      +                          PADD @ 0xFC8;
   157                           ;pic18f45k20.h: 80: static volatile near unsigne
      +                          d char SSPSTAT @ 0xFC7;
   158                           ;pic18f45k20.h: 81: static volatile near unsigne
      +                          d char SSPCON1 @ 0xFC6;
   159                           ;pic18f45k20.h: 82: static volatile near unsigne
      +                          d char SSPCON2 @ 0xFC5;
   160                           ;pic18f45k20.h: 83: static volatile near unsigne
      +                          d char ADRESH @ 0xFC4;
   161                           ;pic18f45k20.h: 84: static volatile near unsigne
      +                          d char ADRESL @ 0xFC3;
   162                           ;pic18f45k20.h: 86: static volatile near unsigne
      +                          d int ADRES @ 0xFC3;
   163                           ;pic18f45k20.h: 87: static volatile near unsigne
      +                          d char ADCON0 @ 0xFC2;
   164                           ;pic18f45k20.h: 88: static near unsigned char AD
      +                          CON1 @ 0xFC1;
   165                           ;pic18f45k20.h: 89: static near unsigned char AD
      +                          CON2 @ 0xFC0;
   166                           ;pic18f45k20.h: 90: static volatile near unsigne
      +                          d char CCPR1H @ 0xFBF;
   167                           ;pic18f45k20.h: 91: static volatile near unsigne
      +                          d char CCPR1L @ 0xFBE;
   168                           ;pic18f45k20.h: 93: static volatile near unsigne
      +                          d int CCPR1 @ 0xFBE;
   169                           ;pic18f45k20.h: 94: static volatile near unsigne
      +                          d char CCP1CON @ 0xFBD;
   170                           ;pic18f45k20.h: 95: static volatile near unsigne
      +                          d char CCPR2H @ 0xFBC;
   171                           ;pic18f45k20.h: 96: static volatile near unsigne
      +                          d char CCPR2L @ 0xFBB;
   172                           ;pic18f45k20.h: 98: static volatile near unsigne
      +                          d int CCPR2 @ 0xFBB;
   173                           ;pic18f45k20.h: 99: static volatile near unsigne
      +                          d char CCP2CON @ 0xFBA;
   174                           ;pic18f45k20.h: 100: static near unsigned char P
      +                          STRCON @ 0xFB9;
   175                           ;pic18f45k20.h: 101: static volatile near unsign
      +                          ed char BAUDCTL @ 0xFB8;
   176                           ;pic18f45k20.h: 102: static volatile near unsign
      +                          ed char PWM1CON @ 0xFB7;
   177                           ;pic18f45k20.h: 103: static volatile near unsign
      +                          ed char ECCP1AS @ 0xFB6;
   178                           ;pic18f45k20.h: 104: static volatile near unsign
      +                          ed char CVRCON @ 0xFB5;
   179                           ;pic18f45k20.h: 105: static volatile near unsign
      +                          ed char CVRCON2 @ 0xFB4;
   180                           ;pic18f45k20.h: 106: static volatile near unsign
      +                          ed char TMR3H @ 0xFB3;
   181                           ;pic18f45k20.h: 107: static volatile near unsign
      +                          ed char TMR3L @ 0xFB2;
   182                           ;pic18f45k20.h: 109: static volatile near unsign
      +                          ed int TMR3 @ 0xFB2;
   183                           ;pic18f45k20.h: 110: static near unsigned char T
      +                          3CON @ 0xFB1;
   184                           ;pic18f45k20.h: 111: static near unsigned char S
      +                          PBRGH @ 0xFB0;
   185                           ;pic18f45k20.h: 112: static near unsigned char S
      +                          PBRG @ 0xFAF;
   186                           ;pic18f45k20.h: 114: static near unsigned char S
      +                          PBRG1 @ 0xFAF;
   187                           ;pic18f45k20.h: 115: static volatile near unsign
      +                          ed char RCREG @ 0xFAE;
   188                           ;pic18f45k20.h: 117: static volatile near unsign
      +                          ed char RCREG1 @ 0xFAE;
   189                           ;pic18f45k20.h: 118: static volatile near unsign
      +                          ed char TXREG @ 0xFAD;
   190                           ;pic18f45k20.h: 120: static volatile near unsign
      +                          ed char TXREG1 @ 0xFAD;
   191                           ;pic18f45k20.h: 121: static volatile near unsign
      +                          ed char TXSTA @ 0xFAC;
   192                           ;pic18f45k20.h: 123: static volatile near unsign
      +                          ed char TXSTA1 @ 0xFAC;
   193                           ;pic18f45k20.h: 124: static volatile near unsign
      +                          ed char RCSTA @ 0xFAB;
   194                           ;pic18f45k20.h: 126: static volatile near unsign
      +                          ed char RCSTA1 @ 0xFAB;
   195                           ;pic18f45k20.h: 128: static near unsigned char E
      +                          EADRH @ 0xFAA;
   196                           ;pic18f45k20.h: 130: static near unsigned char E
      +                          EADR @ 0xFA9;
   197                           ;pic18f45k20.h: 131: static volatile near unsign
      +                          ed char EEDATA @ 0xFA8;
   198                           ;pic18f45k20.h: 132: static volatile near unsign
      +                          ed char EECON2 @ 0xFA7;
   199  008A86                     _InitDataPmr:
   200                           ;	_dac assigned to ?a_PomiarCS+0
   201  000000                     _PomiarCS$dac	set	?a_PomiarCS
   202                           ;	_bnc assigned to ?a_PomiarPCO+0
   203  000000                     _PomiarPCO$bnc	set	?a_PomiarPCO
   204                           ;	_m assigned to ?a_GetPGD_PCO+1
   205  000000                     _GetPGD_PCO$m	set	?a_GetPGD_PCO+1
   206  000000                     
   207                           ;pomiar.c: 40: DtCO._err_CO=0;
   208  008A86  0100               	movlb	_DtCO shr (0+8)
   209  008A88  917D               	bcf	_DtCO& (0+255),0,b
   210                           ;pomiar.c: 41: DtCO._su_CO=0;
   211  008A8A  937D               	bcf	_DtCO& (0+255),1,b
   212                           ;pomiar.c: 42: DtCO._ad_CO=0;
   213  008A8C  957D               	bcf	_DtCO& (0+255),2,b
   214                           ;pomiar.c: 43: DtCO._su_SRW_CO=0;
   215  008A8E  977D               	bcf	_DtCO& (0+255),3,b
   216                           ;pomiar.c: 44: DtCO._ad_SRW_CO=0;
   217  008A90  997D               	bcf	_DtCO& (0+255),4,b
   218                           ;pomiar.c: 45: DtCO._cold_CO=0;
   219  008A92  957E               	bcf	(_DtCO+1)& (0+255),2,b
   220                           ;pomiar.c: 46: DtCO._hot_CO=0;
   221  008A94  977E               	bcf	(_DtCO+1)& (0+255),3,b
   222                           ;pomiar.c: 47: DtCO._on_DZ_CO=0;
   223  008A96  9B7D               	bcf	_DtCO& (0+255),5,b
   224                           ;pomiar.c: 48: DtCO._su_DZ_CO=0;
   225  008A98  9D7D               	bcf	_DtCO& (0+255),6,b
   226                           ;pomiar.c: 49: DtCO._ad_DZ_CO=0;
   227  008A9A  9F7D               	bcf	_DtCO& (0+255),7,b
   228                           ;pomiar.c: 50: DtCO._ptwp_CO=0;
   229  008A9C  917E               	bcf	(_DtCO+1)& (0+255),0,b
   230                           ;pomiar.c: 51: DtCO._pz_CO=0;
   231  008A9E  937E               	bcf	(_DtCO+1)& (0+255),1,b
   232                           ;pomiar.c: 52: DtCO.indCO=0;
   233  008AA0  6B89               	clrf	(_DtCO+12)& (0+255),b
   234                           ;pomiar.c: 54: DtCW._err_CW=0;
   235  008AA2  916E               	bcf	_DtCW& (0+255),0,b
   236                           ;pomiar.c: 55: DtCW._su_CW=0;
   237  008AA4  936E               	bcf	_DtCW& (0+255),1,b
   238                           ;pomiar.c: 56: DtCW._ad_CW=0;
   239  008AA6  956E               	bcf	_DtCW& (0+255),2,b
   240                           ;pomiar.c: 57: DtCW._on_DZ_CW=0;
   241  008AA8  996E               	bcf	_DtCW& (0+255),4,b
   242                           ;pomiar.c: 58: DtCW._su_DZ_CW=0;
   243  008AAA  9B6E               	bcf	_DtCW& (0+255),5,b
   244                           ;pomiar.c: 59: DtCW._ad_DZ_CW=0;
   245  008AAC  9D6E               	bcf	_DtCW& (0+255),6,b
   246                           ;pomiar.c: 60: DtCW.indCW=0;
   247  008AAE  6B78               	clrf	(_DtCW+10)& (0+255),b
   248                           ;pomiar.c: 62: DtCS._hi=0;
   249  008AB0  915F               	bcf	_DtCS& (0+255),0,b
   250                           ;pomiar.c: 63: DtCS._lo=0;
   251  008AB2  935F               	bcf	_DtCS& (0+255),1,b
   252                           ;pomiar.c: 64: DtCS._no=0;
   253  008AB4  955F               	bcf	_DtCS& (0+255),2,b
   254                           ;pomiar.c: 65: DtCS._error=0;
   255  008AB6  975F               	bcf	_DtCS& (0+255),3,b
   256                           ;pomiar.c: 66: DtCS._work=1;
   257  008AB8  895F               	bsf	_DtCS& (0+255),4,b
   258                           ;pomiar.c: 67: }
   259  008ABA  0012               	return	
   260  008ABC                     __end_of_InitDataPmr:
   261                           ;pomiar.c: 70: void IncPmrTimer(void)
   262                           ;pomiar.c: 71: {
   263  008ABC                     _IncPmrTimer:
   264  000000                     
   265                           ;pomiar.c: 72: if(PmrtimFlt1<0xff) PmrtimFlt1++;
   266  008ABC  CE79  F000         	movff	_PmrtimFlt1,btemp
   267  008AC0  2800               	incf	btemp,w,c
   268  008AC2  E002               	bz	l17
   269  008AC4  010E               	movlb	_PmrtimFlt1 shr (0+8)
   270  008AC6  2B79               	incf	_PmrtimFlt1& (0+255),f,b
   271  008AC8                     l17:
   272                           ;pomiar.c: 73: if(PmrtimFlt2<0xff) PmrtimFlt2++;
   273  008AC8  CE7A  F000         	movff	_PmrtimFlt2,btemp
   274  008ACC  2800               	incf	btemp,w,c
   275  008ACE  E002               	bz	l18
   276  008AD0  010E               	movlb	_PmrtimFlt2 shr (0+8)
   277  008AD2  2B7A               	incf	_PmrtimFlt2& (0+255),f,b
   278  008AD4                     l18:
   279                           ;pomiar.c: 74: if(PmrtimFlt3<0xffff) PmrtimFlt3+
      +                          +;
   280  008AD4  0100               	movlb	_PmrtimFlt3 shr (0+8)
   281  008AD6  1D5C               	comf	(_PmrtimFlt3+1)& (0+255),w,b
   282  008AD8  0EFF               	movlw	255
   283  008ADA  B4D8               	btfsc	status,2,c
   284  008ADC  195B               	xorwf	_PmrtimFlt3& (0+255),w,b
   285  008ADE  B4D8               	btfsc	status,2,c
   286  008AE0  0012               	return	
   287  008AE2  4B5B               	infsnz	_PmrtimFlt3& (0+255),f,b
   288  008AE4  2B5C               	incf	(_PmrtimFlt3+1)& (0+255),f,b
   289                           ;pomiar.c: 75: }
   290  008AE6  0012               	return	
   291  008AE8                     __end_of_IncPmrTimer:
   292                           ;pomiar.c: 78: void StartTim1(void)
   293                           ;pomiar.c: 79: {
   294  008AE8                     _StartTim1:
   295  000000                     
   296                           ;pomiar.c: 80: PmrtimFlt1=0;
   297  008AE8  010E               	movlb	_PmrtimFlt1 shr (0+8)
   298  008AEA  6B79               	clrf	_PmrtimFlt1& (0+255),b
   299                           ;pomiar.c: 81: }
   300  008AEC  0012               	return	
   301  008AEE                     __end_of_StartTim1:
   302                           ;pomiar.c: 82: bit PmrTim1(unsigned char tm)
   303                           ;pomiar.c: 83: {
   304  008AEE                     _PmrTim1:
   305  000000                     
   306                           ; _tm loaded to fsr2l
   307  008AEE  6ED9               	movwf	fsr2l,c
   308                           ;pomiar.c: 84: if(PmrtimFlt1<tm) return 0;
   309  008AF0  50D9               	movf	fsr2l,w,c
   310  008AF2  010E               	movlb	_PmrtimFlt1 shr (0+8)
   311  008AF4  6179               	cpfslt	_PmrtimFlt1& (0+255),b
   312  008AF6  D002               	goto	l22
   313  008AF8  90D8               	bcf	status,0,c
   314  008AFA  0012               	return	
   315  008AFC                     l22:
   316                           ;pomiar.c: 85: return 1;
   317  008AFC  80D8               	bsf	status,0,c
   318  008AFE  0012               	return	
   319                           ;pomiar.c: 86: }
   320  008B00                     __end_of_PmrTim1:
   321                           ;pomiar.c: 89: void StartTim2(void)
   322                           ;pomiar.c: 90: {
   323  008B00                     _StartTim2:
   324  000000                     
   325                           ;pomiar.c: 91: PmrtimFlt2=0;
   326  008B00  010E               	movlb	_PmrtimFlt2 shr (0+8)
   327  008B02  6B7A               	clrf	_PmrtimFlt2& (0+255),b
   328                           ;pomiar.c: 92: }
   329  008B04  0012               	return	
   330  008B06                     __end_of_StartTim2:
   331                           ;pomiar.c: 93: bit PmrTim2(unsigned char tm)
   332                           ;pomiar.c: 94: {
   333  008B06                     _PmrTim2:
   334  000000                     
   335                           ; _tm loaded to fsr2l
   336  008B06  6ED9               	movwf	fsr2l,c
   337                           ;pomiar.c: 95: if(PmrtimFlt2<tm) return 0;
   338  008B08  50D9               	movf	fsr2l,w,c
   339  008B0A  010E               	movlb	_PmrtimFlt2 shr (0+8)
   340  008B0C  617A               	cpfslt	_PmrtimFlt2& (0+255),b
   341  008B0E  D002               	goto	l25
   342  008B10  90D8               	bcf	status,0,c
   343  008B12  0012               	return	
   344  008B14                     l25:
   345                           ;pomiar.c: 96: return 1;
   346  008B14  80D8               	bsf	status,0,c
   347  008B16  0012               	return	
   348                           ;pomiar.c: 97: }
   349  008B18                     __end_of_PmrTim2:
   350                           ;pomiar.c: 100: void StartTim3(void)
   351                           ;pomiar.c: 101: {
   352  008B18                     _StartTim3:
   353  000000                     
   354                           ;pomiar.c: 102: PmrtimFlt3=0;
   355  008B18  EE00  F05B         	lfsr	0,_PmrtimFlt3
   356  008B1C  6AEE               	clrf	postinc0,c
   357  008B1E  6AEE               	clrf	postinc0,c
   358                           ;pomiar.c: 103: }
   359  008B20  0012               	return	
   360  008B22                     __end_of_StartTim3:
   361                           ;       param _tm assigned to ?_PmrTim3+0
   362  000000                     _PmrTim3$tm	set	?_PmrTim3
   363                           ;pomiar.c: 104: bit PmrTim3(unsigned int tm)
   364                           ;pomiar.c: 105: {
   365  008B22  00A4               	dw	?_PmrTim3
   366  008B24                     _PmrTim3:
   367  000000                     
   368                           ;pomiar.c: 106: if(PmrtimFlt3<tm) return 0;
   369  008B24  C05B  F000         	movff	_PmrtimFlt3,btemp
   370  008B28  C05C  F001         	movff	_PmrtimFlt3+1,btemp+1
   371  008B2C  0100               	movlb	__Lparam shr (0+8)
   372  008B2E  51A5               	movf	(?_PmrTim3+1)^(__Lparam& (0+65280)),w
   373  008B30  5C01               	subwf	btemp+1,w,c
   374  008B32  E102               	bnz	u65
   375  008B34  51A4               	movf	?_PmrTim3^(__Lparam& (0+65280)),w
   376  008B36  5C00               	subwf	btemp,w,c
   377  008B38                     u65:
   378  008B38  E202               	bc	l28
   379  008B3A  90D8               	bcf	status,0,c
   380  008B3C  0012               	return	
   381  008B3E                     l28:
   382                           ;pomiar.c: 107: return 1;
   383  008B3E  80D8               	bsf	status,0,c
   384  008B40  0012               	return	
   385                           ;pomiar.c: 108: }
   386  008B42                     __end_of_PmrTim3:
   387                           ;pomiar.c: 111: void GoldenEye(void)
   388                           ;pomiar.c: 112: {
   389  008B42                     _GoldenEye:
   390  000000                     
   391                           ;pomiar.c: 113: signed char dt;
   392  008B42  C080  FFE8         	movff	_DtCO+3,wreg
   393  008B46  0103               	movlb	(_M+35) shr (0+8)
   394  008B48  5D29               	subwf	(_M+35)& (0+255),w,b
   395  008B4A  6EE1               	movwf	fsr1l,c
   396                           ;pomiar.c: 119: if((DtCO.PPCO-M.CONTSETP)>0) ph=
      +                          DtCO.PPCO-M.CONTSETP;
   397  008B4C  C329  FFE8         	movff	_M+35,wreg
   398  008B50  C082  F000         	movff	_DtCO+5,btemp
   399  008B54  6A01               	clrf	btemp+1,c
   400  008B56  5E00               	subwf	btemp,f,c
   401  008B58  0E00               	movlw	0
   402  008B5A  5A01               	subwfb	btemp+1,f,c
   403  008B5C  5001               	movf	btemp+1,w,c
   404  008B5E  0A80               	xorlw	128
   405  008B60  0F80               	addlw	-128
   406  008B62  0E01               	movlw	1
   407  008B64  B4D8               	btfsc	status,2,c
   408  008B66  5C00               	subwf	btemp,w,c
   409  008B68  E306               	bnc	l30
   410  008B6A  C329  FFE8         	movff	_M+35,wreg
   411  008B6E  0100               	movlb	(_DtCO+5) shr (0+8)
   412  008B70  5D82               	subwf	(_DtCO+5)& (0+255),w,b
   413  008B72  6EE9               	movwf	fsr0l,c
   414  008B74  D001               	goto	l31
   415  008B76                     l30:
   416                           ;pomiar.c: 120: else ph=0;
   417  008B76  6AE9               	clrf	fsr0l,c
   418  008B78                     l31:
   419                           ;pomiar.c: 121: if((DtCO.CO>=(M.CONTSETP+11))||(
      +                          DtCO.CO<=(M.CONTSETP-11))) DtCO.SCO=DtCO.CO;
   420  008B78  0E0B               	movlw	11
   421  008B7A  C329  F002         	movff	_M+35,btemp+2
   422  008B7E  6A03               	clrf	btemp+3,c
   423  008B80  2602               	addwf	btemp+2,f,c
   424  008B82  0E00               	movlw	0
   425  008B84  2203               	addwfc	btemp+3,f,c
   426  008B86  C080  F000         	movff	_DtCO+3,btemp
   427  008B8A  6A01               	clrf	btemp+1,c
   428  008B8C  5001               	movf	btemp+1,w,c
   429  008B8E  0A80               	xorlw	128
   430  008B90  6E04               	movwf	btemp+4,c
   431  008B92  5003               	movf	btemp+3,w,c
   432  008B94  0A80               	xorlw	128
   433  008B96  5C04               	subwf	btemp+4,w,c
   434  008B98  E102               	bnz	u85
   435  008B9A  5002               	movf	btemp+2,w,c
   436  008B9C  5C00               	subwf	btemp,w,c
   437  008B9E                     u85:
   438  008B9E  E215               	bc	u100
   439  008BA0  C080  F000         	movff	_DtCO+3,btemp
   440  008BA4  6A01               	clrf	btemp+1,c
   441  008BA6  C329  F002         	movff	_M+35,btemp+2
   442  008BAA  0EF5               	movlw	245
   443  008BAC  2402               	addwf	btemp+2,w,c
   444  008BAE  6EF6               	movwf	tblptrl,c
   445  008BB0  6AF7               	clrf	tblptrh,c
   446  008BB2  0EFF               	movlw	255
   447  008BB4  22F7               	addwfc	tblptrh,f,c
   448  008BB6  50F7               	movf	tblptrh,w,c
   449  008BB8  0A80               	xorlw	128
   450  008BBA  6E02               	movwf	btemp+2,c
   451  008BBC  5001               	movf	btemp+1,w,c
   452  008BBE  0A80               	xorlw	128
   453  008BC0  5C02               	subwf	btemp+2,w,c
   454  008BC2  E102               	bnz	u95
   455  008BC4  5000               	movf	btemp,w,c
   456  008BC6  5CF6               	subwf	tblptrl,w,c
   457  008BC8                     u95:
   458  008BC8  E303               	bnc	l32
   459  008BCA                     u100:
   460  008BCA  C080  F08A         	movff	_DtCO+3,_DtCO+13
   461  008BCE  D072               	goto	l33
   462  008BD0                     l32:
   463                           ;pomiar.c: 122: else
   464  008BD0  BEE1               	btfsc	fsr1l,7,c
   465  008BD2  D023               	goto	l34
   466                           ;pomiar.c: 125: {
   467                           ; _hist allocated to prodl
   468  008BD4  50E9               	movf	fsr0l,w,c
   469  008BD6  0100               	movlb	(_DtCO+17) shr (0+8)
   470  008BD8  258E               	addwf	(_DtCO+17)& (0+255),w,b
   471  008BDA  6EF3               	movwf	prodl,c
   472                           ;pomiar.c: 128: if(dt<3) pop=dt;
   473  008BDC  50E1               	movf	fsr1l,w,c
   474  008BDE  0A80               	xorlw	128
   475  008BE0  0F7D               	addlw	-131
   476  008BE2  50E1               	movf	fsr1l,w,c
   477  008BE4  E201               	bc	L48
   478  008BE6  D00F               	goto	L17
   479                           ;pomiar.c: 129: else
   480  008BE8                     L48:
   481  008BE8  0A80               	xorlw	128
   482  008BEA  0F7D               	addlw	-131
   483  008BEC  E306               	bnc	l37
   484  008BEE  50E1               	movf	fsr1l,w,c
   485  008BF0  0A80               	xorlw	128
   486  008BF2  0F77               	addlw	-137
   487  008BF4  E202               	bc	l37
   488  008BF6  0E03               	movlw	3
   489  008BF8  D006               	goto	L17
   490  008BFA                     l37:
   491                           ;pomiar.c: 131: else
   492  008BFA  50E1               	movf	fsr1l,w,c
   493  008BFC  0A80               	xorlw	128
   494  008BFE  0F77               	addlw	-137
   495  008C00  E303               	bnc	l36
   496  008C02  50E1               	movf	fsr1l,w,c
   497  008C04  080B               	sublw	11
   498  008C06                     L17:
   499  008C06  6ED9               	movwf	fsr2l,c
   500  008C08                     l36:
   501                           ;pomiar.c: 134: if(pop&&!hist) pop=pop-1;
   502  008C08  50D9               	movf	fsr2l,w,c
   503  008C0A  E003               	bz	l40
   504  008C0C  50F3               	movf	prodl,w,c
   505  008C0E  E101               	bnz	l40
   506  008C10  06D9               	decf	fsr2l,f,c
   507  008C12                     l40:
   508                           ;pomiar.c: 135: DtCO.SCO=DtCO.CO+pop;
   509  008C12  50D9               	movf	fsr2l,w,c
   510  008C14  0100               	movlb	(_DtCO+3) shr (0+8)
   511  008C16  2580               	addwf	(_DtCO+3)& (0+255),w,b
   512  008C18  D04B               	goto	L18
   513                           ;pomiar.c: 136: }
   514  008C1A                     l34:
   515                           ;pomiar.c: 137: else
   516                           ; _hist allocated to fsr2l
   517  008C1A  50E9               	movf	fsr0l,w,c
   518  008C1C  0100               	movlb	(_DtCO+17) shr (0+8)
   519  008C1E  258E               	addwf	(_DtCO+17)& (0+255),w,b
   520  008C20  6ED9               	movwf	fsr2l,c
   521                           ;pomiar.c: 143: switch(DtKNF.tpkt)
   522  008C22  D010               	goto	l43
   523  008C24                     l44:
   524                           ;pomiar.c: 144: {
   525                           ;pomiar.c: 146: {
   526                           ;pomiar.c: 148: {
   527                           ;pomiar.c: 150: {
   528                           ;pomiar.c: 152: }
   529                           ;pomiar.c: 154: else
   530                           ;pomiar.c: 157: {
   531                           ;pomiar.c: 159: }
   532  008C24                     l49:
   533                           ;pomiar.c: 162: }
   534                           ;pomiar.c: 164: {
   535  008C24  EE02  F0C8         	lfsr	0,_DtKNF+26
   536  008C28  50EF               	movf	indf0,w,c
   537  008C2A  E016               	bz	L40
   538                           ;pomiar.c: 166: {
   539                           ;pomiar.c: 168: {
   540                           ;pomiar.c: 170: }
   541                           ;pomiar.c: 172: else
   542                           ;pomiar.c: 188: }
   543  008C2C                     l55:
   544                           ;pomiar.c: 190: else
   545  008C2C  50D9               	movf	fsr2l,w,c
   546  008C2E  C329  F000         	movff	_M+35,btemp
   547  008C32  6A01               	clrf	btemp+1,c
   548  008C34  2600               	addwf	btemp,f,c
   549  008C36  0E00               	movlw	0
   550  008C38  2201               	addwfc	btemp+1,f,c
   551  008C3A  5001               	movf	btemp+1,w,c
   552  008C3C  0A80               	xorlw	128
   553  008C3E  0F80               	addlw	-128
   554  008C40  0E3D               	movlw	61
   555  008C42  D015               	goto	L41
   556                           ;pomiar.c: 193: {
   557                           ;pomiar.c: 195: }
   558  008C44                     l43:
   559  008C44  C2BC  FFE8         	movff	_DtKNF+14,wreg
   560  008C48  0A00               	xorlw	0
   561  008C4A  E0EC               	bz	l49
   562  008C4C  0A03               	xorlw	3
   563  008C4E  E0EA               	bz	l44
   564                           ;pomiar.c: 175: {
   565                           ;pomiar.c: 177: }
   566                           ;pomiar.c: 180: }
   567                           ;pomiar.c: 182: {
   568  008C50  EE02  F0C8         	lfsr	0,_DtKNF+26
   569  008C54  50EF               	movf	indf0,w,c
   570  008C56  E1EA               	bnz	l55
   571  008C58                     L40:
   572                           ;pomiar.c: 184: {
   573  008C58  50D9               	movf	fsr2l,w,c
   574  008C5A  C329  F000         	movff	_M+35,btemp
   575  008C5E  6A01               	clrf	btemp+1,c
   576  008C60  2600               	addwf	btemp,f,c
   577  008C62  0E00               	movlw	0
   578  008C64  2201               	addwfc	btemp+1,f,c
   579  008C66  5001               	movf	btemp+1,w,c
   580  008C68  0A80               	xorlw	128
   581  008C6A  0F80               	addlw	-128
   582  008C6C  0E56               	movlw	86
   583  008C6E                     L41:
   584  008C6E  B4D8               	btfsc	status,2,c
   585  008C70  5C00               	subwf	btemp,w,c
   586  008C72  E302               	bnc	l42
   587                           ;pomiar.c: 186: {
   588  008C74  0E05               	movlw	5
   589  008C76  6ED9               	movwf	fsr2l,c
   590  008C78                     l42:
   591                           ;pomiar.c: 201: if(hist>1)
   592  008C78  0E01               	movlw	1
   593  008C7A  64D9               	cpfsgt	fsr2l,c
   594  008C7C  D015               	goto	l59
   595                           ;pomiar.c: 202: {
   596  008C7E  50D9               	movf	fsr2l,w,c
   597  008C80  E013               	bz	l59
   598                           ;pomiar.c: 204: {
   599  008C82  CFE1 F000          	movff	fsr1l,btemp
   600  008C86  6A01               	clrf	btemp+1,c
   601  008C88  BE00               	btfsc	btemp,7,c
   602  008C8A  0601               	decf	btemp+1,f,c
   603  008C8C  1E00               	comf	btemp,f,c
   604  008C8E  1E01               	comf	btemp+1,f,c
   605  008C90  4A00               	infsnz	btemp,f,c
   606  008C92  2A01               	incf	btemp+1,f,c
   607  008C94  5001               	movf	btemp+1,w,c
   608  008C96  0A80               	xorlw	128
   609  008C98  0F80               	addlw	-128
   610  008C9A  0E01               	movlw	1
   611  008C9C  B4D8               	btfsc	status,2,c
   612  008C9E  5C00               	subwf	btemp,w,c
   613  008CA0  E203               	bc	l59
   614  008CA2  28E1               	incf	fsr1l,w,c
   615  008CA4  6ED9               	movwf	fsr2l,c
   616  008CA6  D001               	goto	l64
   617                           ;pomiar.c: 206: else pop=0;
   618                           ;pomiar.c: 207: }
   619                           ;pomiar.c: 208: else pop=0;
   620                           ;pomiar.c: 212: }
   621  008CA8                     l59:
   622                           ;pomiar.c: 213: else pop=0;
   623  008CA8  6AD9               	clrf	fsr2l,c
   624  008CAA                     l64:
   625                           ;pomiar.c: 214: DtCO.SCO=DtCO.CO-pop;
   626  008CAA  50D9               	movf	fsr2l,w,c
   627  008CAC  0100               	movlb	(_DtCO+3) shr (0+8)
   628  008CAE  5D80               	subwf	(_DtCO+3)& (0+255),w,b
   629  008CB0                     L18:
   630  008CB0  CFE8 F08A          	movff	wreg,_DtCO+13
   631  008CB4                     l33:
   632                           ;pomiar.c: 215: }
   633  008CB4  C08A  F332         	movff	_DtCO+13,_RSDT1+5
   634                           ;pomiar.c: 220: if(DtKNF.tpkt!=0)
   635  008CB8  EE02  F0BC         	lfsr	0,_DtKNF+14
   636  008CBC  50EF               	movf	indf0,w,c
   637  008CBE  E101 D097          	bz	l65
   638                           ;pomiar.c: 221: {
   639  008CC2  C070  FFE8         	movff	_DtCW+2,wreg
   640  008CC6  0100               	movlb	(_DtCW+4) shr (0+8)
   641  008CC8  5D72               	subwf	(_DtCW+4)& (0+255),w,b
   642  008CCA  6EE1               	movwf	fsr1l,c
   643                           ;pomiar.c: 223: if((DtCW.CW>=(DtCW.PPCW+11))||(D
      +                          tCW.CW<=(DtCW.PPCW-11))) DtCW.SCW=DtCW.CW;
   644  008CCC  0E0B               	movlw	11
   645  008CCE  C072  F002         	movff	_DtCW+4,btemp+2
   646  008CD2  6A03               	clrf	btemp+3,c
   647  008CD4  2602               	addwf	btemp+2,f,c
   648  008CD6  0E00               	movlw	0
   649  008CD8  2203               	addwfc	btemp+3,f,c
   650  008CDA  C070  F000         	movff	_DtCW+2,btemp
   651  008CDE  6A01               	clrf	btemp+1,c
   652  008CE0  5001               	movf	btemp+1,w,c
   653  008CE2  0A80               	xorlw	128
   654  008CE4  6E04               	movwf	btemp+4,c
   655  008CE6  5003               	movf	btemp+3,w,c
   656  008CE8  0A80               	xorlw	128
   657  008CEA  5C04               	subwf	btemp+4,w,c
   658  008CEC  E102               	bnz	u335
   659  008CEE  5002               	movf	btemp+2,w,c
   660  008CF0  5C00               	subwf	btemp,w,c
   661  008CF2                     u335:
   662  008CF2  E27E               	bc	l65
   663  008CF4  C070  F000         	movff	_DtCW+2,btemp
   664  008CF8  6A01               	clrf	btemp+1,c
   665  008CFA  C072  F002         	movff	_DtCW+4,btemp+2
   666  008CFE  0EF5               	movlw	245
   667  008D00  2402               	addwf	btemp+2,w,c
   668  008D02  6EF6               	movwf	tblptrl,c
   669  008D04  6AF7               	clrf	tblptrh,c
   670  008D06  0EFF               	movlw	255
   671  008D08  22F7               	addwfc	tblptrh,f,c
   672  008D0A  50F7               	movf	tblptrh,w,c
   673  008D0C  0A80               	xorlw	128
   674  008D0E  6E02               	movwf	btemp+2,c
   675  008D10  5001               	movf	btemp+1,w,c
   676  008D12  0A80               	xorlw	128
   677  008D14  5C02               	subwf	btemp+2,w,c
   678  008D16  E102               	bnz	u345
   679  008D18  5000               	movf	btemp,w,c
   680  008D1A  5CF6               	subwf	tblptrl,w,c
   681  008D1C                     u345:
   682  008D1C  E269               	bc	l65
   683                           ;pomiar.c: 224: else
   684  008D1E  BEE1               	btfsc	fsr1l,7,c
   685  008D20  D01C               	goto	l68
   686                           ;pomiar.c: 227: {
   687  008D22  50E1               	movf	fsr1l,w,c
   688  008D24  0A80               	xorlw	128
   689  008D26  0F7D               	addlw	-131
   690  008D28  50E1               	movf	fsr1l,w,c
   691  008D2A  E201               	bc	L49
   692  008D2C  D00F               	goto	L19
   693                           ;pomiar.c: 229: else
   694  008D2E                     L49:
   695  008D2E  0A80               	xorlw	128
   696  008D30  0F7D               	addlw	-131
   697  008D32  E306               	bnc	l71
   698  008D34  50E1               	movf	fsr1l,w,c
   699  008D36  0A80               	xorlw	128
   700  008D38  0F77               	addlw	-137
   701  008D3A  E202               	bc	l71
   702  008D3C  0E03               	movlw	3
   703  008D3E  D006               	goto	L19
   704  008D40                     l71:
   705                           ;pomiar.c: 231: else
   706  008D40  50E1               	movf	fsr1l,w,c
   707  008D42  0A80               	xorlw	128
   708  008D44  0F77               	addlw	-137
   709  008D46  E303               	bnc	l70
   710  008D48  50E1               	movf	fsr1l,w,c
   711  008D4A  080B               	sublw	11
   712  008D4C                     L19:
   713  008D4C  6ED9               	movwf	fsr2l,c
   714  008D4E                     l70:
   715                           ;pomiar.c: 233: DtCW.SCW=DtCW.CW+pop;
   716  008D4E  50D9               	movf	fsr2l,w,c
   717  008D50  0100               	movlb	(_DtCW+2) shr (0+8)
   718  008D52  2570               	addwf	(_DtCW+2)& (0+255),w,b
   719  008D54                     L4:
   720  008D54  CFE8 F079          	movff	wreg,_DtCW+11
   721                           ;pomiar.c: 234: }
   722  008D58  D04D               	goto	l80
   723  008D5A                     l68:
   724                           ;pomiar.c: 235: else
   725  008D5A  CFE1 F000          	movff	fsr1l,btemp
   726  008D5E  6A01               	clrf	btemp+1,c
   727  008D60  BE00               	btfsc	btemp,7,c
   728  008D62  0601               	decf	btemp+1,f,c
   729  008D64  1E00               	comf	btemp,f,c
   730  008D66  1E01               	comf	btemp+1,f,c
   731  008D68  4A00               	infsnz	btemp,f,c
   732  008D6A  2A01               	incf	btemp+1,f,c
   733  008D6C  5001               	movf	btemp+1,w,c
   734  008D6E  0A80               	xorlw	128
   735  008D70  0F80               	addlw	-128
   736  008D72  0E01               	movlw	1
   737  008D74  B4D8               	btfsc	status,2,c
   738  008D76  5C00               	subwf	btemp,w,c
   739  008D78  E202               	bc	l75
   740  008D7A  28E1               	incf	fsr1l,w,c
   741  008D7C  D034               	goto	L20
   742  008D7E                     l75:
   743                           ;pomiar.c: 239: else
   744  008D7E  CFE1 F000          	movff	fsr1l,btemp
   745  008D82  6A01               	clrf	btemp+1,c
   746  008D84  BE00               	btfsc	btemp,7,c
   747  008D86  0601               	decf	btemp+1,f,c
   748  008D88  1E00               	comf	btemp,f,c
   749  008D8A  1E01               	comf	btemp+1,f,c
   750  008D8C  4A00               	infsnz	btemp,f,c
   751  008D8E  2A01               	incf	btemp+1,f,c
   752  008D90  5001               	movf	btemp+1,w,c
   753  008D92  0A80               	xorlw	128
   754  008D94  0F80               	addlw	-128
   755  008D96  0E01               	movlw	1
   756  008D98  B4D8               	btfsc	status,2,c
   757  008D9A  5C00               	subwf	btemp,w,c
   758  008D9C  E312               	bnc	l77
   759  008D9E  CFE1 F000          	movff	fsr1l,btemp
   760  008DA2  6A01               	clrf	btemp+1,c
   761  008DA4  BE00               	btfsc	btemp,7,c
   762  008DA6  0601               	decf	btemp+1,f,c
   763  008DA8  1E00               	comf	btemp,f,c
   764  008DAA  1E01               	comf	btemp+1,f,c
   765  008DAC  4A00               	infsnz	btemp,f,c
   766  008DAE  2A01               	incf	btemp+1,f,c
   767  008DB0  5001               	movf	btemp+1,w,c
   768  008DB2  0A80               	xorlw	128
   769  008DB4  0F80               	addlw	-128
   770  008DB6  0E05               	movlw	5
   771  008DB8  B4D8               	btfsc	status,2,c
   772  008DBA  5C00               	subwf	btemp,w,c
   773  008DBC  E202               	bc	l77
   774  008DBE  0E01               	movlw	1
   775  008DC0  D012               	goto	L20
   776  008DC2                     l77:
   777                           ;pomiar.c: 241: else
   778  008DC2  CFE1 F000          	movff	fsr1l,btemp
   779  008DC6  6A01               	clrf	btemp+1,c
   780  008DC8  BE00               	btfsc	btemp,7,c
   781  008DCA  0601               	decf	btemp+1,f,c
   782  008DCC  1E00               	comf	btemp,f,c
   783  008DCE  1E01               	comf	btemp+1,f,c
   784  008DD0  4A00               	infsnz	btemp,f,c
   785  008DD2  2A01               	incf	btemp+1,f,c
   786  008DD4  5001               	movf	btemp+1,w,c
   787  008DD6  0A80               	xorlw	128
   788  008DD8  0F80               	addlw	-128
   789  008DDA  0E05               	movlw	5
   790  008DDC  B4D8               	btfsc	status,2,c
   791  008DDE  5C00               	subwf	btemp,w,c
   792  008DE0  E303               	bnc	l76
   793  008DE2  50E1               	movf	fsr1l,w,c
   794  008DE4  0F05               	addlw	5
   795  008DE6                     L20:
   796  008DE6  6ED9               	movwf	fsr2l,c
   797  008DE8                     l76:
   798                           ;pomiar.c: 243: DtCW.SCW=DtCW.CW-pop;
   799  008DE8  50D9               	movf	fsr2l,w,c
   800  008DEA  0100               	movlb	(_DtCW+2) shr (0+8)
   801  008DEC  5D70               	subwf	(_DtCW+2)& (0+255),w,b
   802  008DEE  D7B2               	goto	L4
   803                           ;pomiar.c: 244: }
   804  008DF0                     l65:
   805                           ;pomiar.c: 247: else DtCW.SCW=DtCW.CW;
   806  008DF0  C070  F079         	movff	_DtCW+2,_DtCW+11
   807  008DF4                     l80:
   808                           ;pomiar.c: 248: RSDT1.outCW=DtCW.SCW;
   809  008DF4  C079  F333         	movff	_DtCW+11,_RSDT1+6
   810                           ;pomiar.c: 249: }
   811  008DF8  0012               	return	
   812  008DFA                     __end_of_GoldenEye:
   813                           ;pomiar.c: 252: void PredkoscZmianCW(void)
   814                           ;pomiar.c: 253: {
   815  008DFA                     _PredkoscZmianCW:
   816  000000                     
   817                           ;pomiar.c: 254: static unsigned char ffcw,indff;
   818  008DFA  0103               	movlb	(_M+4) shr (0+8)
   819  008DFC  B70A               	btfsc	(_M+4)& (0+255),3,b
   820  008DFE  D005               	goto	l82
   821                           ;pomiar.c: 258: {
   822  008E00  010E               	movlb	F1694 shr (0+8)
   823  008E02  6B6D               	clrf	F1694& (0+255),b
   824                           ;pomiar.c: 260: indff=0;
   825  008E04  010E               	movlb	F1695 shr (0+8)
   826  008E06  6B6E               	clrf	F1695& (0+255),b
   827                           ;pomiar.c: 261: }
   828  008E08  D036               	goto	l83
   829  008E0A                     l82:
   830                           ;pomiar.c: 262: else
   831  008E0A  010E               	movlb	F1695 shr (0+8)
   832  008E0C  536E               	movf	F1695& (0+255),f,b
   833  008E0E  E10C               	bnz	l84
   834                           ;pomiar.c: 265: {
   835  008E10  6AD9               	clrf	fsr2l,c
   836  008E12                     l85:
   837  008E12  50D9               	movf	fsr2l,w,c
   838  008E14  EE0E  F07B         	lfsr	0,_wff
   839  008E18  26E9               	addwf	fsr0l,f,c
   840  008E1A  0E00               	movlw	0
   841  008E1C  22EA               	addwfc	fsr0h,f,c
   842  008E1E  6AEF               	clrf	indf0,c
   843  008E20  2AD9               	incf	fsr2l,f,c
   844  008E22  0E09               	movlw	9
   845  008E24  64D9               	cpfsgt	fsr2l,c
   846  008E26  D7F5               	goto	l85
   847  008E28                     l84:
   848                           ;pomiar.c: 267: }
   849  008E28  010E               	movlb	F1695 shr (0+8)
   850  008E2A  2B6E               	incf	F1695& (0+255),f,b
   851                           ;pomiar.c: 269: if(indff>=9)
   852  008E2C  0E08               	movlw	8
   853  008E2E  656E               	cpfsgt	F1695& (0+255),b
   854  008E30  D016               	goto	l88
   855                           ;pomiar.c: 270: {
   856  008E32  0E09               	movlw	9
   857  008E34  CFE8 FE6E          	movff	wreg,F1695
   858                           ;pomiar.c: 272: for(i=0;i<9;i++) wff[i]=wff[i+1]
      +                          ;
   859  008E38  6AD9               	clrf	fsr2l,c
   860  008E3A                     l89:
   861  008E3A  50D9               	movf	fsr2l,w,c
   862  008E3C  EE1E  F07C         	lfsr	1,_wff+1
   863  008E40  26E1               	addwf	fsr1l,f,c
   864  008E42  0E00               	movlw	0
   865  008E44  22E2               	addwfc	fsr1h,f,c
   866  008E46  50D9               	movf	fsr2l,w,c
   867  008E48  EE0E  F07B         	lfsr	0,_wff
   868  008E4C  26E9               	addwf	fsr0l,f,c
   869  008E4E  0E00               	movlw	0
   870  008E50  22EA               	addwfc	fsr0h,f,c
   871  008E52  CFE7 FFEF          	movff	indf1,indf0
   872  008E56  2AD9               	incf	fsr2l,f,c
   873  008E58  0E08               	movlw	8
   874  008E5A  64D9               	cpfsgt	fsr2l,c
   875  008E5C  D7EE               	goto	l89
   876  008E5E                     l88:
   877                           ;pomiar.c: 273: }
   878  008E5E  CE6E  FFE8         	movff	F1695,wreg
   879  008E62  EE0E  F07B         	lfsr	0,_wff
   880  008E66  26E9               	addwf	fsr0l,f,c
   881  008E68  0E00               	movlw	0
   882  008E6A  22EA               	addwfc	fsr0h,f,c
   883  008E6C  CE6D  FFE8         	movff	F1694,wreg
   884  008E70  0100               	movlb	(_DtCW+2) shr (0+8)
   885  008E72  5D70               	subwf	(_DtCW+2)& (0+255),w,b
   886  008E74  6EEF               	movwf	indf0,c
   887  008E76                     l83:
   888                           ;pomiar.c: 275: }
   889  008E76  C070  FE6D         	movff	_DtCW+2,F1694
   890                           ;pomiar.c: 277: w=0;
   891  008E7A  6AE1               	clrf	fsr1l,c
   892                           ;pomiar.c: 278: for(i=0;i<10;i++) w+=wff[i];
   893  008E7C  6AD9               	clrf	fsr2l,c
   894  008E7E                     l92:
   895  008E7E  50D9               	movf	fsr2l,w,c
   896  008E80  EE0E  F07B         	lfsr	0,_wff
   897  008E84  26E9               	addwf	fsr0l,f,c
   898  008E86  0E00               	movlw	0
   899  008E88  22EA               	addwfc	fsr0h,f,c
   900  008E8A  50EF               	movf	indf0,w,c
   901  008E8C  26E1               	addwf	fsr1l,f,c
   902  008E8E  2AD9               	incf	fsr2l,f,c
   903  008E90  0E09               	movlw	9
   904  008E92  64D9               	cpfsgt	fsr2l,c
   905  008E94  D7F4               	goto	l92
   906                           ;pomiar.c: 279: DtCW.ddDCW=w;
   907  008E96  CFE1 F077          	movff	fsr1l,_DtCW+9
   908                           ;pomiar.c: 280: }
   909  008E9A  0C09               	retlw	9
   910  008E9C                     __end_of_PredkoscZmianCW:
   911                           ;pomiar.c: 281: void PredkoscZmianCO(void)
   912                           ;pomiar.c: 282: {
   913  008E9C                     _PredkoscZmianCO:
   914  000000                     
   915                           ;pomiar.c: 283: static unsigned char ffco,indff;
   916  008E9C  0103               	movlb	(_M+4) shr (0+8)
   917  008E9E  B70A               	btfsc	(_M+4)& (0+255),3,b
   918  008EA0  D005               	goto	l96
   919                           ;pomiar.c: 287: {
   920  008EA2  010E               	movlb	F1700 shr (0+8)
   921  008EA4  6B6F               	clrf	F1700& (0+255),b
   922                           ;pomiar.c: 289: indff=0;
   923  008EA6  010E               	movlb	F1701 shr (0+8)
   924  008EA8  6B70               	clrf	F1701& (0+255),b
   925                           ;pomiar.c: 290: }
   926  008EAA  D036               	goto	l97
   927  008EAC                     l96:
   928                           ;pomiar.c: 291: else
   929  008EAC  010E               	movlb	F1701 shr (0+8)
   930  008EAE  5370               	movf	F1701& (0+255),f,b
   931  008EB0  E10C               	bnz	l98
   932                           ;pomiar.c: 294: {
   933  008EB2  6AD9               	clrf	fsr2l,c
   934  008EB4                     l99:
   935  008EB4  50D9               	movf	fsr2l,w,c
   936  008EB6  EE0E  F087         	lfsr	0,_wff2
   937  008EBA  26E9               	addwf	fsr0l,f,c
   938  008EBC  0E00               	movlw	0
   939  008EBE  22EA               	addwfc	fsr0h,f,c
   940  008EC0  6AEF               	clrf	indf0,c
   941  008EC2  2AD9               	incf	fsr2l,f,c
   942  008EC4  0E09               	movlw	9
   943  008EC6  64D9               	cpfsgt	fsr2l,c
   944  008EC8  D7F5               	goto	l99
   945  008ECA                     l98:
   946                           ;pomiar.c: 296: }
   947  008ECA  010E               	movlb	F1701 shr (0+8)
   948  008ECC  2B70               	incf	F1701& (0+255),f,b
   949                           ;pomiar.c: 298: if(indff>=9)
   950  008ECE  0E08               	movlw	8
   951  008ED0  6570               	cpfsgt	F1701& (0+255),b
   952  008ED2  D016               	goto	l102
   953                           ;pomiar.c: 299: {
   954  008ED4  0E09               	movlw	9
   955  008ED6  CFE8 FE70          	movff	wreg,F1701
   956                           ;pomiar.c: 301: for(i=0;i<9;i++) wff2[i]=wff2[i+
      +                          1];
   957  008EDA  6AD9               	clrf	fsr2l,c
   958  008EDC                     l103:
   959  008EDC  50D9               	movf	fsr2l,w,c
   960  008EDE  EE1E  F088         	lfsr	1,_wff2+1
   961  008EE2  26E1               	addwf	fsr1l,f,c
   962  008EE4  0E00               	movlw	0
   963  008EE6  22E2               	addwfc	fsr1h,f,c
   964  008EE8  50D9               	movf	fsr2l,w,c
   965  008EEA  EE0E  F087         	lfsr	0,_wff2
   966  008EEE  26E9               	addwf	fsr0l,f,c
   967  008EF0  0E00               	movlw	0
   968  008EF2  22EA               	addwfc	fsr0h,f,c
   969  008EF4  CFE7 FFEF          	movff	indf1,indf0
   970  008EF8  2AD9               	incf	fsr2l,f,c
   971  008EFA  0E08               	movlw	8
   972  008EFC  64D9               	cpfsgt	fsr2l,c
   973  008EFE  D7EE               	goto	l103
   974  008F00                     l102:
   975                           ;pomiar.c: 302: }
   976  008F00  CE70  FFE8         	movff	F1701,wreg
   977  008F04  EE0E  F087         	lfsr	0,_wff2
   978  008F08  26E9               	addwf	fsr0l,f,c
   979  008F0A  0E00               	movlw	0
   980  008F0C  22EA               	addwfc	fsr0h,f,c
   981  008F0E  CE6F  FFE8         	movff	F1700,wreg
   982  008F12  0100               	movlb	(_DtCO+3) shr (0+8)
   983  008F14  5D80               	subwf	(_DtCO+3)& (0+255),w,b
   984  008F16  6EEF               	movwf	indf0,c
   985  008F18                     l97:
   986                           ;pomiar.c: 304: }
   987  008F18  C080  FE6F         	movff	_DtCO+3,F1700
   988                           ;pomiar.c: 306: w=0;
   989  008F1C  6AE1               	clrf	fsr1l,c
   990                           ;pomiar.c: 307: for(i=0;i<10;i++) w+=wff2[i];
   991  008F1E  6AD9               	clrf	fsr2l,c
   992  008F20                     l106:
   993  008F20  50D9               	movf	fsr2l,w,c
   994  008F22  EE0E  F087         	lfsr	0,_wff2
   995  008F26  26E9               	addwf	fsr0l,f,c
   996  008F28  0E00               	movlw	0
   997  008F2A  22EA               	addwfc	fsr0h,f,c
   998  008F2C  50EF               	movf	indf0,w,c
   999  008F2E  26E1               	addwf	fsr1l,f,c
  1000  008F30  2AD9               	incf	fsr2l,f,c
  1001  008F32  0E09               	movlw	9
  1002  008F34  64D9               	cpfsgt	fsr2l,c
  1003  008F36  D7F4               	goto	l106
  1004                           ;pomiar.c: 308: DtCO.ddDCO=w;
  1005  008F38  CFE1 F088          	movff	fsr1l,_DtCO+11
  1006                           ;pomiar.c: 309: }
  1007  008F3C  0C09               	retlw	9
  1008  008F3E                     __end_of_PredkoscZmianCO:
  1009                           ;pomiar.c: 312: void FltParMod(void)
  1010                           ;pomiar.c: 313: {
  1011  008F3E                     _FltParMod:
  1012  000000                     
  1013                           ;pomiar.c: 314: static unsigned char indtm,fco,f
      +                          cw;
  1014  008F3E  C080  FFE8         	movff	_DtCO+3,wreg
  1015  008F42  010E               	movlb	F1707 shr (0+8)
  1016  008F44  6172               	cpfslt	F1707& (0+255),b
  1017  008F46  D005               	goto	l110
  1018  008F48  CE72  FFE8         	movff	F1707,wreg
  1019  008F4C  0100               	movlb	(_DtCO+3) shr (0+8)
  1020  008F4E  5D80               	subwf	(_DtCO+3)& (0+255),w,b
  1021  008F50  D004               	goto	L5
  1022  008F52                     l110:
  1023                           ;pomiar.c: 321: else wr=fco-DtCO.CO;
  1024  008F52  C080  FFE8         	movff	_DtCO+3,wreg
  1025  008F56  010E               	movlb	F1707 shr (0+8)
  1026  008F58  5D72               	subwf	F1707& (0+255),w,b
  1027  008F5A                     L5:
  1028  008F5A  6ED9               	movwf	fsr2l,c
  1029                           ;pomiar.c: 322: if(wr) DtCO.indCO++;
  1030  008F5C  50D9               	movf	fsr2l,w,c
  1031  008F5E  E002               	bz	l112
  1032  008F60  0100               	movlb	(_DtCO+12) shr (0+8)
  1033  008F62  2B89               	incf	(_DtCO+12)& (0+255),f,b
  1034  008F64                     l112:
  1035                           ;pomiar.c: 323: if(wr>=2) DtCO.indCO=10;
  1036  008F64  0E01               	movlw	1
  1037  008F66  64D9               	cpfsgt	fsr2l,c
  1038  008F68  D003               	goto	l113
  1039  008F6A  0E0A               	movlw	10
  1040  008F6C  CFE8 F089          	movff	wreg,_DtCO+12
  1041  008F70                     l113:
  1042                           ;pomiar.c: 324: PredkoscZmianCO();
  1043  008F70  DF95               	call	_PredkoscZmianCO	;wreg free
  1044                           ;pomiar.c: 326: if(DtCW.CW>fcw) wr=DtCW.CW-fcw;
  1045  008F72  C070  FFE8         	movff	_DtCW+2,wreg
  1046  008F76  010E               	movlb	F1708 shr (0+8)
  1047  008F78  6173               	cpfslt	F1708& (0+255),b
  1048  008F7A  D005               	goto	l114
  1049  008F7C  CE73  FFE8         	movff	F1708,wreg
  1050  008F80  0100               	movlb	(_DtCW+2) shr (0+8)
  1051  008F82  5D70               	subwf	(_DtCW+2)& (0+255),w,b
  1052  008F84  D004               	goto	L6
  1053  008F86                     l114:
  1054                           ;pomiar.c: 327: else wr=fcw-DtCW.CW;
  1055  008F86  C070  FFE8         	movff	_DtCW+2,wreg
  1056  008F8A  010E               	movlb	F1708 shr (0+8)
  1057  008F8C  5D73               	subwf	F1708& (0+255),w,b
  1058  008F8E                     L6:
  1059  008F8E  6ED9               	movwf	fsr2l,c
  1060                           ;pomiar.c: 328: if(wr) DtCW.indCW++;
  1061  008F90  50D9               	movf	fsr2l,w,c
  1062  008F92  E002               	bz	l116
  1063  008F94  0100               	movlb	(_DtCW+10) shr (0+8)
  1064  008F96  2B78               	incf	(_DtCW+10)& (0+255),f,b
  1065  008F98                     l116:
  1066                           ;pomiar.c: 329: if(wr>=2) DtCW.indCW=10;
  1067  008F98  0E01               	movlw	1
  1068  008F9A  64D9               	cpfsgt	fsr2l,c
  1069  008F9C  D003               	goto	l117
  1070  008F9E  0E0A               	movlw	10
  1071  008FA0  CFE8 F078          	movff	wreg,_DtCW+10
  1072  008FA4                     l117:
  1073                           ;pomiar.c: 330: PredkoscZmianCW();
  1074  008FA4  DF2A               	call	_PredkoscZmianCW	;wreg free
  1075                           ;pomiar.c: 333: indtm++;
  1076  008FA6  010E               	movlb	F1706 shr (0+8)
  1077  008FA8  2B71               	incf	F1706& (0+255),f,b
  1078                           ;pomiar.c: 334: if(indtm>9)
  1079  008FAA  0E09               	movlw	9
  1080  008FAC  6571               	cpfsgt	F1706& (0+255),b
  1081  008FAE  0C09               	retlw	9
  1082                           ;pomiar.c: 335: {
  1083  008FB0  6B71               	clrf	F1706& (0+255),b
  1084                           ;pomiar.c: 338: DtZW.SZW=DtZW.ZW;
  1085  008FB2  C065  F066         	movff	_DtZW+2,_DtZW+3
  1086                           ;pomiar.c: 341: if(DtCO.indCO<=7)
  1087  008FB6  0E08               	movlw	8
  1088  008FB8  0100               	movlb	(_DtCO+12) shr (0+8)
  1089  008FBA  6189               	cpfslt	(_DtCO+12)& (0+255),b
  1090  008FBC  D003               	goto	l119
  1091                           ;pomiar.c: 342: {
  1092  008FBE  6B87               	clrf	(_DtCO+10)& (0+255),b
  1093                           ;pomiar.c: 344: DtCO._fpCO=1;
  1094  008FC0  817F               	bsf	(_DtCO+2)& (0+255),0,b
  1095                           ;pomiar.c: 345: }
  1096  008FC2  D009               	goto	l120
  1097  008FC4                     l119:
  1098                           ;pomiar.c: 346: else
  1099  008FC4  CE72  FFE8         	movff	F1707,wreg
  1100  008FC8  0100               	movlb	(_DtCO+3) shr (0+8)
  1101  008FCA  5D80               	subwf	(_DtCO+3)& (0+255),w,b
  1102  008FCC  CFE8 F087          	movff	wreg,_DtCO+10
  1103                           ;pomiar.c: 349: DtCO._fpCO=1;
  1104  008FD0  817F               	bsf	(_DtCO+2)& (0+255),0,b
  1105                           ;pomiar.c: 350: fco=DtCO.CO;
  1106  008FD2  C080  FE72         	movff	_DtCO+3,F1707
  1107  008FD6                     l120:
  1108                           ;pomiar.c: 351: }
  1109  008FD6  0100               	movlb	(_DtCO+12) shr (0+8)
  1110  008FD8  6B89               	clrf	(_DtCO+12)& (0+255),b
  1111                           ;pomiar.c: 354: if(DtCW.indCW<=7)
  1112  008FDA  0E08               	movlw	8
  1113  008FDC  6178               	cpfslt	(_DtCW+10)& (0+255),b
  1114  008FDE  D003               	goto	l121
  1115                           ;pomiar.c: 355: {
  1116  008FE0  6B76               	clrf	(_DtCW+8)& (0+255),b
  1117                           ;pomiar.c: 357: DtCW._fpCW=1;
  1118  008FE2  856F               	bsf	(_DtCW+1)& (0+255),2,b
  1119                           ;pomiar.c: 358: }
  1120  008FE4  D009               	goto	l122
  1121  008FE6                     l121:
  1122                           ;pomiar.c: 359: else
  1123  008FE6  CE73  FFE8         	movff	F1708,wreg
  1124  008FEA  0100               	movlb	(_DtCW+2) shr (0+8)
  1125  008FEC  5D70               	subwf	(_DtCW+2)& (0+255),w,b
  1126  008FEE  CFE8 F076          	movff	wreg,_DtCW+8
  1127                           ;pomiar.c: 362: DtCW._fpCW=1;
  1128  008FF2  856F               	bsf	(_DtCW+1)& (0+255),2,b
  1129                           ;pomiar.c: 363: fcw=DtCW.CW;
  1130  008FF4  C070  FE73         	movff	_DtCW+2,F1708
  1131  008FF8                     l122:
  1132                           ;pomiar.c: 364: }
  1133  008FF8  0100               	movlb	(_DtCW+10) shr (0+8)
  1134  008FFA  6B78               	clrf	(_DtCW+10)& (0+255),b
  1135                           ;pomiar.c: 366: }
  1136  008FFC  0012               	return	
  1137  008FFE                     __end_of_FltParMod:
  1138                           ;pomiar.c: 371: void FiltrPomiarowyCOCW(void)
  1139                           ;pomiar.c: 372: {
  1140  008FFE                     _FiltrPomiarowyCOCW:
  1141  000000                     
  1142                           ;pomiar.c: 373: unsigned char bnc;
  1143  008FFE  0E14               	movlw	20
  1144  009000  DD76               	call	_PmrTim1
  1145  009002  E302               	bnc	l124
  1146                           ;pomiar.c: 377: {
  1147  009004  DD71               	call	_StartTim1	;wreg free
  1148                           ;pomiar.c: 379: GoldenEye();
  1149  009006  DD9D               	call	_GoldenEye	;wreg free
  1150  009008                     l124:
  1151                           ;pomiar.c: 380: }
  1152  009008  C329  FFE8         	movff	_M+35,wreg
  1153  00900C  0100               	movlb	(_DtCO+5) shr (0+8)
  1154  00900E  5D82               	subwf	(_DtCO+5)& (0+255),w,b
  1155  009010  E317               	bnc	l125
  1156                           ;pomiar.c: 384: {
  1157  009012  C329  FFE8         	movff	_M+35,wreg
  1158  009016  C082  F000         	movff	_DtCO+5,btemp
  1159  00901A  6A01               	clrf	btemp+1,c
  1160  00901C  5E00               	subwf	btemp,f,c
  1161  00901E  0E00               	movlw	0
  1162  009020  5A01               	subwfb	btemp+1,f,c
  1163  009022  5001               	movf	btemp+1,w,c
  1164  009024  0A80               	xorlw	128
  1165  009026  0F80               	addlw	-128
  1166  009028  0E03               	movlw	3
  1167  00902A  B4D8               	btfsc	status,2,c
  1168  00902C  5C00               	subwf	btemp,w,c
  1169  00902E  E302               	bnc	l126
  1170                           ;pomiar.c: 386: {
  1171  009030  6AD9               	clrf	fsr2l,c
  1172                           ;pomiar.c: 388: }
  1173  009032  D008               	goto	l128
  1174  009034                     l126:
  1175                           ;pomiar.c: 389: else
  1176  009034  C329  FFE8         	movff	_M+35,wreg
  1177  009038  0100               	movlb	(_DtCO+5) shr (0+8)
  1178  00903A  5D82               	subwf	(_DtCO+5)& (0+255),w,b
  1179  00903C  0802               	sublw	2
  1180  00903E  D001               	goto	L7
  1181                           ;pomiar.c: 392: }
  1182  009040                     l125:
  1183                           ;pomiar.c: 394: else
  1184  009040  0E02               	movlw	2
  1185  009042                     L7:
  1186  009042  6ED9               	movwf	fsr2l,c
  1187  009044                     l128:
  1188                           ;pomiar.c: 397: }
  1189  009044  C080  F000         	movff	_DtCO+3,btemp
  1190  009048  50D9               	movf	fsr2l,w,c
  1191  00904A  0103               	movlb	(_M+35) shr (0+8)
  1192  00904C  5D29               	subwf	(_M+35)& (0+255),w,b
  1193  00904E  6E01               	movwf	btemp+1,c
  1194  009050  5000               	movf	btemp,w,c
  1195  009052  5C01               	subwf	btemp+1,w,c
  1196  009054  CFE8 F086          	movff	wreg,_DtCO+9
  1197                           ;pomiar.c: 401: DtCW.DCW=(DtCW.PPCW-(3-1))-DtCW.
      +                          CW;
  1198  009058  C070  F000         	movff	_DtCW+2,btemp
  1199  00905C  C072  F001         	movff	_DtCW+4,btemp+1
  1200  009060  0EFE               	movlw	-2
  1201  009062  2601               	addwf	btemp+1,f,c
  1202  009064  5000               	movf	btemp,w,c
  1203  009066  5C01               	subwf	btemp+1,w,c
  1204  009068  CFE8 F075          	movff	wreg,_DtCW+7
  1205                           ;pomiar.c: 403: if(!DtIN._err_IN)
  1206  00906C  0100               	movlb	_DtIN shr (0+8)
  1207  00906E  B190               	btfsc	_DtIN& (0+255),0,b
  1208  009070  D02D               	goto	l129
  1209                           ;pomiar.c: 404: {
  1210  009072  C080  FFE8         	movff	_DtCO+3,wreg
  1211  009076  6192               	cpfslt	(_DtIN+2)& (0+255),b
  1212  009078  D006               	goto	l130
  1213  00907A  C092  FFE8         	movff	_DtIN+2,wreg
  1214  00907E  5D80               	subwf	(_DtCO+3)& (0+255),w,b
  1215  009080  CFE8 F093          	movff	wreg,_DtIN+3
  1216  009084  D002               	goto	l131
  1217  009086                     l130:
  1218                           ;pomiar.c: 407: else DtIN.DIN=0;
  1219  009086  0100               	movlb	(_DtIN+3) shr (0+8)
  1220  009088  6B93               	clrf	(_DtIN+3)& (0+255),b
  1221  00908A                     l131:
  1222                           ;pomiar.c: 409: if((M.CONTSETP-bnc)>DtIN.IN) DtI
      +                          N.DIN2=(M.CONTSETP-bnc)-DtIN.IN;
  1223  00908A  50D9               	movf	fsr2l,w,c
  1224  00908C  C329  F002         	movff	_M+35,btemp+2
  1225  009090  6A03               	clrf	btemp+3,c
  1226  009092  5E02               	subwf	btemp+2,f,c
  1227  009094  0E00               	movlw	0
  1228  009096  5A03               	subwfb	btemp+3,f,c
  1229  009098  C092  F000         	movff	_DtIN+2,btemp
  1230  00909C  6A01               	clrf	btemp+1,c
  1231  00909E  5001               	movf	btemp+1,w,c
  1232  0090A0  0A80               	xorlw	128
  1233  0090A2  6E04               	movwf	btemp+4,c
  1234  0090A4  5003               	movf	btemp+3,w,c
  1235  0090A6  0A80               	xorlw	128
  1236  0090A8  5C04               	subwf	btemp+4,w,c
  1237  0090AA  E102               	bnz	u735
  1238  0090AC  5002               	movf	btemp+2,w,c
  1239  0090AE  5C00               	subwf	btemp,w,c
  1240  0090B0                     u735:
  1241  0090B0  E20B               	bc	l132
  1242  0090B2  C092  F000         	movff	_DtIN+2,btemp
  1243  0090B6  50D9               	movf	fsr2l,w,c
  1244  0090B8  0103               	movlb	(_M+35) shr (0+8)
  1245  0090BA  5D29               	subwf	(_M+35)& (0+255),w,b
  1246  0090BC  6E01               	movwf	btemp+1,c
  1247  0090BE  5000               	movf	btemp,w,c
  1248  0090C0  5C01               	subwf	btemp+1,w,c
  1249  0090C2  CFE8 F094          	movff	wreg,_DtIN+4
  1250  0090C6  D002               	goto	l129
  1251  0090C8                     l132:
  1252                           ;pomiar.c: 410: else DtIN.DIN2=0;
  1253  0090C8  0100               	movlb	(_DtIN+4) shr (0+8)
  1254  0090CA  6B94               	clrf	(_DtIN+4)& (0+255),b
  1255  0090CC                     l129:
  1256                           ;pomiar.c: 411: }
  1257  0090CC  0E0A               	movlw	10
  1258  0090CE  DD1B               	call	_PmrTim2
  1259  0090D0  E302               	bnc	l134
  1260                           ;pomiar.c: 413: {
  1261  0090D2  DD16               	call	_StartTim2	;wreg free
  1262                           ;pomiar.c: 415: FltParMod();
  1263  0090D4  DF34               	call	_FltParMod	;wreg free
  1264  0090D6                     l134:
  1265                           ;pomiar.c: 416: }
  1266  0090D6  C087  FFE8         	movff	_DtCO+10,wreg
  1267  0090DA  0A80               	xorlw	128
  1268  0090DC  0F7A               	addlw	-134
  1269  0090DE  0100               	movlb	(_DtCO+1) shr (0+8)
  1270  0090E0  E302               	bnc	L50
  1271  0090E2  897E               	bsf	(_DtCO+1)& (0+255),4,b
  1272  0090E4  0012               	return	
  1273                           ;pomiar.c: 418: else DtCO._ldDCO=0;
  1274  0090E6                     L50:
  1275  0090E6  997E               	bcf	(_DtCO+1)& (0+255),4,b
  1276                           ;pomiar.c: 419: }
  1277  0090E8  0012               	return	
  1278  0090EA                     __end_of_FiltrPomiarowyCOCW:
  1279                           ;pomiar.c: 423: void PomiarCO(void)
  1280                           ;pomiar.c: 424: {
  1281  0090EA                     _PomiarCO:
  1282  000000                     
  1283                           ;pomiar.c: 425: DtCO.AC_CO=ReadAC(0);
  1284  0090EA  0E00               	movlw	0
  1285  0090EC  ECC8  F001         	call	_ReadAC
  1286  0090F0  CFE8 F08B          	movff	wreg,_DtCO+14
  1287                           ;pomiar.c: 426: DtCO.CO=ReadTabNTC(DtCO.AC_CO);
  1288  0090F4  C08B  FFE8         	movff	_DtCO+14,wreg
  1289  0090F8  ECFE  F001         	call	_ReadTabNTC
  1290  0090FC  CFE8 F080          	movff	wreg,_DtCO+3
  1291                           ;pomiar.c: 427: DtCO.HstCo=DtKNF.hsco;
  1292  009100  C2CD  F08E         	movff	_DtKNF+31,_DtCO+17
  1293                           ;pomiar.c: 428: DtCO.F3PPCO=DtKNF.conw;
  1294  009104  C2CE  F08F         	movff	_DtKNF+32,_DtCO+18
  1295                           ;pomiar.c: 429: if(DtCO.AC_CO<=0X28||DtCO.AC_CO>
      +                          =0XF5)
  1296  009108  0E29               	movlw	41
  1297  00910A  0100               	movlb	(_DtCO+14) shr (0+8)
  1298  00910C  618B               	cpfslt	(_DtCO+14)& (0+255),b
  1299  00910E  D001               	goto	u761
  1300  009110  D003               	goto	u780
  1301  009112                     u761:
  1302  009112  0EF4               	movlw	-12
  1303  009114  658B               	cpfsgt	(_DtCO+14)& (0+255),b
  1304  009116  D010               	goto	l138
  1305  009118                     u780:
  1306                           ;pomiar.c: 430: {
  1307  009118  0100               	movlb	_DtCO shr (0+8)
  1308  00911A  817D               	bsf	_DtCO& (0+255),0,b
  1309                           ;pomiar.c: 432: DtCO._su_CO=0;
  1310  00911C  937D               	bcf	_DtCO& (0+255),1,b
  1311                           ;pomiar.c: 433: DtCO._ad_CO=0;
  1312  00911E  957D               	bcf	_DtCO& (0+255),2,b
  1313                           ;pomiar.c: 434: DtCO._cold_CO=0;
  1314  009120  957E               	bcf	(_DtCO+1)& (0+255),2,b
  1315                           ;pomiar.c: 435: DtCO._hot_CO=0;
  1316  009122  977E               	bcf	(_DtCO+1)& (0+255),3,b
  1317                           ;pomiar.c: 436: DtCO._on_DZ_CO=0;
  1318  009124  9B7D               	bcf	_DtCO& (0+255),5,b
  1319                           ;pomiar.c: 437: DtCO._su_DZ_CO=0;
  1320  009126  9D7D               	bcf	_DtCO& (0+255),6,b
  1321                           ;pomiar.c: 438: DtCO._ad_DZ_CO=0;
  1322  009128  9F7D               	bcf	_DtCO& (0+255),7,b
  1323                           ;pomiar.c: 439: DtCO._ptwp_CO=0;
  1324  00912A  917E               	bcf	(_DtCO+1)& (0+255),0,b
  1325                           ;pomiar.c: 440: DtCO._pz_CO=0;
  1326  00912C  937E               	bcf	(_DtCO+1)& (0+255),1,b
  1327                           ;pomiar.c: 441: DtCO._su_SRW_CO=0;
  1328  00912E  977D               	bcf	_DtCO& (0+255),3,b
  1329                           ;pomiar.c: 442: DtCO._ad_SRW_CO=0;
  1330  009130  997D               	bcf	_DtCO& (0+255),4,b
  1331                           ;pomiar.c: 443: RSDT1.outrCO=0;
  1332  009132  0103               	movlb	(_RSDT1+29) shr (0+8)
  1333  009134  6B4A               	clrf	(_RSDT1+29)& (0+255),b
  1334                           ;pomiar.c: 444: return;
  1335  009136  0012               	return	
  1336  009138                     l138:
  1337                           ;pomiar.c: 446: else DtCO._err_CO=0;
  1338  009138  0100               	movlb	_DtCO shr (0+8)
  1339  00913A  917D               	bcf	_DtCO& (0+255),0,b
  1340                           ;pomiar.c: 447: RSDT1.outrCO=DtCO.CO;
  1341  00913C  C080  F34A         	movff	_DtCO+3,_RSDT1+29
  1342                           ;pomiar.c: 448: switch(DtKNF.tpkt)
  1343  009140  D1E3               	goto	l141
  1344  009142                     l142:
  1345                           ;pomiar.c: 449: {
  1346                           ;pomiar.c: 451: {
  1347  009142  EE02  F0C8         	lfsr	0,_DtKNF+26
  1348  009146  50EF               	movf	indf0,w,c
  1349                           ;pomiar.c: 453: {
  1350  009148  C08E  FFE8         	movff	_DtCO+17,wreg
  1351  00914C  E134               	bnz	L51
  1352  00914E  C329  F000         	movff	_M+35,btemp
  1353  009152  6A01               	clrf	btemp+1,c
  1354  009154  2600               	addwf	btemp,f,c
  1355  009156  0E00               	movlw	0
  1356  009158  2201               	addwfc	btemp+1,f,c
  1357  00915A  5001               	movf	btemp+1,w,c
  1358  00915C  0A80               	xorlw	128
  1359  00915E  0F80               	addlw	-128
  1360  009160  0E56               	movlw	86
  1361  009162  B4D8               	btfsc	status,2,c
  1362  009164  5C00               	subwf	btemp,w,c
  1363  009166  E30F               	bnc	l144
  1364                           ;pomiar.c: 455: {
  1365  009168  C080  F000         	movff	_DtCO+3,btemp
  1366  00916C  0EB0               	movlw	176
  1367  00916E                     L22:
  1368  00916E  2400               	addwf	btemp,w,c
  1369  009170  6E02               	movwf	btemp+2,c
  1370  009172  6A03               	clrf	btemp+3,c
  1371  009174  0EFF               	movlw	255
  1372  009176  2203               	addwfc	btemp+3,f,c
  1373  009178  5003               	movf	btemp+3,w,c
  1374  00917A  0A80               	xorlw	128
  1375  00917C  0F80               	addlw	-128
  1376  00917E  0E05               	movlw	5
  1377  009180  B4D8               	btfsc	status,2,c
  1378  009182                     L21:
  1379  009182  5C02               	subwf	btemp+2,w,c
  1380  009184  D014               	goto	u825
  1381                           ;pomiar.c: 457: else DtCO._ad_CO=0;
  1382                           ;pomiar.c: 458: }
  1383  009186                     l144:
  1384                           ;pomiar.c: 459: else
  1385  009186  C08E  F000         	movff	_DtCO+17,btemp
  1386  00918A  6A01               	clrf	btemp+1,c
  1387  00918C  C329  FFE8         	movff	_M+35,wreg
  1388  009190  C080  F002         	movff	_DtCO+3,btemp+2
  1389  009194  6A03               	clrf	btemp+3,c
  1390  009196  5E02               	subwf	btemp+2,f,c
  1391  009198  0E00               	movlw	0
  1392  00919A  5A03               	subwfb	btemp+3,f,c
  1393  00919C  5003               	movf	btemp+3,w,c
  1394  00919E  0A80               	xorlw	128
  1395  0091A0  6E04               	movwf	btemp+4,c
  1396  0091A2  5001               	movf	btemp+1,w,c
  1397  0091A4  0A80               	xorlw	128
  1398  0091A6  5C04               	subwf	btemp+4,w,c
  1399  0091A8  E102               	bnz	u825
  1400  0091AA  5000               	movf	btemp,w,c
  1401  0091AC  D7EA               	goto	L21
  1402  0091AE                     u825:
  1403  0091AE  E329               	bnc	l155
  1404  0091B0                     u820:
  1405  0091B0  0100               	movlb	_DtCO shr (0+8)
  1406  0091B2  857D               	bsf	_DtCO& (0+255),2,b
  1407  0091B4  D028               	goto	l150
  1408                           ;pomiar.c: 462: else DtCO._ad_CO=0;
  1409                           ;pomiar.c: 463: }
  1410                           ;pomiar.c: 465: else
  1411  0091B6                     L51:
  1412  0091B6  C329  F000         	movff	_M+35,btemp
  1413  0091BA  6A01               	clrf	btemp+1,c
  1414  0091BC  2600               	addwf	btemp,f,c
  1415  0091BE  0E00               	movlw	0
  1416  0091C0  2201               	addwfc	btemp+1,f,c
  1417  0091C2  5001               	movf	btemp+1,w,c
  1418  0091C4  0A80               	xorlw	128
  1419  0091C6  0F80               	addlw	-128
  1420  0091C8  0E3D               	movlw	61
  1421  0091CA  B4D8               	btfsc	status,2,c
  1422  0091CC  5C00               	subwf	btemp,w,c
  1423  0091CE  E304               	bnc	l151
  1424                           ;pomiar.c: 468: {
  1425  0091D0  C080  F000         	movff	_DtCO+3,btemp
  1426  0091D4  0EC9               	movlw	201
  1427  0091D6  D7CB               	goto	L22
  1428                           ;pomiar.c: 470: else DtCO._ad_CO=0;
  1429                           ;pomiar.c: 471: }
  1430  0091D8                     l151:
  1431                           ;pomiar.c: 472: else
  1432  0091D8  C08E  F000         	movff	_DtCO+17,btemp
  1433  0091DC  6A01               	clrf	btemp+1,c
  1434  0091DE  C329  FFE8         	movff	_M+35,wreg
  1435  0091E2  C080  F002         	movff	_DtCO+3,btemp+2
  1436  0091E6  6A03               	clrf	btemp+3,c
  1437  0091E8  5E02               	subwf	btemp+2,f,c
  1438  0091EA  0E00               	movlw	0
  1439  0091EC  5A03               	subwfb	btemp+3,f,c
  1440  0091EE  5003               	movf	btemp+3,w,c
  1441  0091F0  0A80               	xorlw	128
  1442  0091F2  6E04               	movwf	btemp+4,c
  1443  0091F4  5001               	movf	btemp+1,w,c
  1444  0091F6  0A80               	xorlw	128
  1445  0091F8  5C04               	subwf	btemp+4,w,c
  1446  0091FA  E102               	bnz	u855
  1447  0091FC  5000               	movf	btemp,w,c
  1448  0091FE  5C02               	subwf	btemp+2,w,c
  1449  009200                     u855:
  1450  009200  E2D7               	bc	u820
  1451  009202                     l155:
  1452                           ;pomiar.c: 475: else DtCO._ad_CO=0;
  1453  009202  0100               	movlb	_DtCO shr (0+8)
  1454  009204  957D               	bcf	_DtCO& (0+255),2,b
  1455  009206                     l150:
  1456                           ;pomiar.c: 476: }
  1457  009206  C080  FFE8         	movff	_DtCO+3,wreg
  1458  00920A  C329  F000         	movff	_M+35,btemp
  1459  00920E  6A01               	clrf	btemp+1,c
  1460  009210  5E00               	subwf	btemp,f,c
  1461  009212  0E00               	movlw	0
  1462  009214  5A01               	subwfb	btemp+1,f,c
  1463  009216  5001               	movf	btemp+1,w,c
  1464  009218  0A80               	xorlw	128
  1465  00921A  0F80               	addlw	-128
  1466  00921C  0E05               	movlw	5
  1467  00921E  B4D8               	btfsc	status,2,c
  1468  009220  5C00               	subwf	btemp,w,c
  1469  009222  E201 D146          	bnc	l207
  1470  009226                     L47:
  1471  009226  0100               	movlb	_DtCO shr (0+8)
  1472  009228  837D               	bsf	_DtCO& (0+255),1,b
  1473  00922A  D145               	goto	l208
  1474                           ;pomiar.c: 479: else DtCO._su_CO=0;
  1475                           ;pomiar.c: 480: if(DtCO.CO<=87) DtCO._ptwp_CO=1;
  1476                           ;pomiar.c: 481: if(DtCO.CO>87+1) DtCO._ptwp_CO=0
      +                          ;
  1477                           ;pomiar.c: 482: if(DtCO.CO<=87) DtCO._pz_CO=1;
  1478                           ;pomiar.c: 483: if(DtCO.CO>91) DtCO._pz_CO=0;
  1479                           ;pomiar.c: 484: if(DtCO.CO<=7) DtCO._cold_CO=1;
  1480                           ;pomiar.c: 485: if(DtCO.CO>7+1) DtCO._cold_CO=0;
  1481                           ;pomiar.c: 486: if(DtCO.CO>=83) DtCO._hot_CO=1;
  1482                           ;pomiar.c: 487: if(DtCO.CO<83-1) DtCO._hot_CO=0;
  1483                           ;pomiar.c: 488: break;
  1484  00922C                     l167:
  1485                           ;pomiar.c: 489: }
  1486                           ;pomiar.c: 491: {
  1487  00922C  EE02  F0C8         	lfsr	0,_DtKNF+26
  1488  009230  50EF               	movf	indf0,w,c
  1489                           ;pomiar.c: 493: {
  1490  009232  C08E  FFE8         	movff	_DtCO+17,wreg
  1491  009236  E134               	bnz	L52
  1492  009238  C329  F000         	movff	_M+35,btemp
  1493  00923C  6A01               	clrf	btemp+1,c
  1494  00923E  2600               	addwf	btemp,f,c
  1495  009240  0E00               	movlw	0
  1496  009242  2201               	addwfc	btemp+1,f,c
  1497  009244  5001               	movf	btemp+1,w,c
  1498  009246  0A80               	xorlw	128
  1499  009248  0F80               	addlw	-128
  1500  00924A  0E56               	movlw	86
  1501  00924C  B4D8               	btfsc	status,2,c
  1502  00924E  5C00               	subwf	btemp,w,c
  1503  009250  E30F               	bnc	l169
  1504                           ;pomiar.c: 495: {
  1505  009252  C080  F000         	movff	_DtCO+3,btemp
  1506  009256  0EB0               	movlw	176
  1507  009258                     L24:
  1508  009258  2400               	addwf	btemp,w,c
  1509  00925A  6E02               	movwf	btemp+2,c
  1510  00925C  6A03               	clrf	btemp+3,c
  1511  00925E  0EFF               	movlw	255
  1512  009260  2203               	addwfc	btemp+3,f,c
  1513  009262  5003               	movf	btemp+3,w,c
  1514  009264  0A80               	xorlw	128
  1515  009266  0F80               	addlw	-128
  1516  009268  0E05               	movlw	5
  1517  00926A  B4D8               	btfsc	status,2,c
  1518  00926C                     L23:
  1519  00926C  5C02               	subwf	btemp+2,w,c
  1520  00926E  D014               	goto	u985
  1521                           ;pomiar.c: 497: else DtCO._ad_CO=0;
  1522                           ;pomiar.c: 498: }
  1523  009270                     l169:
  1524                           ;pomiar.c: 499: else
  1525  009270  C08E  F000         	movff	_DtCO+17,btemp
  1526  009274  6A01               	clrf	btemp+1,c
  1527  009276  C329  FFE8         	movff	_M+35,wreg
  1528  00927A  C080  F002         	movff	_DtCO+3,btemp+2
  1529  00927E  6A03               	clrf	btemp+3,c
  1530  009280  5E02               	subwf	btemp+2,f,c
  1531  009282  0E00               	movlw	0
  1532  009284  5A03               	subwfb	btemp+3,f,c
  1533  009286  5003               	movf	btemp+3,w,c
  1534  009288  0A80               	xorlw	128
  1535  00928A  6E04               	movwf	btemp+4,c
  1536  00928C  5001               	movf	btemp+1,w,c
  1537  00928E  0A80               	xorlw	128
  1538  009290  5C04               	subwf	btemp+4,w,c
  1539  009292  E102               	bnz	u985
  1540  009294  5000               	movf	btemp,w,c
  1541  009296  D7EA               	goto	L23
  1542  009298                     u985:
  1543  009298  E329               	bnc	l180
  1544  00929A                     u980:
  1545  00929A  0100               	movlb	_DtCO shr (0+8)
  1546  00929C  857D               	bsf	_DtCO& (0+255),2,b
  1547  00929E  D028               	goto	l175
  1548                           ;pomiar.c: 502: else DtCO._ad_CO=0;
  1549                           ;pomiar.c: 503: }
  1550                           ;pomiar.c: 505: else
  1551  0092A0                     L52:
  1552  0092A0  C329  F000         	movff	_M+35,btemp
  1553  0092A4  6A01               	clrf	btemp+1,c
  1554  0092A6  2600               	addwf	btemp,f,c
  1555  0092A8  0E00               	movlw	0
  1556  0092AA  2201               	addwfc	btemp+1,f,c
  1557  0092AC  5001               	movf	btemp+1,w,c
  1558  0092AE  0A80               	xorlw	128
  1559  0092B0  0F80               	addlw	-128
  1560  0092B2  0E3D               	movlw	61
  1561  0092B4  B4D8               	btfsc	status,2,c
  1562  0092B6  5C00               	subwf	btemp,w,c
  1563  0092B8  E304               	bnc	l176
  1564                           ;pomiar.c: 508: {
  1565  0092BA  C080  F000         	movff	_DtCO+3,btemp
  1566  0092BE  0EC9               	movlw	201
  1567  0092C0  D7CB               	goto	L24
  1568                           ;pomiar.c: 510: else DtCO._ad_CO=0;
  1569                           ;pomiar.c: 511: }
  1570  0092C2                     l176:
  1571                           ;pomiar.c: 512: else
  1572  0092C2  C08E  F000         	movff	_DtCO+17,btemp
  1573  0092C6  6A01               	clrf	btemp+1,c
  1574  0092C8  C329  FFE8         	movff	_M+35,wreg
  1575  0092CC  C080  F002         	movff	_DtCO+3,btemp+2
  1576  0092D0  6A03               	clrf	btemp+3,c
  1577  0092D2  5E02               	subwf	btemp+2,f,c
  1578  0092D4  0E00               	movlw	0
  1579  0092D6  5A03               	subwfb	btemp+3,f,c
  1580  0092D8  5003               	movf	btemp+3,w,c
  1581  0092DA  0A80               	xorlw	128
  1582  0092DC  6E04               	movwf	btemp+4,c
  1583  0092DE  5001               	movf	btemp+1,w,c
  1584  0092E0  0A80               	xorlw	128
  1585  0092E2  5C04               	subwf	btemp+4,w,c
  1586  0092E4  E102               	bnz	u1015
  1587  0092E6  5000               	movf	btemp,w,c
  1588  0092E8  5C02               	subwf	btemp+2,w,c
  1589  0092EA                     u1015:
  1590  0092EA  E2D7               	bc	u980
  1591  0092EC                     l180:
  1592                           ;pomiar.c: 515: else DtCO._ad_CO=0;
  1593  0092EC  0100               	movlb	_DtCO shr (0+8)
  1594  0092EE  957D               	bcf	_DtCO& (0+255),2,b
  1595  0092F0                     l175:
  1596                           ;pomiar.c: 516: }
  1597  0092F0  C080  FFE8         	movff	_DtCO+3,wreg
  1598  0092F4  C329  F000         	movff	_M+35,btemp
  1599  0092F8  6A01               	clrf	btemp+1,c
  1600  0092FA  5E00               	subwf	btemp,f,c
  1601  0092FC  0E00               	movlw	0
  1602  0092FE  5A01               	subwfb	btemp+1,f,c
  1603  009300  5001               	movf	btemp+1,w,c
  1604  009302  0A80               	xorlw	128
  1605  009304  0F80               	addlw	-128
  1606  009306  0E05               	movlw	5
  1607  009308  B4D8               	btfsc	status,2,c
  1608  00930A  5C00               	subwf	btemp,w,c
  1609  00930C  0100               	movlb	_DtCO shr (0+8)
  1610  00930E  E302               	bnc	L53
  1611  009310  837D               	bsf	_DtCO& (0+255),1,b
  1612  009312  D001               	goto	l183
  1613                           ;pomiar.c: 519: else DtCO._su_CO=0;
  1614  009314                     L53:
  1615  009314  937D               	bcf	_DtCO& (0+255),1,b
  1616  009316                     l183:
  1617                           ;pomiar.c: 521: if(DtCO.CO<=(DtCO.F3PPCO-2)) DtC
      +                          O._ptwp_CO=1;
  1618  009316  C080  F000         	movff	_DtCO+3,btemp
  1619  00931A  6A01               	clrf	btemp+1,c
  1620  00931C  C08F  F002         	movff	_DtCO+18,btemp+2
  1621  009320  0EFE               	movlw	254
  1622  009322  2402               	addwf	btemp+2,w,c
  1623  009324  6EF6               	movwf	tblptrl,c
  1624  009326  6AF7               	clrf	tblptrh,c
  1625  009328  0EFF               	movlw	255
  1626  00932A  22F7               	addwfc	tblptrh,f,c
  1627  00932C  50F7               	movf	tblptrh,w,c
  1628  00932E  0A80               	xorlw	128
  1629  009330  6E02               	movwf	btemp+2,c
  1630  009332  5001               	movf	btemp+1,w,c
  1631  009334  0A80               	xorlw	128
  1632  009336  5C02               	subwf	btemp+2,w,c
  1633  009338  E102               	bnz	u1035
  1634  00933A  5000               	movf	btemp,w,c
  1635  00933C  5CF6               	subwf	tblptrl,w,c
  1636  00933E                     u1035:
  1637  00933E  E302               	bnc	l184
  1638  009340  0100               	movlb	(_DtCO+1) shr (0+8)
  1639  009342  817E               	bsf	(_DtCO+1)& (0+255),0,b
  1640  009344                     l184:
  1641                           ;pomiar.c: 522: if(DtCO.CO>((DtCO.F3PPCO-2)+1)) 
      +                          DtCO._ptwp_CO=0;
  1642  009344  C080  F000         	movff	_DtCO+3,btemp
  1643  009348  6A01               	clrf	btemp+1,c
  1644  00934A  C08F  F002         	movff	_DtCO+18,btemp+2
  1645  00934E  0EFF               	movlw	255
  1646  009350  2402               	addwf	btemp+2,w,c
  1647  009352  6EF6               	movwf	tblptrl,c
  1648  009354  6AF7               	clrf	tblptrh,c
  1649  009356  0EFF               	movlw	255
  1650  009358  22F7               	addwfc	tblptrh,f,c
  1651  00935A  50F7               	movf	tblptrh,w,c
  1652  00935C  0A80               	xorlw	128
  1653  00935E  6E02               	movwf	btemp+2,c
  1654  009360  5001               	movf	btemp+1,w,c
  1655  009362  0A80               	xorlw	128
  1656  009364  5C02               	subwf	btemp+2,w,c
  1657  009366  E102               	bnz	u1045
  1658  009368  5000               	movf	btemp,w,c
  1659  00936A  5CF6               	subwf	tblptrl,w,c
  1660  00936C                     u1045:
  1661  00936C  E202               	bc	l185
  1662  00936E  0100               	movlb	(_DtCO+1) shr (0+8)
  1663  009370  917E               	bcf	(_DtCO+1)& (0+255),0,b
  1664  009372                     l185:
  1665                           ;pomiar.c: 523: if(DtCO.CO<=(DtCO.F3PPCO-2)) DtC
      +                          O._pz_CO=1;
  1666  009372  C080  F000         	movff	_DtCO+3,btemp
  1667  009376  6A01               	clrf	btemp+1,c
  1668  009378  C08F  F002         	movff	_DtCO+18,btemp+2
  1669  00937C  0EFE               	movlw	254
  1670  00937E  2402               	addwf	btemp+2,w,c
  1671  009380  6EF6               	movwf	tblptrl,c
  1672  009382  6AF7               	clrf	tblptrh,c
  1673  009384  0EFF               	movlw	255
  1674  009386  22F7               	addwfc	tblptrh,f,c
  1675  009388  50F7               	movf	tblptrh,w,c
  1676  00938A  0A80               	xorlw	128
  1677  00938C  6E02               	movwf	btemp+2,c
  1678  00938E  5001               	movf	btemp+1,w,c
  1679  009390  0A80               	xorlw	128
  1680  009392  5C02               	subwf	btemp+2,w,c
  1681  009394  E102               	bnz	u1055
  1682  009396  5000               	movf	btemp,w,c
  1683  009398  5CF6               	subwf	tblptrl,w,c
  1684  00939A                     u1055:
  1685  00939A  E302               	bnc	l186
  1686  00939C  0100               	movlb	(_DtCO+1) shr (0+8)
  1687  00939E  837E               	bsf	(_DtCO+1)& (0+255),1,b
  1688  0093A0                     l186:
  1689                           ;pomiar.c: 524: if(DtCO.CO>(DtCO.F3PPCO+2)) DtCO
      +                          ._pz_CO=0;
  1690  0093A0  C080  F000         	movff	_DtCO+3,btemp
  1691  0093A4  6A01               	clrf	btemp+1,c
  1692  0093A6  0E02               	movlw	2
  1693  0093A8  C08F  F002         	movff	_DtCO+18,btemp+2
  1694  0093AC  6A03               	clrf	btemp+3,c
  1695  0093AE  2602               	addwf	btemp+2,f,c
  1696  0093B0  0E00               	movlw	0
  1697  0093B2  2203               	addwfc	btemp+3,f,c
  1698  0093B4  5003               	movf	btemp+3,w,c
  1699  0093B6  0A80               	xorlw	128
  1700  0093B8  6E04               	movwf	btemp+4,c
  1701  0093BA  5001               	movf	btemp+1,w,c
  1702  0093BC  0A80               	xorlw	128
  1703  0093BE  5C04               	subwf	btemp+4,w,c
  1704  0093C0  E102               	bnz	u1065
  1705  0093C2  5000               	movf	btemp,w,c
  1706  0093C4  5C02               	subwf	btemp+2,w,c
  1707  0093C6                     u1065:
  1708  0093C6  E301 D08A          	bc	l212
  1709  0093CA  0100               	movlb	(_DtCO+1) shr (0+8)
  1710  0093CC  D087               	goto	L46
  1711                           ;pomiar.c: 526: if(DtCO.CO<=7) DtCO._cold_CO=1;
  1712                           ;pomiar.c: 527: if(DtCO.CO>7+1) DtCO._cold_CO=0;
  1713                           ;pomiar.c: 528: if(DtCO.CO>=83) DtCO._hot_CO=1;
  1714                           ;pomiar.c: 529: if(DtCO.CO<83-1) DtCO._hot_CO=0;
  1715                           ;pomiar.c: 530: break;
  1716  0093CE                     l192:
  1717                           ;pomiar.c: 531: }
  1718                           ;pomiar.c: 533: {
  1719  0093CE  EE02  F0C8         	lfsr	0,_DtKNF+26
  1720  0093D2  50EF               	movf	indf0,w,c
  1721                           ;pomiar.c: 535: {
  1722  0093D4  C08E  FFE8         	movff	_DtCO+17,wreg
  1723  0093D8  E134               	bnz	L54
  1724  0093DA  C329  F000         	movff	_M+35,btemp
  1725  0093DE  6A01               	clrf	btemp+1,c
  1726  0093E0  2600               	addwf	btemp,f,c
  1727  0093E2  0E00               	movlw	0
  1728  0093E4  2201               	addwfc	btemp+1,f,c
  1729  0093E6  5001               	movf	btemp+1,w,c
  1730  0093E8  0A80               	xorlw	128
  1731  0093EA  0F80               	addlw	-128
  1732  0093EC  0E56               	movlw	86
  1733  0093EE  B4D8               	btfsc	status,2,c
  1734  0093F0  5C00               	subwf	btemp,w,c
  1735  0093F2  E30F               	bnc	l194
  1736                           ;pomiar.c: 537: {
  1737  0093F4  C080  F000         	movff	_DtCO+3,btemp
  1738  0093F8  0EB0               	movlw	176
  1739  0093FA                     L27:
  1740  0093FA  2400               	addwf	btemp,w,c
  1741  0093FC  6E02               	movwf	btemp+2,c
  1742  0093FE  6A03               	clrf	btemp+3,c
  1743  009400  0EFF               	movlw	255
  1744  009402  2203               	addwfc	btemp+3,f,c
  1745  009404  5003               	movf	btemp+3,w,c
  1746  009406  0A80               	xorlw	128
  1747  009408  0F80               	addlw	-128
  1748  00940A  0E05               	movlw	5
  1749  00940C  B4D8               	btfsc	status,2,c
  1750  00940E                     L26:
  1751  00940E  5C02               	subwf	btemp+2,w,c
  1752  009410  D014               	goto	u1145
  1753                           ;pomiar.c: 539: else DtCO._ad_CO=0;
  1754                           ;pomiar.c: 540: }
  1755  009412                     l194:
  1756                           ;pomiar.c: 541: else
  1757  009412  C08E  F000         	movff	_DtCO+17,btemp
  1758  009416  6A01               	clrf	btemp+1,c
  1759  009418  C329  FFE8         	movff	_M+35,wreg
  1760  00941C  C080  F002         	movff	_DtCO+3,btemp+2
  1761  009420  6A03               	clrf	btemp+3,c
  1762  009422  5E02               	subwf	btemp+2,f,c
  1763  009424  0E00               	movlw	0
  1764  009426  5A03               	subwfb	btemp+3,f,c
  1765  009428  5003               	movf	btemp+3,w,c
  1766  00942A  0A80               	xorlw	128
  1767  00942C  6E04               	movwf	btemp+4,c
  1768  00942E  5001               	movf	btemp+1,w,c
  1769  009430  0A80               	xorlw	128
  1770  009432  5C04               	subwf	btemp+4,w,c
  1771  009434  E102               	bnz	u1145
  1772  009436  5000               	movf	btemp,w,c
  1773  009438  D7EA               	goto	L26
  1774  00943A                     u1145:
  1775  00943A  E329               	bnc	l205
  1776  00943C                     u1140:
  1777  00943C  0100               	movlb	_DtCO shr (0+8)
  1778  00943E  857D               	bsf	_DtCO& (0+255),2,b
  1779  009440  D028               	goto	l200
  1780                           ;pomiar.c: 544: else DtCO._ad_CO=0;
  1781                           ;pomiar.c: 545: }
  1782                           ;pomiar.c: 547: else
  1783  009442                     L54:
  1784  009442  C329  F000         	movff	_M+35,btemp
  1785  009446  6A01               	clrf	btemp+1,c
  1786  009448  2600               	addwf	btemp,f,c
  1787  00944A  0E00               	movlw	0
  1788  00944C  2201               	addwfc	btemp+1,f,c
  1789  00944E  5001               	movf	btemp+1,w,c
  1790  009450  0A80               	xorlw	128
  1791  009452  0F80               	addlw	-128
  1792  009454  0E3D               	movlw	61
  1793  009456  B4D8               	btfsc	status,2,c
  1794  009458  5C00               	subwf	btemp,w,c
  1795  00945A  E304               	bnc	l201
  1796                           ;pomiar.c: 550: {
  1797  00945C  C080  F000         	movff	_DtCO+3,btemp
  1798  009460  0EC9               	movlw	201
  1799  009462  D7CB               	goto	L27
  1800                           ;pomiar.c: 552: else DtCO._ad_CO=0;
  1801                           ;pomiar.c: 553: }
  1802  009464                     l201:
  1803                           ;pomiar.c: 554: else
  1804  009464  C08E  F000         	movff	_DtCO+17,btemp
  1805  009468  6A01               	clrf	btemp+1,c
  1806  00946A  C329  FFE8         	movff	_M+35,wreg
  1807  00946E  C080  F002         	movff	_DtCO+3,btemp+2
  1808  009472  6A03               	clrf	btemp+3,c
  1809  009474  5E02               	subwf	btemp+2,f,c
  1810  009476  0E00               	movlw	0
  1811  009478  5A03               	subwfb	btemp+3,f,c
  1812  00947A  5003               	movf	btemp+3,w,c
  1813  00947C  0A80               	xorlw	128
  1814  00947E  6E04               	movwf	btemp+4,c
  1815  009480  5001               	movf	btemp+1,w,c
  1816  009482  0A80               	xorlw	128
  1817  009484  5C04               	subwf	btemp+4,w,c
  1818  009486  E102               	bnz	u1175
  1819  009488  5000               	movf	btemp,w,c
  1820  00948A  5C02               	subwf	btemp+2,w,c
  1821  00948C                     u1175:
  1822  00948C  E2D7               	bc	u1140
  1823  00948E                     l205:
  1824                           ;pomiar.c: 557: else DtCO._ad_CO=0;
  1825  00948E  0100               	movlb	_DtCO shr (0+8)
  1826  009490  957D               	bcf	_DtCO& (0+255),2,b
  1827  009492                     l200:
  1828                           ;pomiar.c: 558: }
  1829  009492  C080  FFE8         	movff	_DtCO+3,wreg
  1830  009496  C329  F000         	movff	_M+35,btemp
  1831  00949A  6A01               	clrf	btemp+1,c
  1832  00949C  5E00               	subwf	btemp,f,c
  1833  00949E  0E00               	movlw	0
  1834  0094A0  5A01               	subwfb	btemp+1,f,c
  1835  0094A2  5001               	movf	btemp+1,w,c
  1836  0094A4  0A80               	xorlw	128
  1837  0094A6  0F80               	addlw	-128
  1838  0094A8  0E05               	movlw	5
  1839  0094AA  B4D8               	btfsc	status,2,c
  1840  0094AC  5C00               	subwf	btemp,w,c
  1841  0094AE  E301 D6BA          	bc	L47
  1842  0094B2                     l207:
  1843                           ;pomiar.c: 562: else DtCO._su_CO=0;
  1844  0094B2  0100               	movlb	_DtCO shr (0+8)
  1845  0094B4  937D               	bcf	_DtCO& (0+255),1,b
  1846  0094B6                     l208:
  1847                           ;pomiar.c: 563: if(DtCO.CO<=87) DtCO._ptwp_CO=1;
  1848  0094B6  0E58               	movlw	88
  1849  0094B8  0100               	movlb	(_DtCO+3) shr (0+8)
  1850  0094BA  6180               	cpfslt	(_DtCO+3)& (0+255),b
  1851  0094BC  D001               	goto	l209
  1852  0094BE  817E               	bsf	(_DtCO+1)& (0+255),0,b
  1853  0094C0                     l209:
  1854                           ;pomiar.c: 564: if(DtCO.CO>87+1) DtCO._ptwp_CO=0
      +                          ;
  1855  0094C0  0E58               	movlw	88
  1856  0094C2  0100               	movlb	(_DtCO+3) shr (0+8)
  1857  0094C4  6580               	cpfsgt	(_DtCO+3)& (0+255),b
  1858  0094C6  D001               	goto	l210
  1859  0094C8  917E               	bcf	(_DtCO+1)& (0+255),0,b
  1860  0094CA                     l210:
  1861                           ;pomiar.c: 565: if(DtCO.CO<=87) DtCO._pz_CO=1;
  1862  0094CA  0E58               	movlw	88
  1863  0094CC  0100               	movlb	(_DtCO+3) shr (0+8)
  1864  0094CE  6180               	cpfslt	(_DtCO+3)& (0+255),b
  1865  0094D0  D001               	goto	l211
  1866  0094D2  837E               	bsf	(_DtCO+1)& (0+255),1,b
  1867  0094D4                     l211:
  1868                           ;pomiar.c: 566: if(DtCO.CO>91) DtCO._pz_CO=0;
  1869  0094D4  0E5B               	movlw	91
  1870  0094D6  0100               	movlb	(_DtCO+3) shr (0+8)
  1871  0094D8  6580               	cpfsgt	(_DtCO+3)& (0+255),b
  1872  0094DA  D001               	goto	l212
  1873  0094DC                     L46:
  1874  0094DC  937E               	bcf	(_DtCO+1)& (0+255),1,b
  1875  0094DE                     l212:
  1876                           ;pomiar.c: 567: if(DtCO.CO<=7) DtCO._cold_CO=1;
  1877  0094DE  0E08               	movlw	8
  1878  0094E0  0100               	movlb	(_DtCO+3) shr (0+8)
  1879  0094E2  6180               	cpfslt	(_DtCO+3)& (0+255),b
  1880  0094E4  D001               	goto	l213
  1881  0094E6  857E               	bsf	(_DtCO+1)& (0+255),2,b
  1882  0094E8                     l213:
  1883                           ;pomiar.c: 568: if(DtCO.CO>7+1) DtCO._cold_CO=0;
  1884  0094E8  0E08               	movlw	8
  1885  0094EA  0100               	movlb	(_DtCO+3) shr (0+8)
  1886  0094EC  6580               	cpfsgt	(_DtCO+3)& (0+255),b
  1887  0094EE  D001               	goto	l214
  1888  0094F0  957E               	bcf	(_DtCO+1)& (0+255),2,b
  1889  0094F2                     l214:
  1890                           ;pomiar.c: 569: if(DtCO.CO>=83) DtCO._hot_CO=1;
  1891  0094F2  0E52               	movlw	82
  1892  0094F4  0100               	movlb	(_DtCO+3) shr (0+8)
  1893  0094F6  6580               	cpfsgt	(_DtCO+3)& (0+255),b
  1894  0094F8  D001               	goto	l215
  1895  0094FA  877E               	bsf	(_DtCO+1)& (0+255),3,b
  1896  0094FC                     l215:
  1897                           ;pomiar.c: 570: if(DtCO.CO<83-1) DtCO._hot_CO=0;
  1898  0094FC  0E52               	movlw	82
  1899  0094FE  0100               	movlb	(_DtCO+3) shr (0+8)
  1900  009500  6180               	cpfslt	(_DtCO+3)& (0+255),b
  1901  009502  D00B               	goto	l140
  1902  009504  977E               	bcf	(_DtCO+1)& (0+255),3,b
  1903                           ;pomiar.c: 571: break;
  1904  009506  D009               	goto	l140
  1905  009508                     l141:
  1906  009508  C2BC  FFE8         	movff	_DtKNF+14,wreg
  1907  00950C  0A00               	xorlw	0
  1908  00950E  E101 D68D          	bz	l167
  1909  009512  0A03               	xorlw	3
  1910  009514  E101 D615          	bz	l142
  1911  009518  D75A               	goto	l192
  1912  00951A                     l140:
  1913                           ;pomiar.c: 575: if(DtCO.CO<=8)
  1914  00951A  0E09               	movlw	9
  1915  00951C  0100               	movlb	(_DtCO+3) shr (0+8)
  1916  00951E  6180               	cpfslt	(_DtCO+3)& (0+255),b
  1917  009520  D003               	goto	l217
  1918                           ;pomiar.c: 576: {
  1919  009522  8D7D               	bsf	_DtCO& (0+255),6,b
  1920                           ;pomiar.c: 578: DtCO._on_DZ_CO=1;
  1921  009524  8B7D               	bsf	_DtCO& (0+255),5,b
  1922                           ;pomiar.c: 579: }
  1923  009526  D002               	goto	l218
  1924  009528                     l217:
  1925                           ;pomiar.c: 580: else DtCO._su_DZ_CO=0;
  1926  009528  0100               	movlb	_DtCO shr (0+8)
  1927  00952A  9D7D               	bcf	_DtCO& (0+255),6,b
  1928  00952C                     l218:
  1929                           ;pomiar.c: 581: if(DtCO.CO>=20)
  1930  00952C  0E13               	movlw	19
  1931  00952E  0100               	movlb	(_DtCO+3) shr (0+8)
  1932  009530  6580               	cpfsgt	(_DtCO+3)& (0+255),b
  1933  009532  D003               	goto	l219
  1934                           ;pomiar.c: 582: {
  1935  009534  8F7D               	bsf	_DtCO& (0+255),7,b
  1936                           ;pomiar.c: 584: DtCO._on_DZ_CO=0;
  1937  009536  9B7D               	bcf	_DtCO& (0+255),5,b
  1938                           ;pomiar.c: 585: }
  1939  009538  D002               	goto	l220
  1940  00953A                     l219:
  1941                           ;pomiar.c: 586: else DtCO._ad_DZ_CO=0;
  1942  00953A  0100               	movlb	_DtCO shr (0+8)
  1943  00953C  9F7D               	bcf	_DtCO& (0+255),7,b
  1944  00953E                     l220:
  1945                           ;pomiar.c: 588: if(!DtKNF.opdg)
  1946  00953E  EE02  F0C8         	lfsr	0,_DtKNF+26
  1947  009542  50EF               	movf	indf0,w,c
  1948  009544  E111               	bnz	l221
  1949                           ;pomiar.c: 589: {
  1950  009546  0E4A               	movlw	74
  1951  009548  0100               	movlb	(_DtCO+3) shr (0+8)
  1952  00954A  6180               	cpfslt	(_DtCO+3)& (0+255),b
  1953  00954C  D002               	goto	l222
  1954  00954E  877D               	bsf	_DtCO& (0+255),3,b
  1955  009550  D002               	goto	l223
  1956  009552                     l222:
  1957                           ;pomiar.c: 591: else DtCO._su_SRW_CO=0;
  1958  009552  0100               	movlb	_DtCO shr (0+8)
  1959  009554  977D               	bcf	_DtCO& (0+255),3,b
  1960  009556                     l223:
  1961                           ;pomiar.c: 592: if(DtCO.CO>83) DtCO._ad_SRW_CO=1
      +                          ;
  1962  009556  0E53               	movlw	83
  1963  009558  0100               	movlb	(_DtCO+3) shr (0+8)
  1964  00955A  6580               	cpfsgt	(_DtCO+3)& (0+255),b
  1965  00955C  D002               	goto	l224
  1966  00955E  897D               	bsf	_DtCO& (0+255),4,b
  1967  009560  0C53               	retlw	83
  1968  009562                     l224:
  1969                           ;pomiar.c: 593: else DtCO._ad_SRW_CO=0;
  1970  009562  0100               	movlb	_DtCO shr (0+8)
  1971  009564  997D               	bcf	_DtCO& (0+255),4,b
  1972                           ;pomiar.c: 594: }
  1973  009566  0012               	return	
  1974  009568                     l221:
  1975                           ;pomiar.c: 595: else
  1976  009568  0E31               	movlw	49
  1977  00956A  0100               	movlb	(_DtCO+3) shr (0+8)
  1978  00956C  6180               	cpfslt	(_DtCO+3)& (0+255),b
  1979  00956E  D002               	goto	l227
  1980  009570  877D               	bsf	_DtCO& (0+255),3,b
  1981  009572  D002               	goto	l228
  1982  009574                     l227:
  1983                           ;pomiar.c: 598: else DtCO._su_SRW_CO=0;
  1984  009574  0100               	movlb	_DtCO shr (0+8)
  1985  009576  977D               	bcf	_DtCO& (0+255),3,b
  1986  009578                     l228:
  1987                           ;pomiar.c: 599: if(DtCO.CO>58) DtCO._ad_SRW_CO=1
      +                          ;
  1988  009578  0E3A               	movlw	58
  1989  00957A  0100               	movlb	(_DtCO+3) shr (0+8)
  1990  00957C  6580               	cpfsgt	(_DtCO+3)& (0+255),b
  1991  00957E  D002               	goto	l229
  1992  009580  897D               	bsf	_DtCO& (0+255),4,b
  1993  009582  0C3A               	retlw	58
  1994  009584                     l229:
  1995                           ;pomiar.c: 600: else DtCO._ad_SRW_CO=0;
  1996  009584  0100               	movlb	_DtCO shr (0+8)
  1997  009586  997D               	bcf	_DtCO& (0+255),4,b
  1998                           ;pomiar.c: 601: }
  1999  009588  0012               	return	
  2000  00958A                     __end_of_PomiarCO:
  2001                           ;pomiar.c: 788: void PomiarIN(void)
  2002                           ;pomiar.c: 789: {
  2003  00958A                     _PomiarIN:
  2004  000000                     
  2005                           ;pomiar.c: 790: signed char delta;
  2006  00958A  0E04               	movlw	4
  2007  00958C  ECC8  F001         	call	_ReadAC
  2008  009590  CFE8 F091          	movff	wreg,_DtIN+1
  2009                           ;pomiar.c: 793: DtIN.IN=ReadTabNTC(DtIN.AC_IN);
  2010  009594  C091  FFE8         	movff	_DtIN+1,wreg
  2011  009598  ECFE  F001         	call	_ReadTabNTC
  2012  00959C  CFE8 F092          	movff	wreg,_DtIN+2
  2013                           ;pomiar.c: 795: if(DtIN.AC_IN<=0X28||DtIN.AC_IN>
      +                          =0XF5)
  2014  0095A0  0E29               	movlw	41
  2015  0095A2  0100               	movlb	(_DtIN+1) shr (0+8)
  2016  0095A4  6191               	cpfslt	(_DtIN+1)& (0+255),b
  2017  0095A6  D001               	goto	u1341
  2018  0095A8  D003               	goto	u1360
  2019  0095AA                     u1341:
  2020  0095AA  0EF4               	movlw	-12
  2021  0095AC  6591               	cpfsgt	(_DtIN+1)& (0+255),b
  2022  0095AE  D003               	goto	l232
  2023  0095B0                     u1360:
  2024                           ;pomiar.c: 796: {
  2025  0095B0  0100               	movlb	_DtIN shr (0+8)
  2026  0095B2  8190               	bsf	_DtIN& (0+255),0,b
  2027                           ;pomiar.c: 798: return;
  2028  0095B4  0012               	return	
  2029  0095B6                     l232:
  2030                           ;pomiar.c: 800: else DtIN._err_IN=0;
  2031  0095B6  0100               	movlb	_DtIN shr (0+8)
  2032  0095B8  9190               	bcf	_DtIN& (0+255),0,b
  2033                           ;pomiar.c: 801: RSDT1.outIN=DtIN.IN;
  2034  0095BA  C092  F335         	movff	_DtIN+2,_RSDT1+8
  2035                           ;pomiar.c: 802: }
  2036  0095BE  0012               	return	
  2037  0095C0                     __end_of_PomiarIN:
  2038                           ;pomiar.c: 805: void PomiarCW(void)
  2039                           ;pomiar.c: 806: {
  2040  0095C0                     _PomiarCW:
  2041  000000                     
  2042                           ;	_tmz assigned to ?a_PomiarCW+0
  2043  000000                     _PomiarCW$tmz	set	?a_PomiarCW
  2044                           ;pomiar.c: 807: volatile unsigned char tmz;
  2045  0095C0  0E01               	movlw	1
  2046  0095C2  ECC8  F001         	call	_ReadAC
  2047  0095C6  CFE8 F07A          	movff	wreg,_DtCW+12
  2048                           ;pomiar.c: 810: DtCW.CW=ReadTabNTC(DtCW.AC_CW);
  2049  0095CA  C07A  FFE8         	movff	_DtCW+12,wreg
  2050  0095CE  ECFE  F001         	call	_ReadTabNTC
  2051  0095D2  CFE8 F070          	movff	wreg,_DtCW+2
  2052                           ;pomiar.c: 812: if(DtCW.AC_CW<=0X28||DtCW.AC_CW>
      +                          =0XF5)
  2053  0095D6  0E29               	movlw	41
  2054  0095D8  0100               	movlb	(_DtCW+12) shr (0+8)
  2055  0095DA  617A               	cpfslt	(_DtCW+12)& (0+255),b
  2056  0095DC  D001               	goto	u1371
  2057  0095DE  D003               	goto	u1390
  2058  0095E0                     u1371:
  2059  0095E0  0EF4               	movlw	-12
  2060  0095E2  657A               	cpfsgt	(_DtCW+12)& (0+255),b
  2061  0095E4  D00C               	goto	l235
  2062  0095E6                     u1390:
  2063                           ;pomiar.c: 813: {
  2064  0095E6  0100               	movlb	_DtCW shr (0+8)
  2065  0095E8  816E               	bsf	_DtCW& (0+255),0,b
  2066                           ;pomiar.c: 815: DtCW._su_CW=0;
  2067  0095EA  936E               	bcf	_DtCW& (0+255),1,b
  2068                           ;pomiar.c: 816: DtCW._ad_CW=0;
  2069  0095EC  956E               	bcf	_DtCW& (0+255),2,b
  2070                           ;pomiar.c: 817: DtCW._cold_CW=0;
  2071  0095EE  9F6E               	bcf	_DtCW& (0+255),7,b
  2072                           ;pomiar.c: 818: DtCW._on_DZ_CW=0;
  2073  0095F0  996E               	bcf	_DtCW& (0+255),4,b
  2074                           ;pomiar.c: 819: DtCW._su_DZ_CW=0;
  2075  0095F2  9B6E               	bcf	_DtCW& (0+255),5,b
  2076                           ;pomiar.c: 820: DtCW._ad_DZ_CW=0;
  2077  0095F4  9D6E               	bcf	_DtCW& (0+255),6,b
  2078                           ;pomiar.c: 821: DtCW._wpz_CW=0;
  2079  0095F6  976E               	bcf	_DtCW& (0+255),3,b
  2080                           ;pomiar.c: 822: RSDT1.outrCW=DtCW.CW;
  2081  0095F8  C070  F34B         	movff	_DtCW+2,_RSDT1+30
  2082                           ;pomiar.c: 823: return;
  2083  0095FC  0012               	return	
  2084  0095FE                     l235:
  2085                           ;pomiar.c: 825: else DtCW._err_CW=0;
  2086  0095FE  0100               	movlb	_DtCW shr (0+8)
  2087  009600  916E               	bcf	_DtCW& (0+255),0,b
  2088                           ;pomiar.c: 826: RSDT1.outrCW=DtCW.CW;
  2089  009602  C070  F34B         	movff	_DtCW+2,_RSDT1+30
  2090                           ;pomiar.c: 827: switch(DtKNF.tpkt)
  2091  009606  D09C               	goto	l238
  2092  009608                     l239:
  2093                           ;pomiar.c: 828: {
  2094                           ;pomiar.c: 830: {
  2095  009608  EE02  F0D6         	lfsr	0,_DtKNF+40
  2096  00960C  50EF               	movf	indf0,w,c
  2097  00960E  E10B               	bnz	l240
  2098  009610                     L44:
  2099                           ;pomiar.c: 832: {
  2100  009610  0E41               	movlw	65
  2101  009612  0100               	movlb	(_DtCW+2) shr (0+8)
  2102  009614  6570               	cpfsgt	(_DtCW+2)& (0+255),b
  2103  009616  D06C               	goto	l265
  2104  009618  856E               	bsf	_DtCW& (0+255),2,b
  2105                           ;pomiar.c: 834: else DtCW._ad_CW=0;
  2106  00961A                     l242:
  2107                           ;pomiar.c: 835: if(DtCW.CW<=65-2) DtCW._su_CW=1;
  2108  00961A  0E40               	movlw	64
  2109  00961C  0100               	movlb	(_DtCW+2) shr (0+8)
  2110  00961E  6170               	cpfslt	(_DtCW+2)& (0+255),b
  2111  009620  D06A               	goto	l267
  2112  009622                     L28:
  2113  009622  836E               	bsf	_DtCW& (0+255),1,b
  2114  009624  D095               	goto	l237
  2115                           ;pomiar.c: 836: else DtCW._su_CW=0;
  2116                           ;pomiar.c: 837: }
  2117  009626                     l240:
  2118                           ;pomiar.c: 838: else
  2119  009626  C072  FFE8         	movff	_DtCW+4,wreg
  2120  00962A  C070  F000         	movff	_DtCW+2,btemp
  2121  00962E  6A01               	clrf	btemp+1,c
  2122  009630  5E00               	subwf	btemp,f,c
  2123  009632  0E00               	movlw	0
  2124  009634  5A01               	subwfb	btemp+1,f,c
  2125  009636  5001               	movf	btemp+1,w,c
  2126  009638  0A80               	xorlw	128
  2127  00963A  0F80               	addlw	-128
  2128  00963C  0E05               	movlw	5
  2129  00963E  B4D8               	btfsc	status,2,c
  2130  009640  5C00               	subwf	btemp,w,c
  2131  009642  E36B               	bnc	l270
  2132  009644                     L45:
  2133  009644  0100               	movlb	_DtCW shr (0+8)
  2134  009646  856E               	bsf	_DtCW& (0+255),2,b
  2135  009648  D06A               	goto	l271
  2136                           ;pomiar.c: 841: else DtCW._ad_CW=0;
  2137                           ;pomiar.c: 842: if((DtCW.PPCW-DtCW.CW)>=1) DtCW.
      +                          _su_CW=1;
  2138                           ;pomiar.c: 843: else DtCW._su_CW=0;
  2139                           ;pomiar.c: 844: }
  2140  00964A                     l250:
  2141                           ;pomiar.c: 846: }
  2142                           ;pomiar.c: 848: {
  2143  00964A  C072  FFE8         	movff	_DtCW+4,wreg
  2144  00964E  C070  F000         	movff	_DtCW+2,btemp
  2145  009652  6A01               	clrf	btemp+1,c
  2146  009654  5E00               	subwf	btemp,f,c
  2147  009656  0E00               	movlw	0
  2148  009658  5A01               	subwfb	btemp+1,f,c
  2149  00965A  5001               	movf	btemp+1,w,c
  2150  00965C  0A80               	xorlw	128
  2151  00965E  0F80               	addlw	-128
  2152  009660  0E01               	movlw	1
  2153  009662  B4D8               	btfsc	status,2,c
  2154  009664  5C00               	subwf	btemp,w,c
  2155  009666  0100               	movlb	_DtCW shr (0+8)
  2156  009668  E302               	bnc	L55
  2157  00966A  856E               	bsf	_DtCW& (0+255),2,b
  2158  00966C  D001               	goto	l252
  2159                           ;pomiar.c: 850: else DtCW._ad_CW=0;
  2160  00966E                     L55:
  2161  00966E  956E               	bcf	_DtCW& (0+255),2,b
  2162  009670                     l252:
  2163                           ;pomiar.c: 851: if((DtCW.PPCW-DtCW.CW)>=5) DtCW.
      +                          _su_CW=1;
  2164  009670  C070  FFE8         	movff	_DtCW+2,wreg
  2165  009674  C072  F000         	movff	_DtCW+4,btemp
  2166  009678  6A01               	clrf	btemp+1,c
  2167  00967A  5E00               	subwf	btemp,f,c
  2168  00967C  0E00               	movlw	0
  2169  00967E  5A01               	subwfb	btemp+1,f,c
  2170  009680  5001               	movf	btemp+1,w,c
  2171  009682  0A80               	xorlw	128
  2172  009684  0F80               	addlw	-128
  2173  009686  0E05               	movlw	5
  2174  009688  B4D8               	btfsc	status,2,c
  2175  00968A  5C00               	subwf	btemp,w,c
  2176  00968C  0100               	movlb	_DtCW shr (0+8)
  2177  00968E  E302               	bnc	L56
  2178  009690  836E               	bsf	_DtCW& (0+255),1,b
  2179  009692  D001               	goto	l254
  2180                           ;pomiar.c: 852: else DtCW._su_CW=0;
  2181  009694                     L56:
  2182  009694  936E               	bcf	_DtCW& (0+255),1,b
  2183  009696                     l254:
  2184                           ;pomiar.c: 853: if(!DtKNF.cwtm)
  2185  009696  EE02  F0D7         	lfsr	0,_DtKNF+41
  2186  00969A  50EF               	movf	indf0,w,c
  2187  00969C  E104               	bnz	l255
  2188                           ;pomiar.c: 854: {
  2189  00969E  0E0B               	movlw	11
  2190  0096A0  EC1C  F07A         	call	_RdPrt
  2191  0096A4  D003               	goto	L8
  2192                           ;pomiar.c: 856: }
  2193  0096A6                     l255:
  2194                           ;pomiar.c: 857: else
  2195  0096A6  0E06               	movlw	6
  2196  0096A8  EC1C  F07A         	call	_RdPrt
  2197  0096AC                     L8:
  2198  0096AC  0E00               	movlw	0
  2199  0096AE  B0D8               	btfsc	status,0,c
  2200  0096B0  0E01               	movlw	1
  2201  0096B2  0100               	movlb	__Lparam shr (0+8)
  2202  0096B4  6FA9               	movwf	?a_PomiarCW^(__Lparam& (0+65280)),b	;vola
      +                          tile
  2203                           ;pomiar.c: 860: }
  2204  0096B6  51A9               	movf	?a_PomiarCW^(__Lparam& (0+65280)),w	;volat
      +                          ile
  2205  0096B8  E014               	bz	l257
  2206  0096BA  C073  FFE8         	movff	_DtCW+5,wreg
  2207  0096BE  0100               	movlb	(_DtCW+3) shr (0+8)
  2208  0096C0  5D71               	subwf	(_DtCW+3)& (0+255),w,b
  2209  0096C2  E30F               	bnc	l257
  2210                           ;pomiar.c: 862: {
  2211  0096C4  0100               	movlb	_DtCW shr (0+8)
  2212  0096C6  A36E               	btfss	_DtCW& (0+255),1,b
  2213  0096C8  D002               	goto	l258
  2214  0096CA  876E               	bsf	_DtCW& (0+255),3,b
  2215  0096CC  D005               	goto	l259
  2216  0096CE                     l258:
  2217                           ;pomiar.c: 864: else if(!M._PRACA) DtCW._wpz_CW=
      +                          0;
  2218  0096CE  0103               	movlb	(_M+4) shr (0+8)
  2219  0096D0  B70A               	btfsc	(_M+4)& (0+255),3,b
  2220  0096D2  D002               	goto	l259
  2221  0096D4  0100               	movlb	_DtCW shr (0+8)
  2222  0096D6  976E               	bcf	_DtCW& (0+255),3,b
  2223  0096D8                     l259:
  2224                           ;pomiar.c: 865: if (DtCW._ad_CW) DtCW._wpz_CW=0;
  2225  0096D8  0100               	movlb	_DtCW shr (0+8)
  2226  0096DA  A56E               	btfss	_DtCW& (0+255),2,b
  2227  0096DC  D039               	goto	l237
  2228  0096DE                     u1530:
  2229  0096DE  976E               	bcf	_DtCW& (0+255),3,b
  2230                           ;pomiar.c: 866: }
  2231  0096E0  D037               	goto	l237
  2232  0096E2                     l257:
  2233                           ;pomiar.c: 867: else DtCW._wpz_CW=0;
  2234  0096E2  0100               	movlb	_DtCW shr (0+8)
  2235  0096E4  D7FC               	goto	u1530
  2236                           ;pomiar.c: 868: break;
  2237  0096E6                     l263:
  2238                           ;pomiar.c: 869: }
  2239                           ;pomiar.c: 871: {
  2240  0096E6  EE02  F0D6         	lfsr	0,_DtKNF+40
  2241  0096EA  50EF               	movf	indf0,w,c
  2242  0096EC  E107               	bnz	l264
  2243  0096EE  D790               	goto	L44
  2244                           ;pomiar.c: 873: {
  2245  0096F0                     l265:
  2246                           ;pomiar.c: 875: else DtCW._ad_CW=0;
  2247  0096F0  0100               	movlb	_DtCW shr (0+8)
  2248  0096F2  956E               	bcf	_DtCW& (0+255),2,b
  2249  0096F4  D792               	goto	l242
  2250                           ;pomiar.c: 876: if(DtCW.CW<=65-2) DtCW._su_CW=1;
  2251  0096F6                     l267:
  2252                           ;pomiar.c: 877: else DtCW._su_CW=0;
  2253  0096F6  0100               	movlb	_DtCW shr (0+8)
  2254  0096F8                     L57:
  2255  0096F8  936E               	bcf	_DtCW& (0+255),1,b
  2256                           ;pomiar.c: 878: }
  2257  0096FA  D02A               	goto	l237
  2258  0096FC                     l264:
  2259                           ;pomiar.c: 879: else
  2260  0096FC  C072  FFE8         	movff	_DtCW+4,wreg
  2261  009700  C070  F000         	movff	_DtCW+2,btemp
  2262  009704  6A01               	clrf	btemp+1,c
  2263  009706  5E00               	subwf	btemp,f,c
  2264  009708  0E00               	movlw	0
  2265  00970A  5A01               	subwfb	btemp+1,f,c
  2266  00970C  5001               	movf	btemp+1,w,c
  2267  00970E  0A80               	xorlw	128
  2268  009710  0F80               	addlw	-128
  2269  009712  0E05               	movlw	5
  2270  009714  B4D8               	btfsc	status,2,c
  2271  009716  5C00               	subwf	btemp,w,c
  2272  009718  E295               	bc	L45
  2273  00971A                     l270:
  2274                           ;pomiar.c: 882: else DtCW._ad_CW=0;
  2275  00971A  0100               	movlb	_DtCW shr (0+8)
  2276  00971C  956E               	bcf	_DtCW& (0+255),2,b
  2277  00971E                     l271:
  2278                           ;pomiar.c: 883: if((DtCW.PPCW-DtCW.CW)>=1) DtCW.
      +                          _su_CW=1;
  2279  00971E  C070  FFE8         	movff	_DtCW+2,wreg
  2280  009722  C072  F000         	movff	_DtCW+4,btemp
  2281  009726  6A01               	clrf	btemp+1,c
  2282  009728  5E00               	subwf	btemp,f,c
  2283  00972A  0E00               	movlw	0
  2284  00972C  5A01               	subwfb	btemp+1,f,c
  2285  00972E  5001               	movf	btemp+1,w,c
  2286  009730  0A80               	xorlw	128
  2287  009732  0F80               	addlw	-128
  2288  009734  0E01               	movlw	1
  2289  009736  B4D8               	btfsc	status,2,c
  2290  009738  5C00               	subwf	btemp,w,c
  2291  00973A  0100               	movlb	_DtCW shr (0+8)
  2292  00973C  E3DD               	bnc	L57
  2293  00973E  D771               	goto	L28
  2294                           ;pomiar.c: 884: else DtCW._su_CW=0;
  2295                           ;pomiar.c: 885: }
  2296  009740                     l238:
  2297  009740  C2BC  FFE8         	movff	_DtKNF+14,wreg
  2298  009744  0A00               	xorlw	0
  2299  009746  E081               	bz	l250
  2300  009748  0A03               	xorlw	3
  2301  00974A  E101 D75D          	bz	l239
  2302  00974E  D7CB               	goto	l263
  2303  009750                     l237:
  2304                           ;pomiar.c: 890: if(DtKNF.tpkt==0)
  2305  009750  EE02  F0BC         	lfsr	0,_DtKNF+14
  2306  009754  50EF               	movf	indf0,w,c
  2307  009756  E10A               	bnz	l274
  2308                           ;pomiar.c: 891: {
  2309  009758  0E55               	movlw	85
  2310  00975A  0100               	movlb	(_DtCW+2) shr (0+8)
  2311  00975C  6570               	cpfsgt	(_DtCW+2)& (0+255),b
  2312  00975E  D001               	goto	l275
  2313  009760  876F               	bsf	(_DtCW+1)& (0+255),3,b
  2314  009762                     l275:
  2315                           ;pomiar.c: 893: if(DtCW.CW<85) DtCW._offKCW=0;
  2316  009762  0E55               	movlw	85
  2317  009764  0100               	movlb	(_DtCW+2) shr (0+8)
  2318  009766  6170               	cpfslt	(_DtCW+2)& (0+255),b
  2319  009768  D003               	goto	l277
  2320  00976A  D001               	goto	L29
  2321                           ;pomiar.c: 894: }
  2322  00976C                     l274:
  2323                           ;pomiar.c: 895: else
  2324  00976C  0100               	movlb	(_DtCW+1) shr (0+8)
  2325  00976E                     L29:
  2326  00976E  976F               	bcf	(_DtCW+1)& (0+255),3,b
  2327  009770                     l277:
  2328                           ;pomiar.c: 898: }
  2329  009770  0E06               	movlw	6
  2330  009772  0100               	movlb	(_DtCW+2) shr (0+8)
  2331  009774  6170               	cpfslt	(_DtCW+2)& (0+255),b
  2332  009776  D003               	goto	l278
  2333                           ;pomiar.c: 900: {
  2334  009778  8B6E               	bsf	_DtCW& (0+255),5,b
  2335                           ;pomiar.c: 902: DtCW._on_DZ_CW=1;
  2336  00977A  896E               	bsf	_DtCW& (0+255),4,b
  2337                           ;pomiar.c: 903: }
  2338  00977C  D002               	goto	l279
  2339  00977E                     l278:
  2340                           ;pomiar.c: 904: else DtCW._su_DZ_CW=0;
  2341  00977E  0100               	movlb	_DtCW shr (0+8)
  2342  009780  9B6E               	bcf	_DtCW& (0+255),5,b
  2343  009782                     l279:
  2344                           ;pomiar.c: 905: if(DtCW.CW>=10)
  2345  009782  0E09               	movlw	9
  2346  009784  0100               	movlb	(_DtCW+2) shr (0+8)
  2347  009786  6570               	cpfsgt	(_DtCW+2)& (0+255),b
  2348  009788  D003               	goto	l280
  2349                           ;pomiar.c: 906: {
  2350  00978A  8D6E               	bsf	_DtCW& (0+255),6,b
  2351                           ;pomiar.c: 908: DtCW._on_DZ_CW=0;
  2352  00978C  996E               	bcf	_DtCW& (0+255),4,b
  2353                           ;pomiar.c: 909: }
  2354  00978E  D002               	goto	l281
  2355  009790                     l280:
  2356                           ;pomiar.c: 910: else DtCW._ad_DZ_CW=0;
  2357  009790  0100               	movlb	_DtCW shr (0+8)
  2358  009792  9D6E               	bcf	_DtCW& (0+255),6,b
  2359  009794                     l281:
  2360                           ;pomiar.c: 911: if(DtCW.CW<=5) DtCW._cold_CW=1;
  2361  009794  0E06               	movlw	6
  2362  009796  0100               	movlb	(_DtCW+2) shr (0+8)
  2363  009798  6170               	cpfslt	(_DtCW+2)& (0+255),b
  2364  00979A  D001               	goto	l282
  2365  00979C  8F6E               	bsf	_DtCW& (0+255),7,b
  2366  00979E                     l282:
  2367                           ;pomiar.c: 912: if(DtCW.CW>5+1) DtCW._cold_CW=0;
  2368  00979E  0E06               	movlw	6
  2369  0097A0  0100               	movlb	(_DtCW+2) shr (0+8)
  2370  0097A2  6570               	cpfsgt	(_DtCW+2)& (0+255),b
  2371  0097A4  0C06               	retlw	6
  2372  0097A6  9F6E               	bcf	_DtCW& (0+255),7,b
  2373                           ;pomiar.c: 913: }
  2374  0097A8  0C06               	retlw	6
  2375  0097AA                     __end_of_PomiarCW:
  2376                           ;pomiar.c: 916: void PomiarZW(void)
  2377                           ;pomiar.c: 917: {
  2378  0097AA                     _PomiarZW:
  2379  000000                     
  2380                           ;pomiar.c: 918: DtZW.AC_ZW=ReadAC(2);
  2381  0097AA  0E02               	movlw	2
  2382  0097AC  ECC8  F001         	call	_ReadAC
  2383  0097B0  CFE8 F064          	movff	wreg,_DtZW+1
  2384                           ;pomiar.c: 919: DtZW.ZW=ReadTabZNTC(DtZW.AC_ZW);
  2385  0097B4  C064  FFE8         	movff	_DtZW+1,wreg
  2386  0097B8  EC4F  F002         	call	_ReadTabZNTC
  2387  0097BC  CFE8 F065          	movff	wreg,_DtZW+2
  2388                           ;pomiar.c: 920: if(DtZW.AC_ZW<=0x0F||DtZW.AC_ZW>
      +                          =0xF0)
  2389  0097C0  0E10               	movlw	16
  2390  0097C2  0100               	movlb	(_DtZW+1) shr (0+8)
  2391  0097C4  6164               	cpfslt	(_DtZW+1)& (0+255),b
  2392  0097C6  D001               	goto	u1661
  2393  0097C8  D003               	goto	u1680
  2394  0097CA                     u1661:
  2395  0097CA  0EEF               	movlw	-17
  2396  0097CC  6564               	cpfsgt	(_DtZW+1)& (0+255),b
  2397  0097CE  D008               	goto	l285
  2398  0097D0                     u1680:
  2399                           ;pomiar.c: 921: {
  2400  0097D0  0100               	movlb	_DtZW shr (0+8)
  2401  0097D2  9163               	bcf	_DtZW& (0+255),0,b
  2402                           ;pomiar.c: 923: DtZW._en_ZW=0;
  2403  0097D4  9363               	bcf	_DtZW& (0+255),1,b
  2404                           ;pomiar.c: 924: RSDT1.outZW=0;
  2405  0097D6  0103               	movlb	(_RSDT1+31) shr (0+8)
  2406  0097D8  6B4C               	clrf	(_RSDT1+31)& (0+255),b
  2407                           ;pomiar.c: 925: M._pob_PGDRT=0;
  2408  0097DA  0103               	movlb	(_M+1) shr (0+8)
  2409  0097DC  9107               	bcf	(_M+1)& (0+255),0,b
  2410                           ;pomiar.c: 926: }
  2411  0097DE  0012               	return	
  2412  0097E0                     l285:
  2413                           ;pomiar.c: 927: else
  2414  0097E0  C065  F34C         	movff	_DtZW+2,_RSDT1+31
  2415                           ;pomiar.c: 930: DtZW._en_ZW=1;
  2416  0097E4  0100               	movlb	_DtZW shr (0+8)
  2417  0097E6  8363               	bsf	_DtZW& (0+255),1,b
  2418                           ;pomiar.c: 932: if(DtKNF.pgdr)
  2419  0097E8  EE02  F0D2         	lfsr	0,_DtKNF+36
  2420  0097EC  50EF               	movf	indf0,w,c
  2421  0097EE  E045               	bz	l287
  2422                           ;pomiar.c: 933: {
  2423  0097F0  0103               	movlb	(_M+3) shr (0+8)
  2424  0097F2  B509               	btfsc	(_M+3)& (0+255),2,b
  2425  0097F4  D009               	goto	l288
  2426                           ;pomiar.c: 947: {
  2427  0097F6  0103               	movlb	(_M+6) shr (0+8)
  2428  0097F8  B70C               	btfsc	(_M+6)& (0+255),3,b
  2429  0097FA  D003               	goto	u1730
  2430  0097FC  0103               	movlb	(_M+7) shr (0+8)
  2431  0097FE  A70D               	btfss	(_M+7)& (0+255),3,b
  2432  009800  D003               	goto	l288
  2433  009802                     u1730:
  2434  009802  0100               	movlb	_DtZW shr (0+8)
  2435  009804  9163               	bcf	_DtZW& (0+255),0,b
  2436  009806  D002               	goto	l291
  2437                           ;pomiar.c: 949: else DtZW._on_ZW=1;
  2438                           ;pomiar.c: 950: }
  2439  009808                     l288:
  2440                           ;pomiar.c: 951: else DtZW._on_ZW=1;
  2441  009808  0100               	movlb	_DtZW shr (0+8)
  2442  00980A  8163               	bsf	_DtZW& (0+255),0,b
  2443  00980C                     l291:
  2444                           ;pomiar.c: 953: if(DtKNF.pgdr==3)
  2445  00980C  C2D2  FFE8         	movff	_DtKNF+36,wreg
  2446  009810  0A03               	xorlw	3
  2447  009812  E102               	bnz	l292
  2448                           ;pomiar.c: 954: {
  2449  009814  0100               	movlb	_DtZW shr (0+8)
  2450  009816  8163               	bsf	_DtZW& (0+255),0,b
  2451  009818                     l292:
  2452                           ;pomiar.c: 956: }
  2453  009818  0103               	movlb	(_M+3) shr (0+8)
  2454  00981A  A509               	btfss	(_M+3)& (0+255),2,b
  2455  00981C  D02B               	goto	l293
  2456                           ;pomiar.c: 959: {
  2457  00981E  0100               	movlb	_DtZW shr (0+8)
  2458  009820  A163               	btfss	_DtZW& (0+255),0,b
  2459  009822  D025               	goto	l294
  2460                           ;pomiar.c: 961: {
  2461  009824  C2D3  FFE8         	movff	_DtKNF+37,wreg
  2462  009828  C065  F000         	movff	_DtZW+2,btemp
  2463  00982C  94D8               	bcf	status,2,c
  2464  00982E  90D8               	bcf	status,0,c
  2465  009830  AE00               	btfss	btemp,7,c
  2466  009832  5C00               	subwf	btemp,w,c
  2467  009834  B4D8               	btfsc	status,2,c
  2468  009836  80D8               	bsf	status,0,c
  2469  009838  E202               	bc	l295
  2470  00983A  0103               	movlb	(_M+1) shr (0+8)
  2471  00983C  8107               	bsf	(_M+1)& (0+255),0,b
  2472  00983E                     l295:
  2473                           ;pomiar.c: 966: if(DtZW.ZW>DtKNF.pgdg)
  2474  00983E  C065  F000         	movff	_DtZW+2,btemp
  2475  009842  C2D3  FFE8         	movff	_DtKNF+37,wreg
  2476  009846  94D8               	bcf	status,2,c
  2477  009848  90D8               	bcf	status,0,c
  2478  00984A  AE00               	btfss	btemp,7,c
  2479  00984C  5C00               	subwf	btemp,w,c
  2480  00984E  B4D8               	btfsc	status,2,c
  2481  009850  90D8               	bcf	status,0,c
  2482                           ;pomiar.c: 967: {
  2483  009852  0E03               	movlw	3
  2484  009854  E30A               	bnc	L58
  2485  009856  ECBD  F07E         	call	_RTG
  2486  00985A  6E00               	movwf	btemp,c
  2487  00985C  0E03               	movlw	3
  2488  00985E  5C00               	subwf	btemp,w,c
  2489  009860  A0D8               	btfss	status,0,c
  2490  009862  0012               	return	
  2491  009864  0103               	movlb	(_M+1) shr (0+8)
  2492  009866  9107               	bcf	(_M+1)& (0+255),0,b
  2493                           ;pomiar.c: 969: }
  2494  009868  0012               	return	
  2495                           ;pomiar.c: 970: else
  2496  00986A                     L58:
  2497  00986A  EFA5  F07E         	goto	_StartRTG
  2498                           ;pomiar.c: 973: }
  2499  00986E                     l294:
  2500                           ;pomiar.c: 976: else
  2501  00986E  0103               	movlb	(_M+1) shr (0+8)
  2502  009870  9107               	bcf	(_M+1)& (0+255),0,b
  2503                           ;pomiar.c: 979: }
  2504  009872  0012               	return	
  2505  009874                     l293:
  2506                           ;pomiar.c: 981: else
  2507  009874  0103               	movlb	(_M+1) shr (0+8)
  2508  009876  9107               	bcf	(_M+1)& (0+255),0,b
  2509                           ;pomiar.c: 984: }
  2510  009878  0012               	return	
  2511  00987A                     l287:
  2512                           ;pomiar.c: 986: else
  2513  00987A  0100               	movlb	_DtZW shr (0+8)
  2514  00987C  9163               	bcf	_DtZW& (0+255),0,b
  2515                           ;pomiar.c: 989: M._pob_PGDRT=0;
  2516  00987E  0103               	movlb	(_M+1) shr (0+8)
  2517  009880  9107               	bcf	(_M+1)& (0+255),0,b
  2518                           ;pomiar.c: 990: }
  2519  009882  0012               	return	
  2520  009884                     __end_of_PomiarZW:
  2521                           ;pomiar.c: 995: void SetTrbPGD(void)
  2522                           ;pomiar.c: 996: {
  2523  009884                     _SetTrbPGD:
  2524  000000                     
  2525                           ;	_dt assigned to ?a_SetTrbPGD+0
  2526  000000                     _SetTrbPGD$dt	set	?a_SetTrbPGD
  2527                           ;pomiar.c: 997: volatile unsigned char dt;
  2528  009884  0E14               	movlw	20
  2529  009886  EC1C  F07A         	call	_RdPrt
  2530  00988A  0E00               	movlw	0
  2531  00988C  B0D8               	btfsc	status,0,c
  2532  00988E  0E01               	movlw	1
  2533  009890  0100               	movlb	__Lparam shr (0+8)
  2534  009892  6FA9               	movwf	?a_SetTrbPGD^(__Lparam& (0+65280)),b	;vol
      +                          atile
  2535                           ;pomiar.c: 1001: if(!M._SYNCH_PGD)
  2536  009894  0103               	movlb	(_M+8) shr (0+8)
  2537  009896  B50E               	btfsc	(_M+8)& (0+255),2,b
  2538  009898  D04B               	goto	l303
  2539                           ;pomiar.c: 1002: {
  2540  00989A  EE03  F009         	lfsr	0,_M+3
  2541  00989E  50EF               	movf	indf0,w,c
  2542  0098A0  0B01               	andlw	1
  2543  0098A2  0100               	movlb	__Lparam shr (0+8)
  2544  0098A4  19A9               	xorwf	?a_SetTrbPGD^(__Lparam& (0+65280)),w	;vol
      +                          atile
  2545  0098A6  E044               	bz	l303
  2546                           ;pomiar.c: 1004: {
  2547  0098A8  0103               	movlb	(_M+3) shr (0+8)
  2548  0098AA  B109               	btfsc	(_M+3)& (0+255),0,b
  2549  0098AC  D02B               	goto	l305
  2550                           ;pomiar.c: 1006: {
  2551  0098AE  0100               	movlb	_DtZW shr (0+8)
  2552  0098B0  A363               	btfss	_DtZW& (0+255),1,b
  2553  0098B2  D03E               	goto	l303
  2554                           ;pomiar.c: 1008: {
  2555  0098B4  0103               	movlb	(_M+3) shr (0+8)
  2556  0098B6  8109               	bsf	(_M+3)& (0+255),0,b
  2557                           ;pomiar.c: 1010: M._AKTYWNE_PGD2=(DtKNF.pgdr==2)
      +                          ?1:0;
  2558  0098B8  C2D2  FFE8         	movff	_DtKNF+36,wreg
  2559  0098BC  0A02               	xorlw	2
  2560  0098BE  0E00               	movlw	0
  2561  0098C0  B4D8               	btfsc	status,2,c
  2562  0098C2  0E01               	movlw	1
  2563  0098C4  6E00               	movwf	btemp,c
  2564  0098C6  EE03  F009         	lfsr	0,_M+3
  2565  0098CA  3600               	rlcf	btemp,f,c
  2566  0098CC  3600               	rlcf	btemp,f,c
  2567  0098CE  50EF               	movf	indf0,w,c
  2568  0098D0  1800               	xorwf	btemp,w,c
  2569  0098D2  0BFB               	andlw	-5
  2570  0098D4  1800               	xorwf	btemp,w,c
  2571  0098D6  6EEF               	movwf	indf0,c
  2572                           ;pomiar.c: 1011: DtCO.PCO=ReadEEPPGD();
  2573  0098D8  EC44  F042         	call	_ReadEEPPGD	;wreg free
  2574  0098DC  CFE8 F081          	movff	wreg,_DtCO+4
  2575                           ;pomiar.c: 1012: RSDT1.outPCO=DtCO.PCO;
  2576  0098E0  C081  F337         	movff	_DtCO+4,_RSDT1+10
  2577                           ;pomiar.c: 1013: SetMinMaxPGD();
  2578  0098E4  ECA2  F03E         	call	_SetMinMaxPGD	;wreg free
  2579                           ;pomiar.c: 1014: ChkPGD();
  2580  0098E8  ECD5  F03E         	call	_ChkPGD	;wreg free
  2581                           ;pomiar.c: 1015: DtCO.PGDPCO=GetPGD_PCO();
  2582  0098EC  D8E1               	call	_GetPGD_PCO	;wreg free
  2583  0098EE  CFE8 F085          	movff	wreg,_DtCO+8
  2584                           ;pomiar.c: 1017: SetModPCO();
  2585  0098F2  D83D               	call	_SetModPCO	;wreg free
  2586                           ;pomiar.c: 1018: RSDT1.outSETPmax=M.SETPmax;
  2587  0098F4  C32B  F34E         	movff	_M+37,_RSDT1+33
  2588                           ;pomiar.c: 1019: StartRTS(15);
  2589  0098F8  0E0F               	movlw	15
  2590  0098FA  EC51  F07E         	call	_StartRTS
  2591                           ;pomiar.c: 1020: M._SYNCH_PGD=1;
  2592  0098FE  0103               	movlb	(_M+8) shr (0+8)
  2593  009900  850E               	bsf	(_M+8)& (0+255),2,b
  2594                           ;pomiar.c: 1021: return;
  2595  009902  0012               	return	
  2596                           ;pomiar.c: 1022: }
  2597  009904                     l305:
  2598                           ;pomiar.c: 1024: else
  2599  009904  0103               	movlb	(_M+3) shr (0+8)
  2600  009906  9109               	bcf	(_M+3)& (0+255),0,b
  2601                           ;pomiar.c: 1027: M._AKTYWNE_PGD2=0;
  2602  009908  9509               	bcf	(_M+3)& (0+255),2,b
  2603                           ;pomiar.c: 1028: DtCO.PCO=ReadEEPCO();
  2604  00990A  EC2C  F042         	call	_ReadEEPCO	;wreg free
  2605  00990E  CFE8 F081          	movff	wreg,_DtCO+4
  2606                           ;pomiar.c: 1029: RSDT1.outPCO=DtCO.PCO;
  2607  009912  C081  F337         	movff	_DtCO+4,_RSDT1+10
  2608                           ;pomiar.c: 1030: SetMinMaxPCO();
  2609  009916  EC64  F03E         	call	_SetMinMaxPCO	;wreg free
  2610                           ;pomiar.c: 1031: ChkPCO();
  2611  00991A  ECB7  F03E         	call	_ChkPCO	;wreg free
  2612                           ;pomiar.c: 1033: SetModPCO();
  2613  00991E  D827               	call	_SetModPCO	;wreg free
  2614                           ;pomiar.c: 1034: RSDT1.outSETPmax=M.SETPmax;
  2615  009920  C32B  F34E         	movff	_M+37,_RSDT1+33
  2616                           ;pomiar.c: 1035: StartRTS(15);
  2617  009924  0E0F               	movlw	15
  2618  009926  EC51  F07E         	call	_StartRTS
  2619                           ;pomiar.c: 1036: M._SYNCH_PGD=1;
  2620  00992A  0103               	movlb	(_M+8) shr (0+8)
  2621  00992C  850E               	bsf	(_M+8)& (0+255),2,b
  2622                           ;pomiar.c: 1037: return;
  2623  00992E  0012               	return	
  2624  009930                     l303:
  2625                           ;pomiar.c: 1038: }
  2626  009930  0103               	movlb	(_M+3) shr (0+8)
  2627  009932  A109               	btfss	(_M+3)& (0+255),0,b
  2628  009934  D006               	goto	u1860
  2629  009936  C2D2  FFE8         	movff	_DtKNF+36,wreg
  2630  00993A  0A02               	xorlw	2
  2631  00993C  E102               	bnz	u1860
  2632  00993E  0E01               	movlw	1
  2633  009940  D001               	goto	u1870
  2634  009942                     u1860:
  2635  009942  0E00               	movlw	0
  2636  009944                     u1870:
  2637  009944  6E00               	movwf	btemp,c
  2638  009946  EE03  F009         	lfsr	0,_M+3
  2639  00994A  3600               	rlcf	btemp,f,c
  2640  00994C  3600               	rlcf	btemp,f,c
  2641  00994E  50EF               	movf	indf0,w,c
  2642  009950  1800               	xorwf	btemp,w,c
  2643  009952  0BFB               	andlw	-5
  2644  009954  1800               	xorwf	btemp,w,c
  2645  009956  6EEF               	movwf	indf0,c
  2646                           ;pomiar.c: 1043: if(RTS(15)>2)
  2647  009958  0E0F               	movlw	15
  2648  00995A  EC63  F07E         	call	_RTS
  2649  00995E  6E00               	movwf	btemp,c
  2650  009960  0E03               	movlw	3
  2651  009962  5C00               	subwf	btemp,w,c
  2652  009964  A0D8               	btfss	status,0,c
  2653  009966  0012               	return	
  2654                           ;pomiar.c: 1044: {
  2655  009968  0103               	movlb	(_M+8) shr (0+8)
  2656  00996A  950E               	bcf	(_M+8)& (0+255),2,b
  2657                           ;pomiar.c: 1046: }
  2658  00996C  0012               	return	
  2659  00996E                     __end_of_SetTrbPGD:
  2660                           ;pomiar.c: 1050: void SetModPCO(void)
  2661                           ;pomiar.c: 1051: {
  2662  00996E                     _SetModPCO:
  2663  000000                     
  2664                           ;pomiar.c: 1052: if(M._AKTYWNE_KNF)
  2665  00996E  0103               	movlb	(_M+3) shr (0+8)
  2666  009970  A309               	btfss	(_M+3)& (0+255),1,b
  2667  009972  D008               	goto	l310
  2668                           ;pomiar.c: 1053: {
  2669  009974  EE02  F0C8         	lfsr	0,_DtKNF+26
  2670  009978  50EF               	movf	indf0,w,c
  2671  00997A  E102               	bnz	l311
  2672  00997C  0E50               	movlw	80
  2673  00997E  D021               	goto	L11
  2674  009980                     l311:
  2675                           ;pomiar.c: 1055: else DtCO.PPCO=55;
  2676  009980  0E37               	movlw	55
  2677  009982  D01F               	goto	L11
  2678                           ;pomiar.c: 1056: M.CONTSETP=DtCO.PPCO;
  2679                           ;pomiar.c: 1057: M.SETPmax=DtCO.PPCO;
  2680                           ;pomiar.c: 1058: }
  2681  009984                     l310:
  2682                           ;pomiar.c: 1059: else
  2683  009984  0103               	movlb	_M shr (0+8)
  2684  009986  B906               	btfsc	_M& (0+255),4,b
  2685  009988  D015               	goto	l316
  2686  00998A  0103               	movlb	_M shr (0+8)
  2687  00998C  B706               	btfsc	_M& (0+255),3,b
  2688  00998E  D012               	goto	l316
  2689  009990  0103               	movlb	_M shr (0+8)
  2690  009992  AF06               	btfss	_M& (0+255),7,b
  2691  009994  D01D               	goto	l314
  2692  009996  D00E               	goto	l316
  2693                           ;pomiar.c: 1061: {
  2694  009998                     l317:
  2695  009998  D013               	goto	L38
  2696                           ;pomiar.c: 1063: {
  2697                           ;pomiar.c: 1065: {
  2698                           ;pomiar.c: 1067: break;
  2699  00999A                     l318:
  2700                           ;pomiar.c: 1068: }
  2701                           ;pomiar.c: 1070: {
  2702  00999A  0103               	movlb	_M shr (0+8)
  2703  00999C  B906               	btfsc	_M& (0+255),4,b
  2704  00999E  D003               	goto	u1980
  2705  0099A0  0103               	movlb	_M shr (0+8)
  2706  0099A2  A706               	btfss	_M& (0+255),3,b
  2707  0099A4  D003               	goto	l319
  2708  0099A6                     u1980:
  2709                           ;pomiar.c: 1072: {
  2710  0099A6  C08F  F082         	movff	_DtCO+18,_DtCO+5
  2711                           ;pomiar.c: 1075: }
  2712  0099AA  D00D               	goto	l315
  2713  0099AC                     l319:
  2714                           ;pomiar.c: 1076: else
  2715  0099AC  C08F  FFE8         	movff	_DtCO+18,wreg
  2716  0099B0  0F02               	addlw	2
  2717  0099B2  D007               	goto	L11
  2718                           ;pomiar.c: 1086: break;
  2719  0099B4                     l316:
  2720  0099B4  C2BC  FFE8         	movff	_DtKNF+14,wreg
  2721  0099B8  0A00               	xorlw	0
  2722  0099BA  E0EF               	bz	l318
  2723  0099BC  0A03               	xorlw	3
  2724  0099BE  E0EC               	bz	l317
  2725  0099C0                     L38:
  2726                           ;pomiar.c: 1080: }
  2727                           ;pomiar.c: 1082: }
  2728                           ;pomiar.c: 1084: {
  2729  0099C0  0E59               	movlw	89
  2730  0099C2                     L11:
  2731  0099C2  CFE8 F082          	movff	wreg,_DtCO+5
  2732  0099C6                     l315:
  2733                           ;pomiar.c: 1089: M.CONTSETP=DtCO.PPCO;
  2734  0099C6  C082  F329         	movff	_DtCO+5,_M+35
  2735                           ;pomiar.c: 1090: M.SETPmax=DtCO.PPCO;
  2736  0099CA  C082  F32B         	movff	_DtCO+5,_M+37
  2737                           ;pomiar.c: 1091: }
  2738  0099CE  D04B               	goto	l313
  2739  0099D0                     l314:
  2740                           ;pomiar.c: 1092: else
  2741  0099D0  0103               	movlb	(_M+3) shr (0+8)
  2742  0099D2  A109               	btfss	(_M+3)& (0+255),0,b
  2743  0099D4  D02F               	goto	l323
  2744                           ;pomiar.c: 1094: {
  2745  0099D6  C085  F082         	movff	_DtCO+8,_DtCO+5
  2746                           ;pomiar.c: 1096: M.SETPmax=DtCO.PPCO;
  2747  0099DA  C082  F32B         	movff	_DtCO+5,_M+37
  2748                           ;pomiar.c: 1097: if(M.SETPmin>M.SETPmax) M.SETPm
      +                          in=M.SETPmax;
  2749  0099DE  C32A  FFE8         	movff	_M+36,wreg
  2750  0099E2  0103               	movlb	(_M+37) shr (0+8)
  2751  0099E4  612B               	cpfslt	(_M+37)& (0+255),b
  2752  0099E6  D002               	goto	l324
  2753  0099E8  C32B  F32A         	movff	_M+37,_M+36
  2754  0099EC                     l324:
  2755                           ;pomiar.c: 1142: if(!M._AKTYWNE_PGD2)
  2756  0099EC  0103               	movlb	(_M+3) shr (0+8)
  2757  0099EE  B509               	btfsc	(_M+3)& (0+255),2,b
  2758  0099F0  D01E               	goto	l326
  2759                           ;pomiar.c: 1143: {
  2760  0099F2  0103               	movlb	(_M+6) shr (0+8)
  2761  0099F4  BD0C               	btfsc	(_M+6)& (0+255),6,b
  2762  0099F6  D009               	goto	u2080
  2763  0099F8  0103               	movlb	(_M+6) shr (0+8)
  2764  0099FA  B50C               	btfsc	(_M+6)& (0+255),2,b
  2765  0099FC  D006               	goto	u2080
  2766  0099FE  0103               	movlb	(_M+6) shr (0+8)
  2767  009A00  B30C               	btfsc	(_M+6)& (0+255),1,b
  2768  009A02  D003               	goto	u2080
  2769  009A04  0103               	movlb	(_M+7) shr (0+8)
  2770  009A06  A50D               	btfss	(_M+7)& (0+255),2,b
  2771  009A08  D012               	goto	l326
  2772  009A0A                     u2080:
  2773                           ;pomiar.c: 1145: {
  2774  009A0A  C37F  F329         	movff	_RSDT1+82,_M+35
  2775                           ;pomiar.c: 1147: if(M.CONTSETP>M.SETPmax) M.CONT
      +                          SETP=M.SETPmax;
  2776  009A0E  C329  FFE8         	movff	_M+35,wreg
  2777  009A12  0103               	movlb	(_M+37) shr (0+8)
  2778  009A14  612B               	cpfslt	(_M+37)& (0+255),b
  2779  009A16  D003               	goto	l327
  2780  009A18  C32B  F329         	movff	_M+37,_M+35
  2781  009A1C  D024               	goto	l313
  2782  009A1E                     l327:
  2783                           ;pomiar.c: 1148: else
  2784  009A1E  C32A  FFE8         	movff	_M+36,wreg
  2785  009A22  0103               	movlb	(_M+35) shr (0+8)
  2786  009A24  6129               	cpfslt	(_M+35)& (0+255),b
  2787  009A26  D01F               	goto	l313
  2788  009A28  C32A  F329         	movff	_M+36,_M+35
  2789                           ;pomiar.c: 1150: }
  2790  009A2C  D01C               	goto	l313
  2791  009A2E                     l326:
  2792                           ;pomiar.c: 1151: else
  2793  009A2E  C085  F329         	movff	_DtCO+8,_M+35
  2794                           ;pomiar.c: 1154: }
  2795                           ;pomiar.c: 1156: else
  2796                           ;pomiar.c: 1159: }
  2797  009A32  D019               	goto	l313
  2798  009A34                     l323:
  2799                           ;pomiar.c: 1162: else
  2800  009A34  C081  F082         	movff	_DtCO+4,_DtCO+5
  2801                           ;pomiar.c: 1165: M.SETPmax=DtCO.PPCO;
  2802  009A38  C082  F32B         	movff	_DtCO+5,_M+37
  2803                           ;pomiar.c: 1166: if(M.SETPmin>M.SETPmax) M.SETPm
      +                          in=M.SETPmax;
  2804  009A3C  C32A  FFE8         	movff	_M+36,wreg
  2805  009A40  0103               	movlb	(_M+37) shr (0+8)
  2806  009A42  612B               	cpfslt	(_M+37)& (0+255),b
  2807  009A44  D002               	goto	l333
  2808  009A46  C32B  F32A         	movff	_M+37,_M+36
  2809  009A4A                     l333:
  2810                           ;pomiar.c: 1197: if(M._I10V_RT||M._LIN_STR||M._L
      +                          IN_KSK||M._IOT_STR)
  2811  009A4A  0103               	movlb	(_M+6) shr (0+8)
  2812  009A4C  BD0C               	btfsc	(_M+6)& (0+255),6,b
  2813  009A4E  D7DD               	goto	u2080
  2814  009A50  0103               	movlb	(_M+6) shr (0+8)
  2815  009A52  B50C               	btfsc	(_M+6)& (0+255),2,b
  2816  009A54  D7DA               	goto	u2080
  2817  009A56  0103               	movlb	(_M+6) shr (0+8)
  2818  009A58  B30C               	btfsc	(_M+6)& (0+255),1,b
  2819  009A5A  D7D7               	goto	u2080
  2820  009A5C  0103               	movlb	(_M+7) shr (0+8)
  2821  009A5E  B50D               	btfsc	(_M+7)& (0+255),2,b
  2822  009A60  D7D4               	goto	u2080
  2823                           ;pomiar.c: 1198: {
  2824                           ;pomiar.c: 1200: if(M.CONTSETP>M.SETPmax) M.CONT
      +                          SETP=M.SETPmax;
  2825                           ;pomiar.c: 1201: else
  2826                           ;pomiar.c: 1203: }
  2827                           ;pomiar.c: 1204: else
  2828  009A62  C081  F329         	movff	_DtCO+4,_M+35
  2829  009A66                     l313:
  2830                           ;pomiar.c: 1207: }
  2831  009A66  EE02  F0C8         	lfsr	0,_DtKNF+26
  2832  009A6A  50EF               	movf	indf0,w,c
  2833  009A6C  E108               	bnz	l339
  2834                           ;pomiar.c: 1212: {
  2835  009A6E  0103               	movlb	_M shr (0+8)
  2836  009A70  B506               	btfsc	_M& (0+255),2,b
  2837  009A72  D003               	goto	l340
  2838  009A74                     u2220:
  2839  009A74  C082  F33D         	movff	_DtCO+5,_RSDT1+16
  2840  009A78  D00E               	goto	l342
  2841  009A7A                     l340:
  2842                           ;pomiar.c: 1214: else
  2843  009A7A  0E53               	movlw	83
  2844  009A7C  D004               	goto	L62
  2845                           ;pomiar.c: 1217: RSDT1.outPPCO=83;
  2846                           ;pomiar.c: 1218: M.CONTSETP=DtCO.PPCO;
  2847                           ;pomiar.c: 1219: M.SETPmax=DtCO.PPCO;
  2848                           ;pomiar.c: 1220: }
  2849  009A7E                     l339:
  2850                           ;pomiar.c: 1222: else
  2851  009A7E  0103               	movlb	_M shr (0+8)
  2852  009A80  A506               	btfss	_M& (0+255),2,b
  2853  009A82  D7F8               	goto	u2220
  2854                           ;pomiar.c: 1225: else
  2855  009A84  0E3A               	movlw	58
  2856  009A86                     L62:
  2857  009A86  CFE8 F082          	movff	wreg,_DtCO+5
  2858                           ;pomiar.c: 1228: RSDT1.outPPCO=58;
  2859  009A8A  CFE8 F33D          	movff	wreg,_RSDT1+16
  2860                           ;pomiar.c: 1229: M.CONTSETP=DtCO.PPCO;
  2861  009A8E  C082  F329         	movff	_DtCO+5,_M+35
  2862                           ;pomiar.c: 1230: M.SETPmax=DtCO.PPCO;
  2863  009A92  C082  F32B         	movff	_DtCO+5,_M+37
  2864  009A96                     l342:
  2865                           ;pomiar.c: 1231: }
  2866  009A96  0103               	movlb	_M shr (0+8)
  2867  009A98  AD06               	btfss	_M& (0+255),6,b
  2868  009A9A  0012               	return	
  2869                           ;pomiar.c: 1234: {
  2870  009A9C  0E14               	movlw	20
  2871  009A9E  CFE8 F082          	movff	wreg,_DtCO+5
  2872                           ;pomiar.c: 1236: RSDT1.outPPCO=20;
  2873  009AA2  CFE8 F33D          	movff	wreg,_RSDT1+16
  2874                           ;pomiar.c: 1237: M.CONTSETP=DtCO.PPCO;
  2875  009AA6  C082  F329         	movff	_DtCO+5,_M+35
  2876                           ;pomiar.c: 1238: M.SETPmax=DtCO.PPCO;
  2877  009AAA  C082  F32B         	movff	_DtCO+5,_M+37
  2878                           ;pomiar.c: 1239: }
  2879  009AAE  0C14               	retlw	20
  2880  009AB0                     __end_of_SetModPCO:
  2881                           ;pomiar.c: 1245: unsigned char GetPGD_PCO(void)
  2882                           ;pomiar.c: 1246: {
  2883  009AB0                     _GetPGD_PCO:
  2884  000000                     
  2885                           ;	_p assigned to ?a_GetPGD_PCO+0
  2886  000000                     _GetPGD_PCO$p	set	?a_GetPGD_PCO
  2887                           ;pomiar.c: 1247: unsigned char p;
  2888  009AB0  EE02  F0C8         	lfsr	0,_DtKNF+26
  2889  009AB4  50EF               	movf	indf0,w,c
  2890  009AB6  E001 D15E          	bnz	l347
  2891                           ;pomiar.c: 1251: {
  2892  009ABA  EE00  F081         	lfsr	0,_DtCO+4
  2893  009ABE  50EF               	movf	indf0,w,c
  2894  009AC0  E101 D112          	bz	l348
  2895                           ;pomiar.c: 1253: {
  2896  009AC4  C066  FFE8         	movff	_DtZW+3,wreg
  2897  009AC8  0A80               	xorlw	128
  2898  009ACA  0F67               	addlw	-153
  2899  009ACC  E301 D0C5          	bc	l349
  2900                           ;pomiar.c: 1255: {
  2901  009AD0  C081  F002         	movff	_DtCO+4,btemp+2
  2902  009AD4  6A03               	clrf	btemp+3,c
  2903  009AD6  C066  FFF6         	movff	_DtZW+3,tblptrl
  2904  009ADA  6AF7               	clrf	tblptrh,c
  2905  009ADC  BEF6               	btfsc	tblptrl,7,c
  2906  009ADE  06F7               	decf	tblptrh,f,c
  2907  009AE0  0E19               	movlw	25
  2908  009AE2  6E00               	movwf	btemp,c
  2909  009AE4  6A01               	clrf	btemp+1,c
  2910  009AE6  50F6               	movf	tblptrl,w,c
  2911  009AE8  5E00               	subwf	btemp,f,c
  2912  009AEA  50F7               	movf	tblptrh,w,c
  2913  009AEC  5A01               	subwfb	btemp+1,f,c
  2914  009AEE  EC12  F007         	call	awmul
  2915  009AF2  0100               	movlb	__Lparam shr (0+8)
  2916  009AF4  C004  F0AE         	movff	btemp+4,?a_GetPGD_PCO+1
  2917  009AF8  C005  F0AF         	movff	btemp+5,?a_GetPGD_PCO+2
  2918  009AFC  0E00               	movlw	0
  2919  009AFE  BFAF               	btfsc	(?a_GetPGD_PCO+2)^(__Lparam& (0+65280)),7
      +                          ,b
  2920  009B00  0EFF               	movlw	-1
  2921  009B02  6FB0               	movwf	(?a_GetPGD_PCO+3)^(__Lparam& (0+65280)),b
  2922  009B04  6FB1               	movwf	(?a_GetPGD_PCO+4)^(__Lparam& (0+65280)),b
  2923                           ;pomiar.c: 1257: m*=(80-40);
  2924  009B06  0E28               	movlw	40
  2925  009B08  6E04               	movwf	btemp+4,c
  2926  009B0A  6A05               	clrf	btemp+5,c
  2927  009B0C  6A06               	clrf	btemp+6,c
  2928  009B0E  6A07               	clrf	btemp+7,c
  2929  009B10  0EAE               	movlw	low (?a_GetPGD_PCO+1)
  2930  009B12  6EE9               	movwf	fsr0l,c
  2931  009B14  0E00               	movlw	high (?a_GetPGD_PCO+1)
  2932  009B16  6EEA               	movwf	fsr0h,c
  2933  009B18  EC6E  F007         	call	almul_f
  2934                           ;pomiar.c: 1258: m*=100;
  2935  009B1C  0E64               	movlw	100
  2936  009B1E  6E04               	movwf	btemp+4,c
  2937  009B20  6A05               	clrf	btemp+5,c
  2938  009B22  6A06               	clrf	btemp+6,c
  2939  009B24  6A07               	clrf	btemp+7,c
  2940  009B26  0EAE               	movlw	low (?a_GetPGD_PCO+1)
  2941  009B28  6EE9               	movwf	fsr0l,c
  2942  009B2A  0E00               	movlw	high (?a_GetPGD_PCO+1)
  2943  009B2C  6EEA               	movwf	fsr0h,c
  2944  009B2E  EC6E  F007         	call	almul_f
  2945                           ;pomiar.c: 1259: m/=1485;
  2946  009B32  0ECD               	movlw	205
  2947  009B34  6E04               	movwf	btemp+4,c
  2948  009B36  0E05               	movlw	5
  2949  009B38  6E05               	movwf	btemp+5,c
  2950  009B3A  6A06               	clrf	btemp+6,c
  2951  009B3C  6A07               	clrf	btemp+7,c
  2952  009B3E  0EAE               	movlw	low (?a_GetPGD_PCO+1)
  2953  009B40  6EE9               	movwf	fsr0l,c
  2954  009B42  0E00               	movlw	high (?a_GetPGD_PCO+1)
  2955  009B44  6EEA               	movwf	fsr0h,c
  2956  009B46  EC64  F007         	call	aldiv_f
  2957                           ;pomiar.c: 1260: if((40+m/100)>80) p=80;
  2958  009B4A  0E64               	movlw	100
  2959  009B4C  6E04               	movwf	btemp+4,c
  2960  009B4E  6A05               	clrf	btemp+5,c
  2961  009B50  6A06               	clrf	btemp+6,c
  2962  009B52  6A07               	clrf	btemp+7,c
  2963  009B54  C0AE  F000         	movff	?a_GetPGD_PCO+1,btemp
  2964  009B58  C0AF  F001         	movff	?a_GetPGD_PCO+2,btemp+1
  2965  009B5C  C0B0  F002         	movff	?a_GetPGD_PCO+3,btemp+2
  2966  009B60  C0B1  F003         	movff	?a_GetPGD_PCO+4,btemp+3
  2967  009B64  EC3D  F006         	call	aldiv
  2968  009B68  0E28               	movlw	40
  2969  009B6A  2400               	addwf	btemp,w,c
  2970  009B6C  6E04               	movwf	btemp+4,c
  2971  009B6E  0E00               	movlw	0
  2972  009B70  2001               	addwfc	btemp+1,w,c
  2973  009B72  6E05               	movwf	btemp+5,c
  2974  009B74  0E00               	movlw	0
  2975  009B76  2002               	addwfc	btemp+2,w,c
  2976  009B78  6E06               	movwf	btemp+6,c
  2977  009B7A  0E00               	movlw	0
  2978  009B7C  2003               	addwfc	btemp+3,w,c
  2979  009B7E  6E07               	movwf	btemp+7,c
  2980  009B80  5007               	movf	btemp+7,w,c
  2981  009B82  0A80               	xorlw	128
  2982  009B84  0F80               	addlw	128
  2983  009B86  E108               	bnz	u2285
  2984  009B88  0E00               	movlw	0
  2985  009B8A  5C06               	subwf	btemp+6,w,c
  2986  009B8C  E105               	bnz	u2285
  2987  009B8E  0E00               	movlw	0
  2988  009B90  5C05               	subwf	btemp+5,w,c
  2989  009B92  E102               	bnz	u2285
  2990  009B94  0E51               	movlw	81
  2991  009B96  5C04               	subwf	btemp+4,w,c
  2992  009B98                     u2285:
  2993  009B98  E302               	bnc	l350
  2994  009B9A  0E50               	movlw	80
  2995  009B9C  D02D               	goto	L33
  2996  009B9E                     l350:
  2997                           ;pomiar.c: 1261: else
  2998  009B9E  0E64               	movlw	100
  2999  009BA0  6E04               	movwf	btemp+4,c
  3000  009BA2  6A05               	clrf	btemp+5,c
  3001  009BA4  6A06               	clrf	btemp+6,c
  3002  009BA6  6A07               	clrf	btemp+7,c
  3003  009BA8  C0AE  F000         	movff	?a_GetPGD_PCO+1,btemp
  3004  009BAC  C0AF  F001         	movff	?a_GetPGD_PCO+2,btemp+1
  3005  009BB0  C0B0  F002         	movff	?a_GetPGD_PCO+3,btemp+2
  3006  009BB4  C0B1  F003         	movff	?a_GetPGD_PCO+4,btemp+3
  3007  009BB8  EC3D  F006         	call	aldiv
  3008  009BBC  5000               	movf	btemp,w,c
  3009  009BBE  0F28               	addlw	40
  3010  009BC0  0100               	movlb	__Lparam shr (0+8)
  3011  009BC2  6FAD               	movwf	?a_GetPGD_PCO^(__Lparam& (0+65280)),b
  3012                           ;pomiar.c: 1264: if(p<40) p=40;
  3013  009BC4  0E28               	movlw	40
  3014  009BC6  61AD               	cpfslt	?a_GetPGD_PCO^(__Lparam& (0+65280)),b
  3015  009BC8  D001               	goto	l352
  3016  009BCA  6FAD               	movwf	?a_GetPGD_PCO^(__Lparam& (0+65280)),b
  3017  009BCC                     l352:
  3018                           ;pomiar.c: 1265: if((p+DtKNF.prop)<80) p=p+DtKNF
      +                          .prop;
  3019  009BCC  C2CF  FFE8         	movff	_DtKNF+33,wreg
  3020  009BD0  C0AD  F000         	movff	?a_GetPGD_PCO,btemp
  3021  009BD4  6A01               	clrf	btemp+1,c
  3022  009BD6  2600               	addwf	btemp,f,c
  3023  009BD8  0E00               	movlw	0
  3024  009BDA  2201               	addwfc	btemp+1,f,c
  3025  009BDC  5001               	movf	btemp+1,w,c
  3026  009BDE  0A80               	xorlw	128
  3027  009BE0  0F80               	addlw	-128
  3028  009BE2  0E50               	movlw	80
  3029  009BE4  B4D8               	btfsc	status,2,c
  3030  009BE6  5C00               	subwf	btemp,w,c
  3031  009BE8  E205               	bc	l353
  3032  009BEA  C2CF  FFE8         	movff	_DtKNF+33,wreg
  3033  009BEE  0100               	movlb	__Lparam shr (0+8)
  3034  009BF0  27AD               	addwf	?a_GetPGD_PCO^(__Lparam& (0+65280)),f,b
  3035  009BF2  D003               	goto	l351
  3036  009BF4                     l353:
  3037                           ;pomiar.c: 1266: else p=80;
  3038  009BF4  0E50               	movlw	80
  3039  009BF6  0100               	movlb	__Lparam shr (0+8)
  3040  009BF8                     L33:
  3041  009BF8  6FAD               	movwf	?a_GetPGD_PCO^(__Lparam& (0+65280)),b
  3042  009BFA                     l351:
  3043                           ;pomiar.c: 1267: }
  3044  009BFA  0E27               	movlw	39
  3045  009BFC  0102               	movlb	(_DtKNF+39) shr (0+8)
  3046  009BFE  65D5               	cpfsgt	(_DtKNF+39)& (0+255),b
  3047  009C00  D008               	goto	l355
  3048                           ;pomiar.c: 1269: {
  3049  009C02  0100               	movlb	__Lparam shr (0+8)
  3050  009C04  51AD               	movf	?a_GetPGD_PCO^(__Lparam& (0+65280)),w
  3051  009C06  0102               	movlb	(_DtKNF+39) shr (0+8)
  3052  009C08  61D5               	cpfslt	(_DtKNF+39)& (0+255),b
  3053  009C0A  D006               	goto	l357
  3054  009C0C  C2D5  F0AD         	movff	_DtKNF+39,?a_GetPGD_PCO
  3055                           ;pomiar.c: 1271: }
  3056  009C10  D003               	goto	l357
  3057  009C12                     l355:
  3058                           ;pomiar.c: 1272: else p=40;
  3059  009C12  0E28               	movlw	40
  3060  009C14  0100               	movlb	__Lparam shr (0+8)
  3061  009C16  6FAD               	movwf	?a_GetPGD_PCO^(__Lparam& (0+65280)),b
  3062  009C18                     l357:
  3063                           ;pomiar.c: 1273: if(M._AKTYWNE_PGD2&&RdPrt(22))
  3064  009C18  0103               	movlb	(_M+3) shr (0+8)
  3065  009C1A  A509               	btfss	(_M+3)& (0+255),2,b
  3066  009C1C  D01B               	goto	l358
  3067  009C1E  0E16               	movlw	22
  3068  009C20  EC1C  F07A         	call	_RdPrt
  3069  009C24  E317               	bnc	l358
  3070                           ;pomiar.c: 1274: {
  3071  009C26  C2D4  FFE8         	movff	_DtKNF+38,wreg
  3072  009C2A  C0AD  F000         	movff	?a_GetPGD_PCO,btemp
  3073  009C2E  6A01               	clrf	btemp+1,c
  3074  009C30  5E00               	subwf	btemp,f,c
  3075  009C32  0E00               	movlw	0
  3076  009C34  5A01               	subwfb	btemp+1,f,c
  3077  009C36  5001               	movf	btemp+1,w,c
  3078  009C38  0A80               	xorlw	128
  3079  009C3A  0F80               	addlw	-128
  3080  009C3C  0E29               	movlw	41
  3081  009C3E  B4D8               	btfsc	status,2,c
  3082  009C40  5C00               	subwf	btemp,w,c
  3083  009C42  E305               	bnc	l359
  3084  009C44  C2D4  FFE8         	movff	_DtKNF+38,wreg
  3085  009C48  0100               	movlb	__Lparam shr (0+8)
  3086  009C4A  5FAD               	subwf	?a_GetPGD_PCO^(__Lparam& (0+65280)),f,b
  3087  009C4C  D003               	goto	l358
  3088  009C4E                     l359:
  3089                           ;pomiar.c: 1276: else p=40;
  3090  009C4E  0E28               	movlw	40
  3091  009C50  0100               	movlb	__Lparam shr (0+8)
  3092  009C52  6FAD               	movwf	?a_GetPGD_PCO^(__Lparam& (0+65280)),b
  3093  009C54                     l358:
  3094                           ;pomiar.c: 1277: }
  3095  009C54  0100               	movlb	__Lparam shr (0+8)
  3096  009C56  51AD               	movf	?a_GetPGD_PCO^(__Lparam& (0+65280)),w
  3097  009C58  0012               	return	
  3098  009C5A                     l349:
  3099                           ;pomiar.c: 1280: else
  3100  009C5A  0E28               	movlw	40
  3101  009C5C  0100               	movlb	__Lparam shr (0+8)
  3102  009C5E  6FAD               	movwf	?a_GetPGD_PCO^(__Lparam& (0+65280)),b
  3103                           ;pomiar.c: 1283: if((p+DtKNF.prop)<80) p=p+DtKNF
      +                          .prop;
  3104  009C60  C2CF  F000         	movff	_DtKNF+33,btemp
  3105  009C64  6A01               	clrf	btemp+1,c
  3106  009C66  2600               	addwf	btemp,f,c
  3107  009C68  0E00               	movlw	0
  3108  009C6A  2201               	addwfc	btemp+1,f,c
  3109  009C6C  5001               	movf	btemp+1,w,c
  3110  009C6E  0A80               	xorlw	128
  3111  009C70  0F80               	addlw	-128
  3112  009C72  0E50               	movlw	80
  3113  009C74  B4D8               	btfsc	status,2,c
  3114  009C76  5C00               	subwf	btemp,w,c
  3115  009C78  E204               	bc	l362
  3116  009C7A  C2CF  FFE8         	movff	_DtKNF+33,wreg
  3117  009C7E  27AD               	addwf	?a_GetPGD_PCO^(__Lparam& (0+65280)),f,b
  3118  009C80  D003               	goto	l363
  3119  009C82                     l362:
  3120                           ;pomiar.c: 1284: else p=80;
  3121  009C82  0E50               	movlw	80
  3122  009C84  0100               	movlb	__Lparam shr (0+8)
  3123  009C86  6FAD               	movwf	?a_GetPGD_PCO^(__Lparam& (0+65280)),b
  3124  009C88                     l363:
  3125                           ;pomiar.c: 1285: if(DtKNF.pgmx>=40)
  3126  009C88  0E27               	movlw	39
  3127  009C8A  0102               	movlb	(_DtKNF+39) shr (0+8)
  3128  009C8C  65D5               	cpfsgt	(_DtKNF+39)& (0+255),b
  3129  009C8E  D008               	goto	l364
  3130                           ;pomiar.c: 1286: {
  3131  009C90  0100               	movlb	__Lparam shr (0+8)
  3132  009C92  51AD               	movf	?a_GetPGD_PCO^(__Lparam& (0+65280)),w
  3133  009C94  0102               	movlb	(_DtKNF+39) shr (0+8)
  3134  009C96  61D5               	cpfslt	(_DtKNF+39)& (0+255),b
  3135  009C98  D006               	goto	l366
  3136  009C9A  C2D5  F0AD         	movff	_DtKNF+39,?a_GetPGD_PCO
  3137                           ;pomiar.c: 1288: }
  3138  009C9E  D003               	goto	l366
  3139  009CA0                     l364:
  3140                           ;pomiar.c: 1289: else p=40;
  3141  009CA0  0E28               	movlw	40
  3142  009CA2  0100               	movlb	__Lparam shr (0+8)
  3143  009CA4  6FAD               	movwf	?a_GetPGD_PCO^(__Lparam& (0+65280)),b
  3144  009CA6                     l366:
  3145                           ;pomiar.c: 1290: if(M._AKTYWNE_PGD2&&RdPrt(22))
  3146  009CA6  0103               	movlb	(_M+3) shr (0+8)
  3147  009CA8  A509               	btfss	(_M+3)& (0+255),2,b
  3148  009CAA  D01B               	goto	l367
  3149  009CAC  0E16               	movlw	22
  3150  009CAE  EC1C  F07A         	call	_RdPrt
  3151  009CB2  E317               	bnc	l367
  3152                           ;pomiar.c: 1291: {
  3153  009CB4  C2D4  FFE8         	movff	_DtKNF+38,wreg
  3154  009CB8  C0AD  F000         	movff	?a_GetPGD_PCO,btemp
  3155  009CBC  6A01               	clrf	btemp+1,c
  3156  009CBE  5E00               	subwf	btemp,f,c
  3157  009CC0  0E00               	movlw	0
  3158  009CC2  5A01               	subwfb	btemp+1,f,c
  3159  009CC4  5001               	movf	btemp+1,w,c
  3160  009CC6  0A80               	xorlw	128
  3161  009CC8  0F80               	addlw	-128
  3162  009CCA  0E29               	movlw	41
  3163  009CCC  B4D8               	btfsc	status,2,c
  3164  009CCE  5C00               	subwf	btemp,w,c
  3165  009CD0  E305               	bnc	l368
  3166  009CD2  C2D4  FFE8         	movff	_DtKNF+38,wreg
  3167  009CD6  0100               	movlb	__Lparam shr (0+8)
  3168  009CD8  5FAD               	subwf	?a_GetPGD_PCO^(__Lparam& (0+65280)),f,b
  3169  009CDA  D003               	goto	l367
  3170  009CDC                     l368:
  3171                           ;pomiar.c: 1293: else p=40;
  3172  009CDC  0E28               	movlw	40
  3173  009CDE  0100               	movlb	__Lparam shr (0+8)
  3174  009CE0  6FAD               	movwf	?a_GetPGD_PCO^(__Lparam& (0+65280)),b
  3175  009CE2                     l367:
  3176                           ;pomiar.c: 1294: }
  3177  009CE2  0100               	movlb	__Lparam shr (0+8)
  3178  009CE4  51AD               	movf	?a_GetPGD_PCO^(__Lparam& (0+65280)),w
  3179  009CE6  0012               	return	
  3180  009CE8                     l348:
  3181                           ;pomiar.c: 1298: else
  3182  009CE8  0E28               	movlw	40
  3183  009CEA  0100               	movlb	__Lparam shr (0+8)
  3184  009CEC  6FAD               	movwf	?a_GetPGD_PCO^(__Lparam& (0+65280)),b
  3185                           ;pomiar.c: 1301: if((p+DtKNF.prop)<80) p=p+DtKNF
      +                          .prop;
  3186  009CEE  C2CF  F000         	movff	_DtKNF+33,btemp
  3187  009CF2  6A01               	clrf	btemp+1,c
  3188  009CF4  2600               	addwf	btemp,f,c
  3189  009CF6  0E00               	movlw	0
  3190  009CF8  2201               	addwfc	btemp+1,f,c
  3191  009CFA  5001               	movf	btemp+1,w,c
  3192  009CFC  0A80               	xorlw	128
  3193  009CFE  0F80               	addlw	-128
  3194  009D00  0E50               	movlw	80
  3195  009D02  B4D8               	btfsc	status,2,c
  3196  009D04  5C00               	subwf	btemp,w,c
  3197  009D06  E204               	bc	l371
  3198  009D08  C2CF  FFE8         	movff	_DtKNF+33,wreg
  3199  009D0C  27AD               	addwf	?a_GetPGD_PCO^(__Lparam& (0+65280)),f,b
  3200  009D0E  D003               	goto	l372
  3201  009D10                     l371:
  3202                           ;pomiar.c: 1302: else p=80;
  3203  009D10  0E50               	movlw	80
  3204  009D12  0100               	movlb	__Lparam shr (0+8)
  3205  009D14  6FAD               	movwf	?a_GetPGD_PCO^(__Lparam& (0+65280)),b
  3206  009D16                     l372:
  3207                           ;pomiar.c: 1303: if(DtKNF.pgmx>=40)
  3208  009D16  0E27               	movlw	39
  3209  009D18  0102               	movlb	(_DtKNF+39) shr (0+8)
  3210  009D1A  65D5               	cpfsgt	(_DtKNF+39)& (0+255),b
  3211  009D1C  D008               	goto	l373
  3212                           ;pomiar.c: 1304: {
  3213  009D1E  0100               	movlb	__Lparam shr (0+8)
  3214  009D20  51AD               	movf	?a_GetPGD_PCO^(__Lparam& (0+65280)),w
  3215  009D22  0102               	movlb	(_DtKNF+39) shr (0+8)
  3216  009D24  61D5               	cpfslt	(_DtKNF+39)& (0+255),b
  3217  009D26  D006               	goto	l375
  3218  009D28  C2D5  F0AD         	movff	_DtKNF+39,?a_GetPGD_PCO
  3219                           ;pomiar.c: 1306: }
  3220  009D2C  D003               	goto	l375
  3221  009D2E                     l373:
  3222                           ;pomiar.c: 1307: else p=40;
  3223  009D2E  0E28               	movlw	40
  3224  009D30  0100               	movlb	__Lparam shr (0+8)
  3225  009D32  6FAD               	movwf	?a_GetPGD_PCO^(__Lparam& (0+65280)),b
  3226  009D34                     l375:
  3227                           ;pomiar.c: 1308: if(M._AKTYWNE_PGD2&&RdPrt(22))
  3228  009D34  0103               	movlb	(_M+3) shr (0+8)
  3229  009D36  A509               	btfss	(_M+3)& (0+255),2,b
  3230  009D38  D01B               	goto	l376
  3231  009D3A  0E16               	movlw	22
  3232  009D3C  EC1C  F07A         	call	_RdPrt
  3233  009D40  E317               	bnc	l376
  3234                           ;pomiar.c: 1309: {
  3235  009D42  C2D4  FFE8         	movff	_DtKNF+38,wreg
  3236  009D46  C0AD  F000         	movff	?a_GetPGD_PCO,btemp
  3237  009D4A  6A01               	clrf	btemp+1,c
  3238  009D4C  5E00               	subwf	btemp,f,c
  3239  009D4E  0E00               	movlw	0
  3240  009D50  5A01               	subwfb	btemp+1,f,c
  3241  009D52  5001               	movf	btemp+1,w,c
  3242  009D54  0A80               	xorlw	128
  3243  009D56  0F80               	addlw	-128
  3244  009D58  0E29               	movlw	41
  3245  009D5A  B4D8               	btfsc	status,2,c
  3246  009D5C  5C00               	subwf	btemp,w,c
  3247  009D5E  E305               	bnc	l377
  3248  009D60  C2D4  FFE8         	movff	_DtKNF+38,wreg
  3249  009D64  0100               	movlb	__Lparam shr (0+8)
  3250  009D66  5FAD               	subwf	?a_GetPGD_PCO^(__Lparam& (0+65280)),f,b
  3251  009D68  D003               	goto	l376
  3252  009D6A                     l377:
  3253                           ;pomiar.c: 1311: else p=40;
  3254  009D6A  0E28               	movlw	40
  3255  009D6C  0100               	movlb	__Lparam shr (0+8)
  3256  009D6E  6FAD               	movwf	?a_GetPGD_PCO^(__Lparam& (0+65280)),b
  3257  009D70                     l376:
  3258                           ;pomiar.c: 1312: }
  3259  009D70  0100               	movlb	__Lparam shr (0+8)
  3260  009D72  51AD               	movf	?a_GetPGD_PCO^(__Lparam& (0+65280)),w
  3261  009D74  0012               	return	
  3262  009D76                     l347:
  3263                           ;pomiar.c: 1316: else
  3264  009D76  EE00  F081         	lfsr	0,_DtCO+4
  3265  009D7A  50EF               	movf	indf0,w,c
  3266  009D7C  E101 D112          	bz	l380
  3267                           ;pomiar.c: 1319: {
  3268  009D80  C066  FFE8         	movff	_DtZW+3,wreg
  3269  009D84  0A80               	xorlw	128
  3270  009D86  0F67               	addlw	-153
  3271  009D88  E301 D0C5          	bc	l381
  3272                           ;pomiar.c: 1321: {
  3273  009D8C  C081  F002         	movff	_DtCO+4,btemp+2
  3274  009D90  6A03               	clrf	btemp+3,c
  3275  009D92  C066  FFF6         	movff	_DtZW+3,tblptrl
  3276  009D96  6AF7               	clrf	tblptrh,c
  3277  009D98  BEF6               	btfsc	tblptrl,7,c
  3278  009D9A  06F7               	decf	tblptrh,f,c
  3279  009D9C  0E19               	movlw	25
  3280  009D9E  6E00               	movwf	btemp,c
  3281  009DA0  6A01               	clrf	btemp+1,c
  3282  009DA2  50F6               	movf	tblptrl,w,c
  3283  009DA4  5E00               	subwf	btemp,f,c
  3284  009DA6  50F7               	movf	tblptrh,w,c
  3285  009DA8  5A01               	subwfb	btemp+1,f,c
  3286  009DAA  EC12  F007         	call	awmul
  3287  009DAE  0100               	movlb	__Lparam shr (0+8)
  3288  009DB0  C004  F0AE         	movff	btemp+4,?a_GetPGD_PCO+1
  3289  009DB4  C005  F0AF         	movff	btemp+5,?a_GetPGD_PCO+2
  3290  009DB8  0E00               	movlw	0
  3291  009DBA  BFAF               	btfsc	(?a_GetPGD_PCO+2)^(__Lparam& (0+65280)),7
      +                          ,b
  3292  009DBC  0EFF               	movlw	-1
  3293  009DBE  6FB0               	movwf	(?a_GetPGD_PCO+3)^(__Lparam& (0+65280)),b
  3294  009DC0  6FB1               	movwf	(?a_GetPGD_PCO+4)^(__Lparam& (0+65280)),b
  3295                           ;pomiar.c: 1323: m*=(55-25);
  3296  009DC2  0E1E               	movlw	30
  3297  009DC4  6E04               	movwf	btemp+4,c
  3298  009DC6  6A05               	clrf	btemp+5,c
  3299  009DC8  6A06               	clrf	btemp+6,c
  3300  009DCA  6A07               	clrf	btemp+7,c
  3301  009DCC  0EAE               	movlw	low (?a_GetPGD_PCO+1)
  3302  009DCE  6EE9               	movwf	fsr0l,c
  3303  009DD0  0E00               	movlw	high (?a_GetPGD_PCO+1)
  3304  009DD2  6EEA               	movwf	fsr0h,c
  3305  009DD4  EC6E  F007         	call	almul_f
  3306                           ;pomiar.c: 1324: m*=100;
  3307  009DD8  0E64               	movlw	100
  3308  009DDA  6E04               	movwf	btemp+4,c
  3309  009DDC  6A05               	clrf	btemp+5,c
  3310  009DDE  6A06               	clrf	btemp+6,c
  3311  009DE0  6A07               	clrf	btemp+7,c
  3312  009DE2  0EAE               	movlw	low (?a_GetPGD_PCO+1)
  3313  009DE4  6EE9               	movwf	fsr0l,c
  3314  009DE6  0E00               	movlw	high (?a_GetPGD_PCO+1)
  3315  009DE8  6EEA               	movwf	fsr0h,c
  3316  009DEA  EC6E  F007         	call	almul_f
  3317                           ;pomiar.c: 1325: m/=1485;
  3318  009DEE  0ECD               	movlw	205
  3319  009DF0  6E04               	movwf	btemp+4,c
  3320  009DF2  0E05               	movlw	5
  3321  009DF4  6E05               	movwf	btemp+5,c
  3322  009DF6  6A06               	clrf	btemp+6,c
  3323  009DF8  6A07               	clrf	btemp+7,c
  3324  009DFA  0EAE               	movlw	low (?a_GetPGD_PCO+1)
  3325  009DFC  6EE9               	movwf	fsr0l,c
  3326  009DFE  0E00               	movlw	high (?a_GetPGD_PCO+1)
  3327  009E00  6EEA               	movwf	fsr0h,c
  3328  009E02  EC64  F007         	call	aldiv_f
  3329                           ;pomiar.c: 1326: if((25+m/100)>55) p=55;
  3330  009E06  0E64               	movlw	100
  3331  009E08  6E04               	movwf	btemp+4,c
  3332  009E0A  6A05               	clrf	btemp+5,c
  3333  009E0C  6A06               	clrf	btemp+6,c
  3334  009E0E  6A07               	clrf	btemp+7,c
  3335  009E10  C0AE  F000         	movff	?a_GetPGD_PCO+1,btemp
  3336  009E14  C0AF  F001         	movff	?a_GetPGD_PCO+2,btemp+1
  3337  009E18  C0B0  F002         	movff	?a_GetPGD_PCO+3,btemp+2
  3338  009E1C  C0B1  F003         	movff	?a_GetPGD_PCO+4,btemp+3
  3339  009E20  EC3D  F006         	call	aldiv
  3340  009E24  0E19               	movlw	25
  3341  009E26  2400               	addwf	btemp,w,c
  3342  009E28  6E04               	movwf	btemp+4,c
  3343  009E2A  0E00               	movlw	0
  3344  009E2C  2001               	addwfc	btemp+1,w,c
  3345  009E2E  6E05               	movwf	btemp+5,c
  3346  009E30  0E00               	movlw	0
  3347  009E32  2002               	addwfc	btemp+2,w,c
  3348  009E34  6E06               	movwf	btemp+6,c
  3349  009E36  0E00               	movlw	0
  3350  009E38  2003               	addwfc	btemp+3,w,c
  3351  009E3A  6E07               	movwf	btemp+7,c
  3352  009E3C  5007               	movf	btemp+7,w,c
  3353  009E3E  0A80               	xorlw	128
  3354  009E40  0F80               	addlw	128
  3355  009E42  E108               	bnz	u2535
  3356  009E44  0E00               	movlw	0
  3357  009E46  5C06               	subwf	btemp+6,w,c
  3358  009E48  E105               	bnz	u2535
  3359  009E4A  0E00               	movlw	0
  3360  009E4C  5C05               	subwf	btemp+5,w,c
  3361  009E4E  E102               	bnz	u2535
  3362  009E50  0E38               	movlw	56
  3363  009E52  5C04               	subwf	btemp+4,w,c
  3364  009E54                     u2535:
  3365  009E54  E302               	bnc	l382
  3366  009E56  0E37               	movlw	55
  3367  009E58  D02D               	goto	L34
  3368  009E5A                     l382:
  3369                           ;pomiar.c: 1327: else
  3370  009E5A  0E64               	movlw	100
  3371  009E5C  6E04               	movwf	btemp+4,c
  3372  009E5E  6A05               	clrf	btemp+5,c
  3373  009E60  6A06               	clrf	btemp+6,c
  3374  009E62  6A07               	clrf	btemp+7,c
  3375  009E64  C0AE  F000         	movff	?a_GetPGD_PCO+1,btemp
  3376  009E68  C0AF  F001         	movff	?a_GetPGD_PCO+2,btemp+1
  3377  009E6C  C0B0  F002         	movff	?a_GetPGD_PCO+3,btemp+2
  3378  009E70  C0B1  F003         	movff	?a_GetPGD_PCO+4,btemp+3
  3379  009E74  EC3D  F006         	call	aldiv
  3380  009E78  5000               	movf	btemp,w,c
  3381  009E7A  0F19               	addlw	25
  3382  009E7C  0100               	movlb	__Lparam shr (0+8)
  3383  009E7E  6FAD               	movwf	?a_GetPGD_PCO^(__Lparam& (0+65280)),b
  3384                           ;pomiar.c: 1330: if(p<25) p=25;
  3385  009E80  0E19               	movlw	25
  3386  009E82  61AD               	cpfslt	?a_GetPGD_PCO^(__Lparam& (0+65280)),b
  3387  009E84  D001               	goto	l384
  3388  009E86  6FAD               	movwf	?a_GetPGD_PCO^(__Lparam& (0+65280)),b
  3389  009E88                     l384:
  3390                           ;pomiar.c: 1331: if((p+DtKNF.prop)<55) p=p+DtKNF
      +                          .prop;
  3391  009E88  C2CF  FFE8         	movff	_DtKNF+33,wreg
  3392  009E8C  C0AD  F000         	movff	?a_GetPGD_PCO,btemp
  3393  009E90  6A01               	clrf	btemp+1,c
  3394  009E92  2600               	addwf	btemp,f,c
  3395  009E94  0E00               	movlw	0
  3396  009E96  2201               	addwfc	btemp+1,f,c
  3397  009E98  5001               	movf	btemp+1,w,c
  3398  009E9A  0A80               	xorlw	128
  3399  009E9C  0F80               	addlw	-128
  3400  009E9E  0E37               	movlw	55
  3401  009EA0  B4D8               	btfsc	status,2,c
  3402  009EA2  5C00               	subwf	btemp,w,c
  3403  009EA4  E205               	bc	l385
  3404  009EA6  C2CF  FFE8         	movff	_DtKNF+33,wreg
  3405  009EAA  0100               	movlb	__Lparam shr (0+8)
  3406  009EAC  27AD               	addwf	?a_GetPGD_PCO^(__Lparam& (0+65280)),f,b
  3407  009EAE  D003               	goto	l383
  3408  009EB0                     l385:
  3409                           ;pomiar.c: 1332: else p=55;
  3410  009EB0  0E37               	movlw	55
  3411  009EB2  0100               	movlb	__Lparam shr (0+8)
  3412  009EB4                     L34:
  3413  009EB4  6FAD               	movwf	?a_GetPGD_PCO^(__Lparam& (0+65280)),b
  3414  009EB6                     l383:
  3415                           ;pomiar.c: 1333: }
  3416  009EB6  0E18               	movlw	24
  3417  009EB8  0102               	movlb	(_DtKNF+39) shr (0+8)
  3418  009EBA  65D5               	cpfsgt	(_DtKNF+39)& (0+255),b
  3419  009EBC  D008               	goto	l387
  3420                           ;pomiar.c: 1335: {
  3421  009EBE  0100               	movlb	__Lparam shr (0+8)
  3422  009EC0  51AD               	movf	?a_GetPGD_PCO^(__Lparam& (0+65280)),w
  3423  009EC2  0102               	movlb	(_DtKNF+39) shr (0+8)
  3424  009EC4  61D5               	cpfslt	(_DtKNF+39)& (0+255),b
  3425  009EC6  D006               	goto	l389
  3426  009EC8  C2D5  F0AD         	movff	_DtKNF+39,?a_GetPGD_PCO
  3427                           ;pomiar.c: 1337: }
  3428  009ECC  D003               	goto	l389
  3429  009ECE                     l387:
  3430                           ;pomiar.c: 1338: else p=25;
  3431  009ECE  0E19               	movlw	25
  3432  009ED0  0100               	movlb	__Lparam shr (0+8)
  3433  009ED2  6FAD               	movwf	?a_GetPGD_PCO^(__Lparam& (0+65280)),b
  3434  009ED4                     l389:
  3435                           ;pomiar.c: 1339: if(M._AKTYWNE_PGD2&&RdPrt(22))
  3436  009ED4  0103               	movlb	(_M+3) shr (0+8)
  3437  009ED6  A509               	btfss	(_M+3)& (0+255),2,b
  3438  009ED8  D01B               	goto	l390
  3439  009EDA  0E16               	movlw	22
  3440  009EDC  EC1C  F07A         	call	_RdPrt
  3441  009EE0  E317               	bnc	l390
  3442                           ;pomiar.c: 1340: {
  3443  009EE2  C2D4  FFE8         	movff	_DtKNF+38,wreg
  3444  009EE6  C0AD  F000         	movff	?a_GetPGD_PCO,btemp
  3445  009EEA  6A01               	clrf	btemp+1,c
  3446  009EEC  5E00               	subwf	btemp,f,c
  3447  009EEE  0E00               	movlw	0
  3448  009EF0  5A01               	subwfb	btemp+1,f,c
  3449  009EF2  5001               	movf	btemp+1,w,c
  3450  009EF4  0A80               	xorlw	128
  3451  009EF6  0F80               	addlw	-128
  3452  009EF8  0E1A               	movlw	26
  3453  009EFA  B4D8               	btfsc	status,2,c
  3454  009EFC  5C00               	subwf	btemp,w,c
  3455  009EFE  E305               	bnc	l391
  3456  009F00  C2D4  FFE8         	movff	_DtKNF+38,wreg
  3457  009F04  0100               	movlb	__Lparam shr (0+8)
  3458  009F06  5FAD               	subwf	?a_GetPGD_PCO^(__Lparam& (0+65280)),f,b
  3459  009F08  D003               	goto	l390
  3460  009F0A                     l391:
  3461                           ;pomiar.c: 1342: else p=25;
  3462  009F0A  0E19               	movlw	25
  3463  009F0C  0100               	movlb	__Lparam shr (0+8)
  3464  009F0E  6FAD               	movwf	?a_GetPGD_PCO^(__Lparam& (0+65280)),b
  3465  009F10                     l390:
  3466                           ;pomiar.c: 1343: }
  3467  009F10  0100               	movlb	__Lparam shr (0+8)
  3468  009F12  51AD               	movf	?a_GetPGD_PCO^(__Lparam& (0+65280)),w
  3469  009F14  0012               	return	
  3470  009F16                     l381:
  3471                           ;pomiar.c: 1346: else
  3472  009F16  0E19               	movlw	25
  3473  009F18  0100               	movlb	__Lparam shr (0+8)
  3474  009F1A  6FAD               	movwf	?a_GetPGD_PCO^(__Lparam& (0+65280)),b
  3475                           ;pomiar.c: 1349: if((p+DtKNF.prop)<55) p=p+DtKNF
      +                          .prop;
  3476  009F1C  C2CF  F000         	movff	_DtKNF+33,btemp
  3477  009F20  6A01               	clrf	btemp+1,c
  3478  009F22  2600               	addwf	btemp,f,c
  3479  009F24  0E00               	movlw	0
  3480  009F26  2201               	addwfc	btemp+1,f,c
  3481  009F28  5001               	movf	btemp+1,w,c
  3482  009F2A  0A80               	xorlw	128
  3483  009F2C  0F80               	addlw	-128
  3484  009F2E  0E37               	movlw	55
  3485  009F30  B4D8               	btfsc	status,2,c
  3486  009F32  5C00               	subwf	btemp,w,c
  3487  009F34  E204               	bc	l394
  3488  009F36  C2CF  FFE8         	movff	_DtKNF+33,wreg
  3489  009F3A  27AD               	addwf	?a_GetPGD_PCO^(__Lparam& (0+65280)),f,b
  3490  009F3C  D003               	goto	l395
  3491  009F3E                     l394:
  3492                           ;pomiar.c: 1350: else p=55;
  3493  009F3E  0E37               	movlw	55
  3494  009F40  0100               	movlb	__Lparam shr (0+8)
  3495  009F42  6FAD               	movwf	?a_GetPGD_PCO^(__Lparam& (0+65280)),b
  3496  009F44                     l395:
  3497                           ;pomiar.c: 1351: if(DtKNF.pgmx>=25)
  3498  009F44  0E18               	movlw	24
  3499  009F46  0102               	movlb	(_DtKNF+39) shr (0+8)
  3500  009F48  65D5               	cpfsgt	(_DtKNF+39)& (0+255),b
  3501  009F4A  D008               	goto	l396
  3502                           ;pomiar.c: 1352: {
  3503  009F4C  0100               	movlb	__Lparam shr (0+8)
  3504  009F4E  51AD               	movf	?a_GetPGD_PCO^(__Lparam& (0+65280)),w
  3505  009F50  0102               	movlb	(_DtKNF+39) shr (0+8)
  3506  009F52  61D5               	cpfslt	(_DtKNF+39)& (0+255),b
  3507  009F54  D006               	goto	l398
  3508  009F56  C2D5  F0AD         	movff	_DtKNF+39,?a_GetPGD_PCO
  3509                           ;pomiar.c: 1354: }
  3510  009F5A  D003               	goto	l398
  3511  009F5C                     l396:
  3512                           ;pomiar.c: 1355: else p=25;
  3513  009F5C  0E19               	movlw	25
  3514  009F5E  0100               	movlb	__Lparam shr (0+8)
  3515  009F60  6FAD               	movwf	?a_GetPGD_PCO^(__Lparam& (0+65280)),b
  3516  009F62                     l398:
  3517                           ;pomiar.c: 1356: if(M._AKTYWNE_PGD2&&RdPrt(22))
  3518  009F62  0103               	movlb	(_M+3) shr (0+8)
  3519  009F64  A509               	btfss	(_M+3)& (0+255),2,b
  3520  009F66  D01B               	goto	l399
  3521  009F68  0E16               	movlw	22
  3522  009F6A  EC1C  F07A         	call	_RdPrt
  3523  009F6E  E317               	bnc	l399
  3524                           ;pomiar.c: 1357: {
  3525  009F70  C2D4  FFE8         	movff	_DtKNF+38,wreg
  3526  009F74  C0AD  F000         	movff	?a_GetPGD_PCO,btemp
  3527  009F78  6A01               	clrf	btemp+1,c
  3528  009F7A  5E00               	subwf	btemp,f,c
  3529  009F7C  0E00               	movlw	0
  3530  009F7E  5A01               	subwfb	btemp+1,f,c
  3531  009F80  5001               	movf	btemp+1,w,c
  3532  009F82  0A80               	xorlw	128
  3533  009F84  0F80               	addlw	-128
  3534  009F86  0E1A               	movlw	26
  3535  009F88  B4D8               	btfsc	status,2,c
  3536  009F8A  5C00               	subwf	btemp,w,c
  3537  009F8C  E305               	bnc	l400
  3538  009F8E  C2D4  FFE8         	movff	_DtKNF+38,wreg
  3539  009F92  0100               	movlb	__Lparam shr (0+8)
  3540  009F94  5FAD               	subwf	?a_GetPGD_PCO^(__Lparam& (0+65280)),f,b
  3541  009F96  D003               	goto	l399
  3542  009F98                     l400:
  3543                           ;pomiar.c: 1359: else p=25;
  3544  009F98  0E19               	movlw	25
  3545  009F9A  0100               	movlb	__Lparam shr (0+8)
  3546  009F9C  6FAD               	movwf	?a_GetPGD_PCO^(__Lparam& (0+65280)),b
  3547  009F9E                     l399:
  3548                           ;pomiar.c: 1360: }
  3549  009F9E  0100               	movlb	__Lparam shr (0+8)
  3550  009FA0  51AD               	movf	?a_GetPGD_PCO^(__Lparam& (0+65280)),w
  3551  009FA2  0012               	return	
  3552  009FA4                     l380:
  3553                           ;pomiar.c: 1364: else
  3554  009FA4  0E19               	movlw	25
  3555  009FA6  0100               	movlb	__Lparam shr (0+8)
  3556  009FA8  6FAD               	movwf	?a_GetPGD_PCO^(__Lparam& (0+65280)),b
  3557                           ;pomiar.c: 1367: if((p+DtKNF.prop)<55) p=p+DtKNF
      +                          .prop;
  3558  009FAA  C2CF  F000         	movff	_DtKNF+33,btemp
  3559  009FAE  6A01               	clrf	btemp+1,c
  3560  009FB0  2600               	addwf	btemp,f,c
  3561  009FB2  0E00               	movlw	0
  3562  009FB4  2201               	addwfc	btemp+1,f,c
  3563  009FB6  5001               	movf	btemp+1,w,c
  3564  009FB8  0A80               	xorlw	128
  3565  009FBA  0F80               	addlw	-128
  3566  009FBC  0E37               	movlw	55
  3567  009FBE  B4D8               	btfsc	status,2,c
  3568  009FC0  5C00               	subwf	btemp,w,c
  3569  009FC2  E204               	bc	l403
  3570  009FC4  C2CF  FFE8         	movff	_DtKNF+33,wreg
  3571  009FC8  27AD               	addwf	?a_GetPGD_PCO^(__Lparam& (0+65280)),f,b
  3572  009FCA  D003               	goto	l404
  3573  009FCC                     l403:
  3574                           ;pomiar.c: 1368: else p=55;
  3575  009FCC  0E37               	movlw	55
  3576  009FCE  0100               	movlb	__Lparam shr (0+8)
  3577  009FD0  6FAD               	movwf	?a_GetPGD_PCO^(__Lparam& (0+65280)),b
  3578  009FD2                     l404:
  3579                           ;pomiar.c: 1369: if(DtKNF.pgmx>=25)
  3580  009FD2  0E18               	movlw	24
  3581  009FD4  0102               	movlb	(_DtKNF+39) shr (0+8)
  3582  009FD6  65D5               	cpfsgt	(_DtKNF+39)& (0+255),b
  3583  009FD8  D008               	goto	l405
  3584                           ;pomiar.c: 1370: {
  3585  009FDA  0100               	movlb	__Lparam shr (0+8)
  3586  009FDC  51AD               	movf	?a_GetPGD_PCO^(__Lparam& (0+65280)),w
  3587  009FDE  0102               	movlb	(_DtKNF+39) shr (0+8)
  3588  009FE0  61D5               	cpfslt	(_DtKNF+39)& (0+255),b
  3589  009FE2  D006               	goto	l407
  3590  009FE4  C2D5  F0AD         	movff	_DtKNF+39,?a_GetPGD_PCO
  3591                           ;pomiar.c: 1372: }
  3592  009FE8  D003               	goto	l407
  3593  009FEA                     l405:
  3594                           ;pomiar.c: 1373: else p=25;
  3595  009FEA  0E19               	movlw	25
  3596  009FEC  0100               	movlb	__Lparam shr (0+8)
  3597  009FEE  6FAD               	movwf	?a_GetPGD_PCO^(__Lparam& (0+65280)),b
  3598  009FF0                     l407:
  3599                           ;pomiar.c: 1374: if(M._AKTYWNE_PGD2&&RdPrt(22))
  3600  009FF0  0103               	movlb	(_M+3) shr (0+8)
  3601  009FF2  A509               	btfss	(_M+3)& (0+255),2,b
  3602  009FF4  D01B               	goto	l408
  3603  009FF6  0E16               	movlw	22
  3604  009FF8  EC1C  F07A         	call	_RdPrt
  3605  009FFC  E317               	bnc	l408
  3606                           ;pomiar.c: 1375: {
  3607  009FFE  C2D4  FFE8         	movff	_DtKNF+38,wreg
  3608  00A002  C0AD  F000         	movff	?a_GetPGD_PCO,btemp
  3609  00A006  6A01               	clrf	btemp+1,c
  3610  00A008  5E00               	subwf	btemp,f,c
  3611  00A00A  0E00               	movlw	0
  3612  00A00C  5A01               	subwfb	btemp+1,f,c
  3613  00A00E  5001               	movf	btemp+1,w,c
  3614  00A010  0A80               	xorlw	128
  3615  00A012  0F80               	addlw	-128
  3616  00A014  0E1A               	movlw	26
  3617  00A016  B4D8               	btfsc	status,2,c
  3618  00A018  5C00               	subwf	btemp,w,c
  3619  00A01A  E305               	bnc	l409
  3620  00A01C  C2D4  FFE8         	movff	_DtKNF+38,wreg
  3621  00A020  0100               	movlb	__Lparam shr (0+8)
  3622  00A022  5FAD               	subwf	?a_GetPGD_PCO^(__Lparam& (0+65280)),f,b
  3623  00A024  D003               	goto	l408
  3624  00A026                     l409:
  3625                           ;pomiar.c: 1377: else p=25;
  3626  00A026  0E19               	movlw	25
  3627  00A028  0100               	movlb	__Lparam shr (0+8)
  3628  00A02A  6FAD               	movwf	?a_GetPGD_PCO^(__Lparam& (0+65280)),b
  3629  00A02C                     l408:
  3630                           ;pomiar.c: 1378: }
  3631  00A02C  0100               	movlb	__Lparam shr (0+8)
  3632  00A02E  51AD               	movf	?a_GetPGD_PCO^(__Lparam& (0+65280)),w
  3633  00A030  0012               	return	
  3634                           ;pomiar.c: 1380: }
  3635  00A032                     __end_of_GetPGD_PCO:
  3636                           ;pomiar.c: 1385: unsigned char ReadPCO(void)
  3637                           ;pomiar.c: 1386: {
  3638  00A032                     _ReadPCO:
  3639  000000                     
  3640                           ;pomiar.c: 1387: if(!M._AKTYWNE_PGD)
  3641  00A032  0103               	movlb	(_M+3) shr (0+8)
  3642  00A034  A109               	btfss	(_M+3)& (0+255),0,b
  3643                           ;pomiar.c: 1388: {
  3644  00A036  EF2C  F042         	goto	_ReadEEPCO	;wreg free
  3645                           ;pomiar.c: 1391: else
  3646  00A03A  EF44  F042         	goto	_ReadEEPPGD	;wreg free
  3647                           ;pomiar.c: 1394: }
  3648  00A03E                     __end_of_ReadPCO:
  3649                           ;pomiar.c: 1398: void WritePCO(void)
  3650                           ;pomiar.c: 1399: {
  3651  00A03E                     _WritePCO:
  3652  000000                     
  3653                           ;pomiar.c: 1400: if(DtCO._newPCO&&RTdS(6)>=10)
  3654  00A03E  0100               	movlb	(_DtCO+1) shr (0+8)
  3655  00A040  AF7E               	btfss	(_DtCO+1)& (0+255),7,b
  3656  00A042  0012               	return	
  3657  00A044  0E06               	movlw	6
  3658  00A046  EC45  F07E         	call	_RTdS
  3659  00A04A  6E00               	movwf	btemp,c
  3660  00A04C  0E0A               	movlw	10
  3661  00A04E  5C00               	subwf	btemp,w,c
  3662  00A050  A0D8               	btfss	status,0,c
  3663  00A052  0012               	return	
  3664                           ;pomiar.c: 1401: {
  3665  00A054  0100               	movlb	(_DtCO+1) shr (0+8)
  3666  00A056  9F7E               	bcf	(_DtCO+1)& (0+255),7,b
  3667                           ;pomiar.c: 1403: StartRTdS(6);
  3668  00A058  0E06               	movlw	6
  3669  00A05A  EC33  F07E         	call	_StartRTdS
  3670                           ;pomiar.c: 1404: if(!M._AKTYWNE_PGD)
  3671  00A05E  0103               	movlb	(_M+3) shr (0+8)
  3672  00A060  A109               	btfss	(_M+3)& (0+255),0,b
  3673                           ;pomiar.c: 1405: {
  3674  00A062  EF2E  F042         	goto	_WriteEEPCO	;wreg free
  3675                           ;pomiar.c: 1407: }
  3676                           ;pomiar.c: 1408: else
  3677  00A066  EF47  F042         	goto	_WriteEEPPGD	;wreg free
  3678                           ;pomiar.c: 1411: }
  3679  00A06A                     __end_of_WritePCO:
  3680                           ;pomiar.c: 1416: void PomiarPCO(void)
  3681                           ;pomiar.c: 1417: {
  3682  00A06A                     _PomiarPCO:
  3683  000000                     
  3684                           ;pomiar.c: 1418: static unsigned char pnst;
  3685  00A06A  0103               	movlb	(_M+8) shr (0+8)
  3686  00A06C  B50E               	btfsc	(_M+8)& (0+255),2,b
  3687  00A06E  0012               	return	
  3688                           ;pomiar.c: 1422: {
  3689                           ;pomiar.c: 1424: }
  3690  00A070  0103               	movlb	(_M+3) shr (0+8)
  3691  00A072  B109               	btfsc	(_M+3)& (0+255),0,b
  3692  00A074  D003               	goto	l420
  3693                           ;pomiar.c: 1428: {
  3694  00A076  EC64  F03E         	call	_SetMinMaxPCO	;wreg free
  3695                           ;pomiar.c: 1430: }
  3696  00A07A  D002               	goto	l421
  3697  00A07C                     l420:
  3698                           ;pomiar.c: 1431: else
  3699  00A07C  ECA2  F03E         	call	_SetMinMaxPGD	;wreg free
  3700  00A080                     l421:
  3701                           ;pomiar.c: 1434: }
  3702  00A080  0E07               	movlw	7
  3703  00A082  0100               	movlb	__Lparam shr (0+8)
  3704  00A084  6FAE               	movwf	?_GetBit2^(__Lparam& (0+65280)),b
  3705  00A086  C37B  FFE8         	movff	_RSDT1+78,wreg
  3706  00A08A  ECB9  F003         	call	_GetBit2
  3707  00A08E  E227               	bc	l422
  3708  00A090  0103               	movlb	_MGSD shr (0+8)
  3709  00A092  ADAA               	btfss	_MGSD& (0+255),6,b
  3710  00A094  D024               	goto	l422
  3711  00A096  0103               	movlb	(_M+4) shr (0+8)
  3712  00A098  B50A               	btfsc	(_M+4)& (0+255),2,b
  3713  00A09A  D021               	goto	l422
  3714  00A09C  0103               	movlb	(_M+4) shr (0+8)
  3715  00A09E  B30A               	btfsc	(_M+4)& (0+255),1,b
  3716  00A0A0  D01E               	goto	l422
  3717                           ;pomiar.c: 1437: {
  3718  00A0A2  C378  FE74         	movff	_RSDT1+75,F1735
  3719                           ;pomiar.c: 1439: if(pnst<DtCO.minPCO) pnst=DtCO.
      +                          minPCO;
  3720  00A0A6  C083  FFE8         	movff	_DtCO+6,wreg
  3721  00A0AA  010E               	movlb	F1735 shr (0+8)
  3722  00A0AC  6174               	cpfslt	F1735& (0+255),b
  3723  00A0AE  D002               	goto	l423
  3724  00A0B0  C083  FE74         	movff	_DtCO+6,F1735
  3725  00A0B4                     l423:
  3726                           ;pomiar.c: 1440: if(pnst>DtCO.maxPCO) pnst=DtCO.
      +                          maxPCO;
  3727  00A0B4  CE74  FFE8         	movff	F1735,wreg
  3728  00A0B8  0100               	movlb	(_DtCO+7) shr (0+8)
  3729  00A0BA  6184               	cpfslt	(_DtCO+7)& (0+255),b
  3730  00A0BC  D002               	goto	l424
  3731  00A0BE  C084  FE74         	movff	_DtCO+7,F1735
  3732  00A0C2                     l424:
  3733                           ;pomiar.c: 1441: if(DtCO.PCO!=pnst)
  3734  00A0C2  C081  FFE8         	movff	_DtCO+4,wreg
  3735  00A0C6  010E               	movlb	F1735 shr (0+8)
  3736  00A0C8  1974               	xorwf	F1735& (0+255),w,b
  3737  00A0CA  E007               	bz	l425
  3738                           ;pomiar.c: 1442: {
  3739  00A0CC  CE74  F081         	movff	F1735,_DtCO+4
  3740                           ;pomiar.c: 1444: DtCO._newPCO=1;
  3741  00A0D0  0100               	movlb	(_DtCO+1) shr (0+8)
  3742  00A0D2  8F7E               	bsf	(_DtCO+1)& (0+255),7,b
  3743                           ;pomiar.c: 1445: StartRTdS(6);
  3744  00A0D4  0E06               	movlw	6
  3745  00A0D6  EC33  F07E         	call	_StartRTdS
  3746  00A0DA                     l425:
  3747                           ;pomiar.c: 1446: }
  3748  00A0DA  DFB1               	call	_WritePCO	;wreg free
  3749  00A0DC  D011               	goto	l428
  3750                           ;pomiar.c: 1448: RSDT1.outPCO=DtCO.PCO;
  3751                           ;pomiar.c: 1449: }
  3752  00A0DE                     l422:
  3753                           ;pomiar.c: 1450: else
  3754  00A0DE  DFA9               	call	_ReadPCO	;wreg free
  3755  00A0E0  CFE8 F081          	movff	wreg,_DtCO+4
  3756                           ;pomiar.c: 1453: if(pnst<DtCO.minPCO) pnst=DtCO.
      +                          minPCO;
  3757  00A0E4  C083  FFE8         	movff	_DtCO+6,wreg
  3758  00A0E8  010E               	movlb	F1735 shr (0+8)
  3759  00A0EA  6174               	cpfslt	F1735& (0+255),b
  3760  00A0EC  D002               	goto	l427
  3761  00A0EE  C083  FE74         	movff	_DtCO+6,F1735
  3762  00A0F2                     l427:
  3763                           ;pomiar.c: 1454: if(pnst>DtCO.maxPCO) pnst=DtCO.
      +                          maxPCO;
  3764  00A0F2  CE74  FFE8         	movff	F1735,wreg
  3765  00A0F6  0100               	movlb	(_DtCO+7) shr (0+8)
  3766  00A0F8  6184               	cpfslt	(_DtCO+7)& (0+255),b
  3767  00A0FA  D002               	goto	l428
  3768  00A0FC  C084  FE74         	movff	_DtCO+7,F1735
  3769  00A100                     l428:
  3770                           ;pomiar.c: 1455: RSDT1.outPCO=DtCO.PCO;
  3771  00A100  C081  F337         	movff	_DtCO+4,_RSDT1+10
  3772                           ;pomiar.c: 1458: }
  3773  00A104  0103               	movlb	(_M+3) shr (0+8)
  3774  00A106  A109               	btfss	(_M+3)& (0+255),0,b
  3775  00A108  D006               	goto	l429
  3776                           ;pomiar.c: 1461: {
  3777  00A10A  0100               	movlb	_DtZW shr (0+8)
  3778  00A10C  A363               	btfss	_DtZW& (0+255),1,b
  3779  00A10E  D003               	goto	l429
  3780  00A110  DCCF               	call	_GetPGD_PCO	;wreg free
  3781  00A112  CFE8 F085          	movff	wreg,_DtCO+8
  3782  00A116                     l429:
  3783                           ;pomiar.c: 1463: }
  3784  00A116  DC2B               	call	_SetModPCO	;wreg free
  3785                           ;pomiar.c: 1465: RSDT1.outSETPmax=M.SETPmax;
  3786  00A118  C32B  F34E         	movff	_M+37,_RSDT1+33
  3787                           ;pomiar.c: 1467: if(M.CONTSETP<=DtCO.PPCO)
  3788  00A11C  C329  FFE8         	movff	_M+35,wreg
  3789  00A120  0100               	movlb	(_DtCO+5) shr (0+8)
  3790  00A122  5D82               	subwf	(_DtCO+5)& (0+255),w,b
  3791  00A124  E318               	bnc	l431
  3792                           ;pomiar.c: 1468: {
  3793  00A126  C329  FFE8         	movff	_M+35,wreg
  3794  00A12A  C082  F000         	movff	_DtCO+5,btemp
  3795  00A12E  6A01               	clrf	btemp+1,c
  3796  00A130  5E00               	subwf	btemp,f,c
  3797  00A132  0E00               	movlw	0
  3798  00A134  5A01               	subwfb	btemp+1,f,c
  3799  00A136  5001               	movf	btemp+1,w,c
  3800  00A138  0A80               	xorlw	128
  3801  00A13A  0F80               	addlw	-128
  3802  00A13C  0E04               	movlw	4
  3803  00A13E  B4D8               	btfsc	status,2,c
  3804  00A140  5C00               	subwf	btemp,w,c
  3805  00A142  E303               	bnc	l432
  3806                           ;pomiar.c: 1470: {
  3807  00A144  0100               	movlb	__Lparam shr (0+8)
  3808  00A146  6BA9               	clrf	?a_PomiarPCO^(__Lparam& (0+65280)),b	;vola
      +                          tile
  3809                           ;pomiar.c: 1472: }
  3810  00A148  D009               	goto	l434
  3811  00A14A                     l432:
  3812                           ;pomiar.c: 1473: else
  3813  00A14A  C329  FFE8         	movff	_M+35,wreg
  3814  00A14E  0100               	movlb	(_DtCO+5) shr (0+8)
  3815  00A150  5D82               	subwf	(_DtCO+5)& (0+255),w,b
  3816  00A152  0803               	sublw	3
  3817  00A154  D001               	goto	L12
  3818                           ;pomiar.c: 1476: }
  3819  00A156                     l431:
  3820                           ;pomiar.c: 1478: else
  3821  00A156  0E03               	movlw	3
  3822  00A158                     L12:
  3823  00A158  0100               	movlb	__Lparam shr (0+8)
  3824  00A15A  6FA9               	movwf	?a_PomiarPCO^(__Lparam& (0+65280)),b	;vol
      +                          atile
  3825  00A15C                     l434:
  3826                           ;pomiar.c: 1481: }
  3827  00A15C  0100               	movlb	__Lparam shr (0+8)
  3828  00A15E  51A9               	movf	?a_PomiarPCO^(__Lparam& (0+65280)),w	;vola
      +                          tile
  3829  00A160  0103               	movlb	(_M+35) shr (0+8)
  3830  00A162  5D29               	subwf	(_M+35)& (0+255),w,b
  3831  00A164  EC31  F002         	call	_ReturnACfromNTC
  3832  00A168  CFE8 F08D          	movff	wreg,_DtCO+16
  3833                           ;pomiar.c: 1483: DtCO.MAD_CO=ReturnACfromNTC(M.C
      +                          ONTSETP-bnc-9);
  3834  00A16C  0100               	movlb	__Lparam shr (0+8)
  3835  00A16E  51A9               	movf	?a_PomiarPCO^(__Lparam& (0+65280)),w	;vola
      +                          tile
  3836  00A170  0103               	movlb	(_M+35) shr (0+8)
  3837  00A172  5D29               	subwf	(_M+35)& (0+255),w,b
  3838  00A174  0FF7               	addlw	-9
  3839  00A176  EC31  F002         	call	_ReturnACfromNTC
  3840  00A17A  CFE8 F08C          	movff	wreg,_DtCO+15
  3841                           ;pomiar.c: 1484: }
  3842  00A17E  0012               	return	
  3843  00A180                     __end_of_PomiarPCO:
  3844                           ;pomiar.c: 1488: void WritePCW(void)
  3845                           ;pomiar.c: 1489: {
  3846  00A180                     _WritePCW:
  3847  000000                     
  3848                           ;pomiar.c: 1490: if(DtCW._newPCW&&RTdS(7)>=10)
  3849  00A180  0100               	movlb	(_DtCW+1) shr (0+8)
  3850  00A182  A16F               	btfss	(_DtCW+1)& (0+255),0,b
  3851  00A184  0012               	return	
  3852  00A186  0E07               	movlw	7
  3853  00A188  EC45  F07E         	call	_RTdS
  3854  00A18C  6E00               	movwf	btemp,c
  3855  00A18E  0E0A               	movlw	10
  3856  00A190  5C00               	subwf	btemp,w,c
  3857  00A192  A0D8               	btfss	status,0,c
  3858  00A194  0012               	return	
  3859                           ;pomiar.c: 1491: {
  3860  00A196  0100               	movlb	(_DtCW+1) shr (0+8)
  3861  00A198  916F               	bcf	(_DtCW+1)& (0+255),0,b
  3862                           ;pomiar.c: 1493: StartRTdS(7);
  3863  00A19A  0E07               	movlw	7
  3864  00A19C  EC33  F07E         	call	_StartRTdS
  3865                           ;pomiar.c: 1494: WriteEEPCW();
  3866  00A1A0  EF13  F042         	goto	_WriteEEPCW	;wreg free
  3867                           ;pomiar.c: 1495: }
  3868  00A1A4                     __end_of_WritePCW:
  3869                           ;pomiar.c: 1499: void SetModPCW(void)
  3870                           ;pomiar.c: 1500: {
  3871  00A1A4                     _SetModPCW:
  3872  000000                     
  3873                           ;pomiar.c: 1501: if(M._AKTYWNE_KNF) DtCW.PPCW=60
      +                          ;
  3874  00A1A4  0103               	movlb	(_M+3) shr (0+8)
  3875  00A1A6  A309               	btfss	(_M+3)& (0+255),1,b
  3876  00A1A8  D002               	goto	l438
  3877  00A1AA  0E3C               	movlw	60
  3878  00A1AC  D008               	goto	L13
  3879  00A1AE                     l438:
  3880                           ;pomiar.c: 1502: else
  3881  00A1AE  EE02  F0BC         	lfsr	0,_DtKNF+14
  3882  00A1B2  50EF               	movf	indf0,w,c
  3883  00A1B4  E107               	bnz	l440
  3884  00A1B6  0103               	movlb	_M shr (0+8)
  3885  00A1B8  A706               	btfss	_M& (0+255),3,b
  3886  00A1BA  D004               	goto	l440
  3887  00A1BC  0E46               	movlw	70
  3888  00A1BE                     L13:
  3889  00A1BE  CFE8 F072          	movff	wreg,_DtCW+4
  3890  00A1C2  D002               	goto	l439
  3891  00A1C4                     l440:
  3892                           ;pomiar.c: 1504: else DtCW.PPCW=DtCW.PCW;
  3893  00A1C4  C071  F072         	movff	_DtCW+3,_DtCW+4
  3894  00A1C8                     l439:
  3895                           ;pomiar.c: 1506: if(M._pob_DzCW)
  3896  00A1C8  0103               	movlb	_M shr (0+8)
  3897  00A1CA  AF06               	btfss	_M& (0+255),7,b
  3898  00A1CC  D003               	goto	l442
  3899                           ;pomiar.c: 1507: {
  3900  00A1CE  0E0A               	movlw	10
  3901  00A1D0  CFE8 F072          	movff	wreg,_DtCW+4
  3902  00A1D4                     l442:
  3903                           ;pomiar.c: 1509: }
  3904  00A1D4  C072  F33E         	movff	_DtCW+4,_RSDT1+17
  3905                           ;pomiar.c: 1511: }
  3906  00A1D8  0012               	return	
  3907  00A1DA                     __end_of_SetModPCW:
  3908                           ;pomiar.c: 1514: void PomiarPCW(void)
  3909                           ;pomiar.c: 1515: {
  3910  00A1DA                     _PomiarPCW:
  3911  000000                     
  3912                           ;pomiar.c: 1516: static unsigned char pnst;
  3913  00A1DA  D006               	goto	l445
  3914  00A1DC                     l446:
  3915  00A1DC  D00B               	goto	L39
  3916                           ;pomiar.c: 1521: {
  3917                           ;pomiar.c: 1523: {
  3918                           ;pomiar.c: 1525: DtCW.maxPCW=60;
  3919                           ;pomiar.c: 1526: break;
  3920  00A1DE                     l447:
  3921                           ;pomiar.c: 1527: }
  3922                           ;pomiar.c: 1529: {
  3923  00A1DE  0E23               	movlw	35
  3924  00A1E0  CFE8 F073          	movff	wreg,_DtCW+5
  3925                           ;pomiar.c: 1531: DtCW.maxPCW=65;
  3926  00A1E4  0E41               	movlw	65
  3927  00A1E6  D00A               	goto	L15
  3928                           ;pomiar.c: 1538: break;
  3929  00A1E8                     l445:
  3930  00A1E8  C2BC  FFE8         	movff	_DtKNF+14,wreg
  3931  00A1EC  0A00               	xorlw	0
  3932  00A1EE  E0F7               	bz	l447
  3933  00A1F0  0A03               	xorlw	3
  3934  00A1F2  E0F4               	bz	l446
  3935  00A1F4                     L39:
  3936                           ;pomiar.c: 1532: break;
  3937                           ;pomiar.c: 1533: }
  3938                           ;pomiar.c: 1535: {
  3939  00A1F4  0E1E               	movlw	30
  3940  00A1F6  CFE8 F073          	movff	wreg,_DtCW+5
  3941                           ;pomiar.c: 1537: DtCW.maxPCW=60;
  3942  00A1FA  0E3C               	movlw	60
  3943  00A1FC                     L15:
  3944  00A1FC  CFE8 F074          	movff	wreg,_DtCW+6
  3945                           ;pomiar.c: 1541: RSDT1.outPCWmn=DtCW.minPCW;
  3946  00A200  C073  F33B         	movff	_DtCW+5,_RSDT1+14
  3947                           ;pomiar.c: 1542: RSDT1.outPCWmx=DtCW.maxPCW;
  3948  00A204  C074  F33C         	movff	_DtCW+6,_RSDT1+15
  3949                           ;pomiar.c: 1543: if(!GetBit2(RSDT1.inSTAT0,7)&&M
      +                          GSD._CON&&!M._PW_START&&!M._RS_START)
  3950  00A208  0E07               	movlw	7
  3951  00A20A  0100               	movlb	__Lparam shr (0+8)
  3952  00A20C  6FAE               	movwf	?_GetBit2^(__Lparam& (0+65280)),b
  3953  00A20E  C37B  FFE8         	movff	_RSDT1+78,wreg
  3954  00A212  ECB9  F003         	call	_GetBit2
  3955  00A216  E235               	bc	l449
  3956  00A218  0103               	movlb	_MGSD shr (0+8)
  3957  00A21A  ADAA               	btfss	_MGSD& (0+255),6,b
  3958  00A21C  D032               	goto	l449
  3959  00A21E  0103               	movlb	(_M+4) shr (0+8)
  3960  00A220  B50A               	btfsc	(_M+4)& (0+255),2,b
  3961  00A222  D02F               	goto	l449
  3962  00A224  0103               	movlb	(_M+4) shr (0+8)
  3963  00A226  B30A               	btfsc	(_M+4)& (0+255),1,b
  3964  00A228  D02C               	goto	l449
  3965                           ;pomiar.c: 1544: {
  3966  00A22A  C379  FE75         	movff	_RSDT1+76,F1743
  3967                           ;pomiar.c: 1547: if(DtKNF.tpkt!=0)
  3968  00A22E  EE02  F0BC         	lfsr	0,_DtKNF+14
  3969  00A232  50EF               	movf	indf0,w,c
  3970  00A234  E008               	bz	l450
  3971                           ;pomiar.c: 1548: {
  3972  00A236  C073  FFE8         	movff	_DtCW+5,wreg
  3973  00A23A  010E               	movlb	F1743 shr (0+8)
  3974  00A23C  6175               	cpfslt	F1743& (0+255),b
  3975  00A23E  D00C               	goto	l452
  3976  00A240  C073  FE75         	movff	_DtCW+5,F1743
  3977                           ;pomiar.c: 1550: }
  3978  00A244  D009               	goto	l452
  3979  00A246                     l450:
  3980                           ;pomiar.c: 1551: else
  3981  00A246  C073  FFE8         	movff	_DtCW+5,wreg
  3982  00A24A  010E               	movlb	F1743 shr (0+8)
  3983  00A24C  6175               	cpfslt	F1743& (0+255),b
  3984  00A24E  D004               	goto	l452
  3985  00A250  0100               	movlb	(_DtCW+5) shr (0+8)
  3986  00A252  0573               	decf	(_DtCW+5)& (0+255),w,b
  3987  00A254  CFE8 FE75          	movff	wreg,F1743
  3988  00A258                     l452:
  3989                           ;pomiar.c: 1554: }
  3990  00A258  CE75  FFE8         	movff	F1743,wreg
  3991  00A25C  0100               	movlb	(_DtCW+6) shr (0+8)
  3992  00A25E  6174               	cpfslt	(_DtCW+6)& (0+255),b
  3993  00A260  D002               	goto	l454
  3994  00A262  C074  FE75         	movff	_DtCW+6,F1743
  3995  00A266                     l454:
  3996                           ;pomiar.c: 1556: if(DtCW.PCW!=pnst)
  3997  00A266  C071  FFE8         	movff	_DtCW+3,wreg
  3998  00A26A  010E               	movlb	F1743 shr (0+8)
  3999  00A26C  1975               	xorwf	F1743& (0+255),w,b
  4000  00A26E  E007               	bz	l455
  4001                           ;pomiar.c: 1557: {
  4002  00A270  CE75  F071         	movff	F1743,_DtCW+3
  4003                           ;pomiar.c: 1559: DtCW._newPCW=1;
  4004  00A274  0100               	movlb	(_DtCW+1) shr (0+8)
  4005  00A276  816F               	bsf	(_DtCW+1)& (0+255),0,b
  4006                           ;pomiar.c: 1560: StartRTdS(7);
  4007  00A278  0E07               	movlw	7
  4008  00A27A  EC33  F07E         	call	_StartRTdS
  4009  00A27E                     l455:
  4010                           ;pomiar.c: 1561: }
  4011  00A27E  DF80               	call	_WritePCW	;wreg free
  4012  00A280  D020               	goto	l461
  4013                           ;pomiar.c: 1563: RSDT1.outPCW=DtCW.PCW;
  4014                           ;pomiar.c: 1564: }
  4015  00A282                     l449:
  4016                           ;pomiar.c: 1565: else
  4017  00A282  EC11  F042         	call	_ReadEEPCW	;wreg free
  4018  00A286  CFE8 F071          	movff	wreg,_DtCW+3
  4019                           ;pomiar.c: 1568: if(DtKNF.tpkt!=0)
  4020  00A28A  EE02  F0BC         	lfsr	0,_DtKNF+14
  4021  00A28E  50EF               	movf	indf0,w,c
  4022  00A290  E008               	bz	l457
  4023                           ;pomiar.c: 1569: {
  4024  00A292  C073  FFE8         	movff	_DtCW+5,wreg
  4025  00A296  010E               	movlb	F1743 shr (0+8)
  4026  00A298  6175               	cpfslt	F1743& (0+255),b
  4027  00A29A  D00C               	goto	l459
  4028  00A29C  C073  FE75         	movff	_DtCW+5,F1743
  4029                           ;pomiar.c: 1571: }
  4030  00A2A0  D009               	goto	l459
  4031  00A2A2                     l457:
  4032                           ;pomiar.c: 1572: else
  4033  00A2A2  C073  FFE8         	movff	_DtCW+5,wreg
  4034  00A2A6  010E               	movlb	F1743 shr (0+8)
  4035  00A2A8  6175               	cpfslt	F1743& (0+255),b
  4036  00A2AA  D004               	goto	l459
  4037  00A2AC  0100               	movlb	(_DtCW+5) shr (0+8)
  4038  00A2AE  0573               	decf	(_DtCW+5)& (0+255),w,b
  4039  00A2B0  CFE8 FE75          	movff	wreg,F1743
  4040  00A2B4                     l459:
  4041                           ;pomiar.c: 1575: }
  4042  00A2B4  CE75  FFE8         	movff	F1743,wreg
  4043  00A2B8  0100               	movlb	(_DtCW+6) shr (0+8)
  4044  00A2BA  6174               	cpfslt	(_DtCW+6)& (0+255),b
  4045  00A2BC  D002               	goto	l461
  4046  00A2BE  C074  FE75         	movff	_DtCW+6,F1743
  4047  00A2C2                     l461:
  4048                           ;pomiar.c: 1577: RSDT1.outPCW=DtCW.PCW;
  4049  00A2C2  C071  F338         	movff	_DtCW+3,_RSDT1+11
  4050                           ;pomiar.c: 1578: }
  4051  00A2C6  DF6E               	call	_SetModPCW	;wreg free
  4052                           ;pomiar.c: 1580: DtCW.DAD_CW=ReturnACfromNTC(DtC
      +                          W.PPCW-(3-1));
  4053  00A2C8  C072  FFE8         	movff	_DtCW+4,wreg
  4054  00A2CC  0FFE               	addlw	-2
  4055  00A2CE  EC31  F002         	call	_ReturnACfromNTC
  4056  00A2D2  CFE8 F07C          	movff	wreg,_DtCW+14
  4057                           ;pomiar.c: 1581: DtCW.MAD_CW=ReturnACfromNTC(DtC
      +                          W.PPCW-(3-1)-6);
  4058  00A2D6  C072  FFE8         	movff	_DtCW+4,wreg
  4059  00A2DA  0FF8               	addlw	-8
  4060  00A2DC  EC31  F002         	call	_ReturnACfromNTC
  4061  00A2E0  CFE8 F07B          	movff	wreg,_DtCW+13
  4062                           ;pomiar.c: 1582: }
  4063  00A2E4  0012               	return	
  4064  00A2E6                     __end_of_PomiarPCW:
  4065                           ;pomiar.c: 1585: void WriteECO(void)
  4066                           ;pomiar.c: 1586: {
  4067  00A2E6                     _WriteECO:
  4068  000000                     
  4069                           ;pomiar.c: 1587: if(DtIN._newECO&&RTdS(14)>=10)
  4070  00A2E6  0100               	movlb	_DtIN shr (0+8)
  4071  00A2E8  A390               	btfss	_DtIN& (0+255),1,b
  4072  00A2EA  0012               	return	
  4073  00A2EC  0E0E               	movlw	14
  4074  00A2EE  EC45  F07E         	call	_RTdS
  4075  00A2F2  6E00               	movwf	btemp,c
  4076  00A2F4  0E0A               	movlw	10
  4077  00A2F6  5C00               	subwf	btemp,w,c
  4078  00A2F8  A0D8               	btfss	status,0,c
  4079  00A2FA  0012               	return	
  4080                           ;pomiar.c: 1588: {
  4081  00A2FC  0100               	movlb	_DtIN shr (0+8)
  4082  00A2FE  9390               	bcf	_DtIN& (0+255),1,b
  4083                           ;pomiar.c: 1590: StartRTdS(14);
  4084  00A300  0E0E               	movlw	14
  4085  00A302  EC33  F07E         	call	_StartRTdS
  4086                           ;pomiar.c: 1591: WriteEEECO();
  4087  00A306  EF64  F042         	goto	_WriteEEECO	;wreg free
  4088                           ;pomiar.c: 1592: }
  4089  00A30A                     __end_of_WriteECO:
  4090                           ;pomiar.c: 1596: void PomiarECO(void)
  4091                           ;pomiar.c: 1597: {
  4092  00A30A                     _PomiarECO:
  4093  000000                     
  4094                           ;pomiar.c: 1598: static unsigned char peco;
  4095  00A30A  0E07               	movlw	7
  4096  00A30C  0100               	movlb	__Lparam shr (0+8)
  4097  00A30E  6FAE               	movwf	?_GetBit2^(__Lparam& (0+65280)),b
  4098  00A310  C37B  FFE8         	movff	_RSDT1+78,wreg
  4099  00A314  ECB9  F003         	call	_GetBit2
  4100  00A318  E228               	bc	l465
  4101  00A31A  0103               	movlb	_MGSD shr (0+8)
  4102  00A31C  ADAA               	btfss	_MGSD& (0+255),6,b
  4103  00A31E  D025               	goto	l465
  4104  00A320  0103               	movlb	(_M+4) shr (0+8)
  4105  00A322  B50A               	btfsc	(_M+4)& (0+255),2,b
  4106  00A324  D022               	goto	l465
  4107  00A326  0103               	movlb	(_M+4) shr (0+8)
  4108  00A328  B30A               	btfsc	(_M+4)& (0+255),1,b
  4109  00A32A  D01F               	goto	l465
  4110                           ;pomiar.c: 1601: {
  4111  00A32C  C37A  FFE8         	movff	_RSDT1+77,wreg
  4112  00A330  080A               	sublw	10
  4113  00A332  CFE8 FE76          	movff	wreg,F1751
  4114                           ;pomiar.c: 1603: if(peco<1) peco=1;
  4115  00A336  0E01               	movlw	1
  4116  00A338  010E               	movlb	F1751 shr (0+8)
  4117  00A33A  6176               	cpfslt	F1751& (0+255),b
  4118  00A33C  D002               	goto	l466
  4119  00A33E  CFE8 FE76          	movff	wreg,F1751
  4120  00A342                     l466:
  4121                           ;pomiar.c: 1604: if(peco>9) peco=9;
  4122  00A342  0E09               	movlw	9
  4123  00A344  010E               	movlb	F1751 shr (0+8)
  4124  00A346  6576               	cpfsgt	F1751& (0+255),b
  4125  00A348  D002               	goto	l467
  4126  00A34A  CFE8 FE76          	movff	wreg,F1751
  4127  00A34E                     l467:
  4128                           ;pomiar.c: 1605: if(DtIN.Eco!=peco)
  4129  00A34E  C099  FFE8         	movff	_DtIN+9,wreg
  4130  00A352  010E               	movlb	F1751 shr (0+8)
  4131  00A354  1976               	xorwf	F1751& (0+255),w,b
  4132  00A356  E007               	bz	l468
  4133                           ;pomiar.c: 1606: {
  4134  00A358  CE76  F099         	movff	F1751,_DtIN+9
  4135                           ;pomiar.c: 1608: DtIN._newECO=1;
  4136  00A35C  0100               	movlb	_DtIN shr (0+8)
  4137  00A35E  8390               	bsf	_DtIN& (0+255),1,b
  4138                           ;pomiar.c: 1609: StartRTdS(14);
  4139  00A360  0E0E               	movlw	14
  4140  00A362  EC33  F07E         	call	_StartRTdS
  4141  00A366                     l468:
  4142                           ;pomiar.c: 1610: }
  4143  00A366  DFBF               	call	_WriteECO	;wreg free
  4144                           ;pomiar.c: 1612: }
  4145  00A368  D010               	goto	l469
  4146  00A36A                     l465:
  4147                           ;pomiar.c: 1613: else
  4148  00A36A  EC62  F042         	call	_ReadEEECO	;wreg free
  4149  00A36E  CFE8 F099          	movff	wreg,_DtIN+9
  4150                           ;pomiar.c: 1616: if(peco<1) peco=1;
  4151  00A372  0E01               	movlw	1
  4152  00A374  010E               	movlb	F1751 shr (0+8)
  4153  00A376  6176               	cpfslt	F1751& (0+255),b
  4154  00A378  D002               	goto	l470
  4155  00A37A  CFE8 FE76          	movff	wreg,F1751
  4156  00A37E                     l470:
  4157                           ;pomiar.c: 1617: if(peco>9) peco=9;
  4158  00A37E  0E09               	movlw	9
  4159  00A380  010E               	movlb	F1751 shr (0+8)
  4160  00A382  6576               	cpfsgt	F1751& (0+255),b
  4161  00A384  D002               	goto	l469
  4162  00A386  CFE8 FE76          	movff	wreg,F1751
  4163  00A38A                     l469:
  4164                           ;pomiar.c: 1618: }
  4165  00A38A  C099  F09A         	movff	_DtIN+9,_DtIN+10
  4166                           ;pomiar.c: 1622: RSDT1.outECO=10-DtIN.PPEco;
  4167  00A38E  C09A  FFE8         	movff	_DtIN+10,wreg
  4168  00A392  080A               	sublw	10
  4169  00A394  CFE8 F341          	movff	wreg,_RSDT1+20
  4170                           ;pomiar.c: 1623: }
  4171  00A398  0012               	return	
  4172  00A39A                     __end_of_PomiarECO:
  4173                           ;pomiar.c: 1627: void WritePFN(void)
  4174                           ;pomiar.c: 1628: {
  4175  00A39A                     _WritePFN:
  4176  000000                     
  4177                           ;pomiar.c: 1629: if(PFN._newPFN&&RTdS(8)>=10)
  4178  00A39A  0100               	movlb	_PFN shr (0+8)
  4179  00A39C  A167               	btfss	_PFN& (0+255),0,b
  4180  00A39E  0012               	return	
  4181  00A3A0  0E08               	movlw	8
  4182  00A3A2  EC45  F07E         	call	_RTdS
  4183  00A3A6  6E00               	movwf	btemp,c
  4184  00A3A8  0E0A               	movlw	10
  4185  00A3AA  5C00               	subwf	btemp,w,c
  4186  00A3AC  A0D8               	btfss	status,0,c
  4187  00A3AE  0012               	return	
  4188                           ;pomiar.c: 1630: {
  4189  00A3B0  0100               	movlb	_PFN shr (0+8)
  4190  00A3B2  9167               	bcf	_PFN& (0+255),0,b
  4191                           ;pomiar.c: 1632: StartRTdS(8);
  4192  00A3B4  0E08               	movlw	8
  4193  00A3B6  EC33  F07E         	call	_StartRTdS
  4194                           ;pomiar.c: 1634: WriteEEPFN();
  4195  00A3BA  EF7D  F042         	goto	_WriteEEPFN	;wreg free
  4196                           ;pomiar.c: 1635: }
  4197  00A3BE                     __end_of_WritePFN:
  4198                           ;pomiar.c: 1639: void PomiarPFN(void)
  4199                           ;pomiar.c: 1640: {
  4200  00A3BE                     _PomiarPFN:
  4201  000000                     
  4202                           ;pomiar.c: 1641: static unsigned char pnst;
  4203  00A3BE  0E07               	movlw	7
  4204  00A3C0  0100               	movlb	__Lparam shr (0+8)
  4205  00A3C2  6FAE               	movwf	?_GetBit2^(__Lparam& (0+65280)),b
  4206  00A3C4  C37B  FFE8         	movff	_RSDT1+78,wreg
  4207  00A3C8  ECB9  F003         	call	_GetBit2
  4208  00A3CC  E301 D0E7          	bc	l475
  4209  00A3D0  0103               	movlb	_MGSD shr (0+8)
  4210  00A3D2  ADAA               	btfss	_MGSD& (0+255),6,b
  4211  00A3D4  D0E4               	goto	l475
  4212  00A3D6  0103               	movlb	(_M+4) shr (0+8)
  4213  00A3D8  B50A               	btfsc	(_M+4)& (0+255),2,b
  4214  00A3DA  D0E1               	goto	l475
  4215  00A3DC  0103               	movlb	(_M+4) shr (0+8)
  4216  00A3DE  B30A               	btfsc	(_M+4)& (0+255),1,b
  4217  00A3E0  D0DE               	goto	l475
  4218                           ;pomiar.c: 1644: {
  4219  00A3E2  0E05               	movlw	5
  4220  00A3E4  0100               	movlb	__Lparam shr (0+8)
  4221  00A3E6  6FAE               	movwf	?_GetBit2^(__Lparam& (0+65280)),b
  4222  00A3E8  C37B  FFE8         	movff	_RSDT1+78,wreg
  4223  00A3EC  ECB9  F003         	call	_GetBit2
  4224  00A3F0  E328               	bnc	l476
  4225                           ;pomiar.c: 1646: {
  4226  00A3F2  0100               	movlb	_PFN shr (0+8)
  4227  00A3F4  9967               	bcf	_PFN& (0+255),4,b
  4228                           ;pomiar.c: 1648: PFN._lato=0;
  4229  00A3F6  9767               	bcf	_PFN& (0+255),3,b
  4230                           ;pomiar.c: 1649: PFN._off=1;
  4231  00A3F8  8567               	bsf	_PFN& (0+255),2,b
  4232                           ;pomiar.c: 1650: PFN._csn=0;
  4233  00A3FA  9367               	bcf	_PFN& (0+255),1,b
  4234                           ;pomiar.c: 1651: PFN.poz=1;
  4235  00A3FC  0E01               	movlw	1
  4236  00A3FE  6F68               	movwf	(_PFN+1)& (0+255),b
  4237  00A400  6B69               	clrf	(_PFN+2)& (0+255),b
  4238                           ;pomiar.c: 1652: BitSet2(&RSDT1.outSTAT2,4,0);
  4239  00A402  0100               	movlb	__Lparam shr (0+8)
  4240  00A404  0E46               	movlw	low (_RSDT1+25)
  4241  00A406  6FAC               	movwf	?_BitSet2^(__Lparam& (0+65280)),b
  4242  00A408  0E03               	movlw	high (_RSDT1+25)
  4243  00A40A  6FAD               	movwf	(?_BitSet2+1)^(__Lparam& (0+65280)),b
  4244  00A40C  0E04               	movlw	4
  4245  00A40E  6FAE               	movwf	(?_BitSet2+2)^(__Lparam& (0+65280)),b
  4246  00A410  6BAF               	clrf	(?_BitSet2+3)^(__Lparam& (0+65280)),b
  4247  00A412  ECEC  F003         	call	_BitSet2	;wreg free
  4248                           ;pomiar.c: 1653: BitSet2(&RSDT1.outSTAT2,5,0);
  4249  00A416  0100               	movlb	__Lparam shr (0+8)
  4250  00A418  0E46               	movlw	low (_RSDT1+25)
  4251  00A41A  6FAC               	movwf	?_BitSet2^(__Lparam& (0+65280)),b
  4252  00A41C  0E03               	movlw	high (_RSDT1+25)
  4253  00A41E  6FAD               	movwf	(?_BitSet2+1)^(__Lparam& (0+65280)),b
  4254  00A420  0E05               	movlw	5
  4255  00A422  6FAE               	movwf	(?_BitSet2+2)^(__Lparam& (0+65280)),b
  4256  00A424  6BAF               	clrf	(?_BitSet2+3)^(__Lparam& (0+65280)),b
  4257  00A426  ECEC  F003         	call	_BitSet2	;wreg free
  4258                           ;pomiar.c: 1654: BitSet2(&RSDT1.outSTAT2,6,1);
  4259  00A42A  0100               	movlb	__Lparam shr (0+8)
  4260  00A42C  0E46               	movlw	low (_RSDT1+25)
  4261  00A42E  6FAC               	movwf	?_BitSet2^(__Lparam& (0+65280)),b
  4262  00A430  0E03               	movlw	high (_RSDT1+25)
  4263  00A432  6FAD               	movwf	(?_BitSet2+1)^(__Lparam& (0+65280)),b
  4264  00A434  0E06               	movlw	6
  4265  00A436  6FAE               	movwf	(?_BitSet2+2)^(__Lparam& (0+65280)),b
  4266  00A438  0E01               	movlw	1
  4267  00A43A  6FAF               	movwf	(?_BitSet2+3)^(__Lparam& (0+65280)),b
  4268  00A43C  ECEC  F003         	call	_BitSet2	;wreg free
  4269                           ;pomiar.c: 1655: }
  4270  00A440  D086               	goto	l477
  4271  00A442                     l476:
  4272                           ;pomiar.c: 1656: else
  4273  00A442  0E03               	movlw	3
  4274  00A444  0100               	movlb	__Lparam shr (0+8)
  4275  00A446  6FAE               	movwf	?_GetBit2^(__Lparam& (0+65280)),b
  4276  00A448  C37B  FFE8         	movff	_RSDT1+78,wreg
  4277  00A44C  ECB9  F003         	call	_GetBit2
  4278  00A450  E328               	bnc	l478
  4279                           ;pomiar.c: 1658: {
  4280  00A452  0100               	movlb	_PFN shr (0+8)
  4281  00A454  8967               	bsf	_PFN& (0+255),4,b
  4282                           ;pomiar.c: 1660: PFN._lato=0;
  4283  00A456  9767               	bcf	_PFN& (0+255),3,b
  4284                           ;pomiar.c: 1661: PFN._off=0;
  4285  00A458  9567               	bcf	_PFN& (0+255),2,b
  4286                           ;pomiar.c: 1662: PFN._csn=0;
  4287  00A45A  9367               	bcf	_PFN& (0+255),1,b
  4288                           ;pomiar.c: 1663: PFN.poz=3;
  4289  00A45C  0E03               	movlw	3
  4290  00A45E  6F68               	movwf	(_PFN+1)& (0+255),b
  4291  00A460  6B69               	clrf	(_PFN+2)& (0+255),b
  4292                           ;pomiar.c: 1664: BitSet2(&RSDT1.outSTAT2,4,1);
  4293  00A462  0100               	movlb	__Lparam shr (0+8)
  4294  00A464  0E46               	movlw	low (_RSDT1+25)
  4295  00A466  6FAC               	movwf	?_BitSet2^(__Lparam& (0+65280)),b
  4296  00A468  0E03               	movlw	high (_RSDT1+25)
  4297  00A46A  6FAD               	movwf	(?_BitSet2+1)^(__Lparam& (0+65280)),b
  4298  00A46C  0E04               	movlw	4
  4299  00A46E  6FAE               	movwf	(?_BitSet2+2)^(__Lparam& (0+65280)),b
  4300  00A470  0E01               	movlw	1
  4301  00A472  6FAF               	movwf	(?_BitSet2+3)^(__Lparam& (0+65280)),b
  4302  00A474  ECEC  F003         	call	_BitSet2	;wreg free
  4303                           ;pomiar.c: 1665: BitSet2(&RSDT1.outSTAT2,5,0);
  4304  00A478  0100               	movlb	__Lparam shr (0+8)
  4305  00A47A  0E46               	movlw	low (_RSDT1+25)
  4306  00A47C  6FAC               	movwf	?_BitSet2^(__Lparam& (0+65280)),b
  4307  00A47E  0E03               	movlw	high (_RSDT1+25)
  4308  00A480  6FAD               	movwf	(?_BitSet2+1)^(__Lparam& (0+65280)),b
  4309  00A482  0E05               	movlw	5
  4310  00A484  6FAE               	movwf	(?_BitSet2+2)^(__Lparam& (0+65280)),b
  4311  00A486  6BAF               	clrf	(?_BitSet2+3)^(__Lparam& (0+65280)),b
  4312  00A488  ECEC  F003         	call	_BitSet2	;wreg free
  4313                           ;pomiar.c: 1666: BitSet2(&RSDT1.outSTAT2,6,0);
  4314  00A48C  0100               	movlb	__Lparam shr (0+8)
  4315  00A48E  0E46               	movlw	low (_RSDT1+25)
  4316  00A490  6FAC               	movwf	?_BitSet2^(__Lparam& (0+65280)),b
  4317  00A492  0E03               	movlw	high (_RSDT1+25)
  4318  00A494  6FAD               	movwf	(?_BitSet2+1)^(__Lparam& (0+65280)),b
  4319  00A496  0E06               	movlw	6
  4320  00A498  6FAE               	movwf	(?_BitSet2+2)^(__Lparam& (0+65280)),b
  4321  00A49A  6BAF               	clrf	(?_BitSet2+3)^(__Lparam& (0+65280)),b
  4322  00A49C  ECEC  F003         	call	_BitSet2	;wreg free
  4323                           ;pomiar.c: 1667: }
  4324  00A4A0  D056               	goto	l477
  4325  00A4A2                     l478:
  4326                           ;pomiar.c: 1668: else
  4327  00A4A2  0E04               	movlw	4
  4328  00A4A4  0100               	movlb	__Lparam shr (0+8)
  4329  00A4A6  6FAE               	movwf	?_GetBit2^(__Lparam& (0+65280)),b
  4330  00A4A8  C37B  FFE8         	movff	_RSDT1+78,wreg
  4331  00A4AC  ECB9  F003         	call	_GetBit2
  4332                           ;pomiar.c: 1670: {
  4333  00A4B0  0100               	movlb	_PFN shr (0+8)
  4334  00A4B2  E327               	bnc	L59
  4335  00A4B4  9967               	bcf	_PFN& (0+255),4,b
  4336                           ;pomiar.c: 1672: PFN._lato=1;
  4337  00A4B6  8767               	bsf	_PFN& (0+255),3,b
  4338                           ;pomiar.c: 1673: PFN._off=0;
  4339  00A4B8  9567               	bcf	_PFN& (0+255),2,b
  4340                           ;pomiar.c: 1674: PFN._csn=0;
  4341  00A4BA  9367               	bcf	_PFN& (0+255),1,b
  4342                           ;pomiar.c: 1675: PFN.poz=2;
  4343  00A4BC  0E02               	movlw	2
  4344  00A4BE  6F68               	movwf	(_PFN+1)& (0+255),b
  4345  00A4C0  6B69               	clrf	(_PFN+2)& (0+255),b
  4346                           ;pomiar.c: 1676: BitSet2(&RSDT1.outSTAT2,4,0);
  4347  00A4C2  0100               	movlb	__Lparam shr (0+8)
  4348  00A4C4  0E46               	movlw	low (_RSDT1+25)
  4349  00A4C6  6FAC               	movwf	?_BitSet2^(__Lparam& (0+65280)),b
  4350  00A4C8  0E03               	movlw	high (_RSDT1+25)
  4351  00A4CA  6FAD               	movwf	(?_BitSet2+1)^(__Lparam& (0+65280)),b
  4352  00A4CC  0E04               	movlw	4
  4353  00A4CE  6FAE               	movwf	(?_BitSet2+2)^(__Lparam& (0+65280)),b
  4354  00A4D0  6BAF               	clrf	(?_BitSet2+3)^(__Lparam& (0+65280)),b
  4355  00A4D2  ECEC  F003         	call	_BitSet2	;wreg free
  4356                           ;pomiar.c: 1677: BitSet2(&RSDT1.outSTAT2,5,1);
  4357  00A4D6  0100               	movlb	__Lparam shr (0+8)
  4358  00A4D8  0E46               	movlw	low (_RSDT1+25)
  4359  00A4DA  6FAC               	movwf	?_BitSet2^(__Lparam& (0+65280)),b
  4360  00A4DC  0E03               	movlw	high (_RSDT1+25)
  4361  00A4DE  6FAD               	movwf	(?_BitSet2+1)^(__Lparam& (0+65280)),b
  4362  00A4E0  0E05               	movlw	5
  4363  00A4E2  6FAE               	movwf	(?_BitSet2+2)^(__Lparam& (0+65280)),b
  4364  00A4E4  0E01               	movlw	1
  4365  00A4E6  6FAF               	movwf	(?_BitSet2+3)^(__Lparam& (0+65280)),b
  4366  00A4E8  ECEC  F003         	call	_BitSet2	;wreg free
  4367                           ;pomiar.c: 1678: BitSet2(&RSDT1.outSTAT2,6,0);
  4368  00A4EC  0100               	movlb	__Lparam shr (0+8)
  4369  00A4EE  0E46               	movlw	low (_RSDT1+25)
  4370  00A4F0  6FAC               	movwf	?_BitSet2^(__Lparam& (0+65280)),b
  4371  00A4F2  0E03               	movlw	high (_RSDT1+25)
  4372  00A4F4  6FAD               	movwf	(?_BitSet2+1)^(__Lparam& (0+65280)),b
  4373  00A4F6  0E06               	movlw	6
  4374  00A4F8  6FAE               	movwf	(?_BitSet2+2)^(__Lparam& (0+65280)),b
  4375  00A4FA  6BAF               	clrf	(?_BitSet2+3)^(__Lparam& (0+65280)),b
  4376  00A4FC  ECEC  F003         	call	_BitSet2	;wreg free
  4377                           ;pomiar.c: 1679: }
  4378  00A500  D026               	goto	l477
  4379                           ;pomiar.c: 1680: else
  4380  00A502                     L59:
  4381  00A502  8967               	bsf	_PFN& (0+255),4,b
  4382                           ;pomiar.c: 1683: PFN._lato=0;
  4383  00A504  9767               	bcf	_PFN& (0+255),3,b
  4384                           ;pomiar.c: 1684: PFN._off=0;
  4385  00A506  9567               	bcf	_PFN& (0+255),2,b
  4386                           ;pomiar.c: 1685: PFN._csn=0;
  4387  00A508  9367               	bcf	_PFN& (0+255),1,b
  4388                           ;pomiar.c: 1686: PFN.poz=3;
  4389  00A50A  0E03               	movlw	3
  4390  00A50C  6F68               	movwf	(_PFN+1)& (0+255),b
  4391  00A50E  6B69               	clrf	(_PFN+2)& (0+255),b
  4392                           ;pomiar.c: 1687: BitSet2(&RSDT1.outSTAT2,4,1);
  4393  00A510  0100               	movlb	__Lparam shr (0+8)
  4394  00A512  0E46               	movlw	low (_RSDT1+25)
  4395  00A514  6FAC               	movwf	?_BitSet2^(__Lparam& (0+65280)),b
  4396  00A516  0E03               	movlw	high (_RSDT1+25)
  4397  00A518  6FAD               	movwf	(?_BitSet2+1)^(__Lparam& (0+65280)),b
  4398  00A51A  0E04               	movlw	4
  4399  00A51C  6FAE               	movwf	(?_BitSet2+2)^(__Lparam& (0+65280)),b
  4400  00A51E  0E01               	movlw	1
  4401  00A520  6FAF               	movwf	(?_BitSet2+3)^(__Lparam& (0+65280)),b
  4402  00A522  ECEC  F003         	call	_BitSet2	;wreg free
  4403                           ;pomiar.c: 1688: BitSet2(&RSDT1.outSTAT2,5,0);
  4404  00A526  0100               	movlb	__Lparam shr (0+8)
  4405  00A528  0E46               	movlw	low (_RSDT1+25)
  4406  00A52A  6FAC               	movwf	?_BitSet2^(__Lparam& (0+65280)),b
  4407  00A52C  0E03               	movlw	high (_RSDT1+25)
  4408  00A52E  6FAD               	movwf	(?_BitSet2+1)^(__Lparam& (0+65280)),b
  4409  00A530  0E05               	movlw	5
  4410  00A532  6FAE               	movwf	(?_BitSet2+2)^(__Lparam& (0+65280)),b
  4411  00A534  6BAF               	clrf	(?_BitSet2+3)^(__Lparam& (0+65280)),b
  4412  00A536  ECEC  F003         	call	_BitSet2	;wreg free
  4413                           ;pomiar.c: 1689: BitSet2(&RSDT1.outSTAT2,6,0);
  4414  00A53A  0100               	movlb	__Lparam shr (0+8)
  4415  00A53C  0E46               	movlw	low (_RSDT1+25)
  4416  00A53E  6FAC               	movwf	?_BitSet2^(__Lparam& (0+65280)),b
  4417  00A540  0E03               	movlw	high (_RSDT1+25)
  4418  00A542  6FAD               	movwf	(?_BitSet2+1)^(__Lparam& (0+65280)),b
  4419  00A544  0E06               	movlw	6
  4420  00A546  6FAE               	movwf	(?_BitSet2+2)^(__Lparam& (0+65280)),b
  4421  00A548  6BAF               	clrf	(?_BitSet2+3)^(__Lparam& (0+65280)),b
  4422  00A54A  ECEC  F003         	call	_BitSet2	;wreg free
  4423  00A54E                     l477:
  4424                           ;pomiar.c: 1690: }
  4425  00A54E  0103               	movlb	(_M+3) shr (0+8)
  4426  00A550  B309               	btfsc	(_M+3)& (0+255),1,b
  4427  00A552  D018               	goto	l482
  4428                           ;pomiar.c: 1692: {
  4429  00A554  ECA4  F042         	call	_ReadEEPFN	;wreg free
  4430  00A558  CFE8 FE77          	movff	wreg,F1755
  4431                           ;pomiar.c: 1694: if(PFN.poz!=pnst)
  4432  00A55C  CE77  F000         	movff	F1755,btemp
  4433  00A560  6A01               	clrf	btemp+1,c
  4434  00A562  C069  FFE8         	movff	_PFN+2,wreg
  4435  00A566  1801               	xorwf	btemp+1,w,c
  4436  00A568  E103               	bnz	u3525
  4437  00A56A  C068  FFE8         	movff	_PFN+1,wreg
  4438  00A56E  1800               	xorwf	btemp,w,c
  4439  00A570                     u3525:
  4440  00A570  E008               	bz	l483
  4441                           ;pomiar.c: 1695: {
  4442  00A572  0100               	movlb	_PFN shr (0+8)
  4443  00A574  B167               	btfsc	_PFN& (0+255),0,b
  4444  00A576  D003               	goto	l484
  4445  00A578  0E08               	movlw	8
  4446  00A57A  EC33  F07E         	call	_StartRTdS
  4447  00A57E                     l484:
  4448                           ;pomiar.c: 1697: PFN._newPFN=1;
  4449  00A57E  0100               	movlb	_PFN shr (0+8)
  4450  00A580  8167               	bsf	_PFN& (0+255),0,b
  4451  00A582                     l483:
  4452                           ;pomiar.c: 1698: }
  4453  00A582  DF0B               	call	_WritePFN	;wreg free
  4454  00A584                     l482:
  4455                           ;pomiar.c: 1700: }
  4456  00A584  0E06               	movlw	6
  4457  00A586  0100               	movlb	__Lparam shr (0+8)
  4458  00A588  6FAE               	movwf	?_GetBit2^(__Lparam& (0+65280)),b
  4459  00A58A  C37B  FFE8         	movff	_RSDT1+78,wreg
  4460  00A58E  ECB9  F003         	call	_GetBit2
  4461  00A592  0100               	movlb	_PFN shr (0+8)
  4462  00A594  E302               	bnc	L60
  4463  00A596  8B67               	bsf	_PFN& (0+255),5,b
  4464  00A598  D00B               	goto	l487
  4465                           ;pomiar.c: 1703: else PFN._res=0;
  4466  00A59A                     L60:
  4467  00A59A  9B67               	bcf	_PFN& (0+255),5,b
  4468                           ;pomiar.c: 1704: }
  4469  00A59C  D009               	goto	l487
  4470  00A59E                     l475:
  4471                           ;pomiar.c: 1705: else
  4472  00A59E  ECA4  F042         	call	_ReadEEPFN	;wreg free
  4473  00A5A2  6E00               	movwf	btemp,c
  4474  00A5A4  0100               	movlb	(_PFN+1) shr (0+8)
  4475  00A5A6  C000  F068         	movff	btemp,_PFN+1
  4476  00A5AA  6B69               	clrf	(_PFN+2)& (0+255),b
  4477                           ;pomiar.c: 1708: SetPFN();
  4478  00A5AC  EC83  F041         	call	_SetPFN	;wreg free
  4479  00A5B0                     l487:
  4480                           ;pomiar.c: 1709: }
  4481  00A5B0  ECB0  F042         	call	_ReadEEPopPFN	;wreg free
  4482  00A5B4  6E00               	movwf	btemp,c
  4483  00A5B6  0100               	movlb	(_PFN+3) shr (0+8)
  4484  00A5B8  C000  F06A         	movff	btemp,_PFN+3
  4485  00A5BC  6B6B               	clrf	(_PFN+4)& (0+255),b
  4486                           ;pomiar.c: 1711: }
  4487  00A5BE  0012               	return	
  4488  00A5C0                     __end_of_PomiarPFN:
  4489                           ;pomiar.c: 1714: void PomiarCS(void)
  4490                           ;pomiar.c: 1715: {
  4491  00A5C0                     _PomiarCS:
  4492  000000                     
  4493                           ;pomiar.c: 1716: static unsigned char pcs;
  4494  00A5C0  0E03               	movlw	3
  4495  00A5C2  ECC8  F001         	call	_ReadAC
  4496  00A5C6  0100               	movlb	__Lparam shr (0+8)
  4497  00A5C8  6FA9               	movwf	?a_PomiarCS^(__Lparam& (0+65280)),b
  4498                           ;pomiar.c: 1719: if((!DtKNF.tpcs&&(dac<16||dac>2
      +                          35))||(DtKNF.tpcs&&(dac<16||dac>235)))
  4499  00A5CA  EE02  F0C9         	lfsr	0,_DtKNF+27
  4500  00A5CE  50EF               	movf	indf0,w,c
  4501  00A5D0  E108               	bnz	u3581
  4502  00A5D2  0E10               	movlw	16
  4503  00A5D4  61A9               	cpfslt	?a_PomiarCS^(__Lparam& (0+65280)),b
  4504  00A5D6  D001               	goto	u3561
  4505  00A5D8  D010               	goto	u3650
  4506  00A5DA                     u3561:
  4507  00A5DA  0EEB               	movlw	-21
  4508  00A5DC  65A9               	cpfsgt	?a_PomiarCS^(__Lparam& (0+65280)),b
  4509  00A5DE  D001               	goto	u3581
  4510  00A5E0  D00C               	goto	u3650
  4511  00A5E2                     u3581:
  4512  00A5E2  EE02  F0C9         	lfsr	0,_DtKNF+27
  4513  00A5E6  50EF               	movf	indf0,w,c
  4514  00A5E8  E022               	bz	l489
  4515  00A5EA  0E10               	movlw	16
  4516  00A5EC  0100               	movlb	__Lparam shr (0+8)
  4517  00A5EE  61A9               	cpfslt	?a_PomiarCS^(__Lparam& (0+65280)),b
  4518  00A5F0  D001               	goto	u3611
  4519  00A5F2  D003               	goto	u3650
  4520  00A5F4                     u3611:
  4521  00A5F4  0EEB               	movlw	-21
  4522  00A5F6  65A9               	cpfsgt	?a_PomiarCS^(__Lparam& (0+65280)),b
  4523  00A5F8  D01A               	goto	l489
  4524  00A5FA                     u3650:
  4525                           ;pomiar.c: 1720: {
  4526  00A5FA  EE02  F0C3         	lfsr	0,_DtKNF+21
  4527  00A5FE  50EF               	movf	indf0,w,c
  4528                           ;pomiar.c: 1722: {
  4529  00A600  0100               	movlb	_DtCS shr (0+8)
  4530  00A602  E10B               	bnz	L61
  4531  00A604  975F               	bcf	_DtCS& (0+255),3,b
  4532                           ;pomiar.c: 1724: DtCS._no=0;
  4533  00A606  955F               	bcf	_DtCS& (0+255),2,b
  4534                           ;pomiar.c: 1725: DtCS._lo=0;
  4535  00A608  935F               	bcf	_DtCS& (0+255),1,b
  4536                           ;pomiar.c: 1726: DtCS._hi=0;
  4537  00A60A  915F               	bcf	_DtCS& (0+255),0,b
  4538                           ;pomiar.c: 1727: DtCS._work=1;
  4539  00A60C  895F               	bsf	_DtCS& (0+255),4,b
  4540                           ;pomiar.c: 1728: DtCS._no_mont=1;
  4541  00A60E  0E01               	movlw	1
  4542  00A610  6F60               	movwf	(_DtCS+1)& (0+255),b
  4543  00A612  0E00               	movlw	0
  4544  00A614  6B61               	clrf	(_DtCS+2)& (0+255),b
  4545                           ;pomiar.c: 1729: DtCS.CS=0;
  4546  00A616  6B62               	clrf	(_DtCS+3)& (0+255),b
  4547                           ;pomiar.c: 1730: }
  4548  00A618  0012               	return	
  4549                           ;pomiar.c: 1731: else
  4550  00A61A                     L61:
  4551  00A61A  875F               	bsf	_DtCS& (0+255),3,b
  4552                           ;pomiar.c: 1734: DtCS._no=0;
  4553  00A61C  955F               	bcf	_DtCS& (0+255),2,b
  4554                           ;pomiar.c: 1735: DtCS._lo=0;
  4555  00A61E  935F               	bcf	_DtCS& (0+255),1,b
  4556                           ;pomiar.c: 1736: DtCS._hi=0;
  4557  00A620  915F               	bcf	_DtCS& (0+255),0,b
  4558                           ;pomiar.c: 1737: DtCS._work=0;
  4559  00A622  995F               	bcf	_DtCS& (0+255),4,b
  4560                           ;pomiar.c: 1738: DtCS._no_mont=0;
  4561  00A624  EE00  F060         	lfsr	0,_DtCS+1
  4562  00A628  6AEE               	clrf	postinc0,c
  4563  00A62A  6AEE               	clrf	postinc0,c
  4564                           ;pomiar.c: 1739: }
  4565  00A62C  0012               	return	
  4566  00A62E                     l489:
  4567                           ;pomiar.c: 1741: else
  4568  00A62E  0100               	movlb	_DtCS shr (0+8)
  4569  00A630  975F               	bcf	_DtCS& (0+255),3,b
  4570                           ;pomiar.c: 1744: DtCS._no_mont=0;
  4571  00A632  EE00  F060         	lfsr	0,_DtCS+1
  4572  00A636  6AEE               	clrf	postinc0,c
  4573  00A638  6AEE               	clrf	postinc0,c
  4574                           ;pomiar.c: 1745: if(!DtKNF.tpcs)
  4575  00A63A  EE02  F0C9         	lfsr	0,_DtKNF+27
  4576  00A63E  50EF               	movf	indf0,w,c
  4577  00A640  E121               	bnz	l493
  4578                           ;pomiar.c: 1746: {
  4579  00A642  0E1E               	movlw	30
  4580  00A644  0100               	movlb	__Lparam shr (0+8)
  4581  00A646  61A9               	cpfslt	?a_PomiarCS^(__Lparam& (0+65280)),b
  4582  00A648  D001               	goto	l494
  4583  00A64A  6FA9               	movwf	?a_PomiarCS^(__Lparam& (0+65280)),b
  4584  00A64C                     l494:
  4585                           ;pomiar.c: 1748: if(dac>210) dac=210;
  4586  00A64C  0ED2               	movlw	-46
  4587  00A64E  0100               	movlb	__Lparam shr (0+8)
  4588  00A650  65A9               	cpfsgt	?a_PomiarCS^(__Lparam& (0+65280)),b
  4589  00A652  D002               	goto	l495
  4590  00A654  0ED2               	movlw	210
  4591  00A656  6FA9               	movwf	?a_PomiarCS^(__Lparam& (0+65280)),b
  4592  00A658                     l495:
  4593                           ;pomiar.c: 1749: cs=((dac-30)*10)/(((210-30)*10)
      +                          /40);
  4594  00A658  0E0A               	movlw	10
  4595  00A65A  6E02               	movwf	btemp+2,c
  4596  00A65C  6A03               	clrf	btemp+3,c
  4597  00A65E  0100               	movlb	__Lparam shr (0+8)
  4598  00A660  0EE2               	movlw	226
  4599  00A662  25A9               	addwf	?a_PomiarCS^(__Lparam& (0+65280)),w
  4600  00A664  6E00               	movwf	btemp,c
  4601  00A666  6A01               	clrf	btemp+1,c
  4602  00A668  0EFF               	movlw	255
  4603  00A66A  2201               	addwfc	btemp+1,f,c
  4604  00A66C  EC12  F007         	call	awmul
  4605  00A670  C004  F000         	movff	btemp+4,btemp
  4606  00A674  C005  F001         	movff	btemp+5,btemp+1
  4607  00A678  0E2D               	movlw	45
  4608  00A67A  6E02               	movwf	btemp+2,c
  4609  00A67C  6A03               	clrf	btemp+3,c
  4610  00A67E  ECA5  F006         	call	awdiv
  4611  00A682  D020               	goto	L43
  4612                           ;pomiar.c: 1750: if(cs<40)
  4613                           ;pomiar.c: 1751: if((cs-pcs>0)&&(cs-pcs)<2) cs=p
      +                          cs;
  4614                           ;pomiar.c: 1752: if(cs>40) cs=40;
  4615                           ;pomiar.c: 1753: }
  4616  00A684                     l493:
  4617                           ;pomiar.c: 1754: else
  4618  00A684  0E23               	movlw	35
  4619  00A686  0100               	movlb	__Lparam shr (0+8)
  4620  00A688  61A9               	cpfslt	?a_PomiarCS^(__Lparam& (0+65280)),b
  4621  00A68A  D001               	goto	l500
  4622  00A68C  6FA9               	movwf	?a_PomiarCS^(__Lparam& (0+65280)),b
  4623  00A68E                     l500:
  4624                           ;pomiar.c: 1757: if(dac>190) dac=190;
  4625  00A68E  0EBE               	movlw	-66
  4626  00A690  0100               	movlb	__Lparam shr (0+8)
  4627  00A692  65A9               	cpfsgt	?a_PomiarCS^(__Lparam& (0+65280)),b
  4628  00A694  D002               	goto	l501
  4629  00A696  0EBE               	movlw	190
  4630  00A698  6FA9               	movwf	?a_PomiarCS^(__Lparam& (0+65280)),b
  4631  00A69A                     l501:
  4632                           ;pomiar.c: 1758: cs=((dac-35)*10)/(((190-35)*10)
      +                          /40);
  4633  00A69A  0E0A               	movlw	10
  4634  00A69C  6E02               	movwf	btemp+2,c
  4635  00A69E  6A03               	clrf	btemp+3,c
  4636  00A6A0  0100               	movlb	__Lparam shr (0+8)
  4637  00A6A2  0EDD               	movlw	221
  4638  00A6A4  25A9               	addwf	?a_PomiarCS^(__Lparam& (0+65280)),w
  4639  00A6A6  6E00               	movwf	btemp,c
  4640  00A6A8  6A01               	clrf	btemp+1,c
  4641  00A6AA  0EFF               	movlw	255
  4642  00A6AC  2201               	addwfc	btemp+1,f,c
  4643  00A6AE  EC12  F007         	call	awmul
  4644  00A6B2  C004  F000         	movff	btemp+4,btemp
  4645  00A6B6  C005  F001         	movff	btemp+5,btemp+1
  4646  00A6BA  0E26               	movlw	38
  4647  00A6BC  6E02               	movwf	btemp+2,c
  4648  00A6BE  6A03               	clrf	btemp+3,c
  4649  00A6C0  ECA5  F006         	call	awdiv
  4650  00A6C4                     L43:
  4651  00A6C4  5004               	movf	btemp+4,w,c
  4652  00A6C6  6ED9               	movwf	fsr2l,c
  4653                           ;pomiar.c: 1759: if(cs<40)
  4654  00A6C8  0E28               	movlw	40
  4655  00A6CA  60D9               	cpfslt	fsr2l,c
  4656  00A6CC  D020               	goto	l502
  4657                           ;pomiar.c: 1760: if((cs-pcs>0)&&(cs-pcs)<2) cs=p
      +                          cs;
  4658  00A6CE  CE78  FFE8         	movff	F1758,wreg
  4659  00A6D2  CFD9 F000          	movff	fsr2l,btemp
  4660  00A6D6  6A01               	clrf	btemp+1,c
  4661  00A6D8  5E00               	subwf	btemp,f,c
  4662  00A6DA  0E00               	movlw	0
  4663  00A6DC  5A01               	subwfb	btemp+1,f,c
  4664  00A6DE  5001               	movf	btemp+1,w,c
  4665  00A6E0  0A80               	xorlw	128
  4666  00A6E2  0F80               	addlw	-128
  4667  00A6E4  0E01               	movlw	1
  4668  00A6E6  B4D8               	btfsc	status,2,c
  4669  00A6E8  5C00               	subwf	btemp,w,c
  4670  00A6EA  E311               	bnc	l502
  4671  00A6EC  CE78  FFE8         	movff	F1758,wreg
  4672  00A6F0  CFD9 F000          	movff	fsr2l,btemp
  4673  00A6F4  6A01               	clrf	btemp+1,c
  4674  00A6F6  5E00               	subwf	btemp,f,c
  4675  00A6F8  0E00               	movlw	0
  4676  00A6FA  5A01               	subwfb	btemp+1,f,c
  4677  00A6FC  5001               	movf	btemp+1,w,c
  4678  00A6FE  0A80               	xorlw	128
  4679  00A700  0F80               	addlw	-128
  4680  00A702  0E02               	movlw	2
  4681  00A704  B4D8               	btfsc	status,2,c
  4682  00A706  5C00               	subwf	btemp,w,c
  4683  00A708  A0D8               	btfss	status,0,c
  4684  00A70A  CE78  FFD9         	movff	F1758,fsr2l
  4685  00A70E                     l502:
  4686                           ;pomiar.c: 1761: if(cs>40) cs=40;
  4687  00A70E  0E28               	movlw	40
  4688  00A710  64D9               	cpfsgt	fsr2l,c
  4689  00A712  D001               	goto	l499
  4690  00A714  6ED9               	movwf	fsr2l,c
  4691  00A716                     l499:
  4692                           ;pomiar.c: 1762: }
  4693  00A716  CFD9 FE78          	movff	fsr2l,F1758
  4694                           ;pomiar.c: 1764: DtCS.CS=cs;
  4695  00A71A  CFD9 F062          	movff	fsr2l,_DtCS+3
  4696                           ;pomiar.c: 1765: RSDT1.outCS=DtCS.CS;
  4697  00A71E  C062  F334         	movff	_DtCS+3,_RSDT1+7
  4698                           ;pomiar.c: 1766: if(DtKNF.robg==0)
  4699  00A722  EE02  F0C3         	lfsr	0,_DtKNF+21
  4700  00A726  50EF               	movf	indf0,w,c
  4701  00A728  E10D               	bnz	l505
  4702                           ;pomiar.c: 1767: {
  4703  00A72A  0100               	movlb	_DtCS shr (0+8)
  4704  00A72C  955F               	bcf	_DtCS& (0+255),2,b
  4705                           ;pomiar.c: 1770: DtCS._lo=0;
  4706  00A72E  935F               	bcf	_DtCS& (0+255),1,b
  4707                           ;pomiar.c: 1771: if(DtCS.CS<=27) DtCS._work=1;
  4708  00A730  0E1C               	movlw	28
  4709  00A732  6162               	cpfslt	(_DtCS+3)& (0+255),b
  4710  00A734  D002               	goto	l506
  4711  00A736                     L16:
  4712  00A736  895F               	bsf	_DtCS& (0+255),4,b
  4713  00A738  D02B               	goto	l509
  4714  00A73A                     l506:
  4715                           ;pomiar.c: 1772: else
  4716  00A73A  0E1C               	movlw	28
  4717  00A73C  0100               	movlb	(_DtCS+3) shr (0+8)
  4718  00A73E  6562               	cpfsgt	(_DtCS+3)& (0+255),b
  4719  00A740  D027               	goto	l509
  4720  00A742  D025               	goto	L35
  4721                           ;pomiar.c: 1774: }
  4722  00A744                     l505:
  4723                           ;pomiar.c: 1775: else
  4724  00A744  0E03               	movlw	3
  4725  00A746  0100               	movlb	(_DtCS+3) shr (0+8)
  4726  00A748  6162               	cpfslt	(_DtCS+3)& (0+255),b
  4727  00A74A  D002               	goto	l510
  4728  00A74C  855F               	bsf	_DtCS& (0+255),2,b
  4729  00A74E  D002               	goto	l511
  4730  00A750                     l510:
  4731                           ;pomiar.c: 1779: else DtCS._no=0;
  4732  00A750  0100               	movlb	_DtCS shr (0+8)
  4733  00A752  955F               	bcf	_DtCS& (0+255),2,b
  4734  00A754                     l511:
  4735                           ;pomiar.c: 1780: if(!DtCS._no&&DtCS.CS<5) DtCS._
      +                          lo=1;
  4736  00A754  0100               	movlb	_DtCS shr (0+8)
  4737  00A756  B55F               	btfsc	_DtCS& (0+255),2,b
  4738  00A758  D006               	goto	l512
  4739  00A75A  0E05               	movlw	5
  4740  00A75C  6162               	cpfslt	(_DtCS+3)& (0+255),b
  4741  00A75E  D003               	goto	l512
  4742  00A760  0100               	movlb	_DtCS shr (0+8)
  4743  00A762  835F               	bsf	_DtCS& (0+255),1,b
  4744  00A764  D002               	goto	l513
  4745  00A766                     l512:
  4746                           ;pomiar.c: 1781: else DtCS._lo=0;
  4747  00A766  0100               	movlb	_DtCS shr (0+8)
  4748  00A768  935F               	bcf	_DtCS& (0+255),1,b
  4749  00A76A                     l513:
  4750                           ;pomiar.c: 1782: if((DtCS.CS>=6)&&(DtCS.CS<=27))
      +                           DtCS._work=1;
  4751  00A76A  0E05               	movlw	5
  4752  00A76C  0100               	movlb	(_DtCS+3) shr (0+8)
  4753  00A76E  6562               	cpfsgt	(_DtCS+3)& (0+255),b
  4754  00A770  D005               	goto	l514
  4755  00A772  0E1C               	movlw	28
  4756  00A774  6162               	cpfslt	(_DtCS+3)& (0+255),b
  4757  00A776  D002               	goto	l514
  4758  00A778  0100               	movlb	_DtCS shr (0+8)
  4759  00A77A  D7DD               	goto	L16
  4760  00A77C                     l514:
  4761                           ;pomiar.c: 1783: else
  4762  00A77C  0E05               	movlw	5
  4763  00A77E  0100               	movlb	(_DtCS+3) shr (0+8)
  4764  00A780  6162               	cpfslt	(_DtCS+3)& (0+255),b
  4765  00A782  D001               	goto	u3921
  4766  00A784  D003               	goto	u3940
  4767  00A786                     u3921:
  4768  00A786  0E1C               	movlw	28
  4769  00A788  6562               	cpfsgt	(_DtCS+3)& (0+255),b
  4770  00A78A  D002               	goto	l509
  4771  00A78C                     u3940:
  4772  00A78C  0100               	movlb	_DtCS shr (0+8)
  4773  00A78E                     L35:
  4774  00A78E  995F               	bcf	_DtCS& (0+255),4,b
  4775  00A790                     l509:
  4776                           ;pomiar.c: 1785: }
  4777  00A790  0E1C               	movlw	28
  4778  00A792  0100               	movlb	(_DtCS+3) shr (0+8)
  4779  00A794  6562               	cpfsgt	(_DtCS+3)& (0+255),b
  4780  00A796  D002               	goto	l517
  4781  00A798  815F               	bsf	_DtCS& (0+255),0,b
  4782  00A79A  0C1C               	retlw	28
  4783  00A79C                     l517:
  4784                           ;pomiar.c: 1787: else DtCS._hi=0;
  4785  00A79C  0100               	movlb	_DtCS shr (0+8)
  4786  00A79E  915F               	bcf	_DtCS& (0+255),0,b
  4787                           ;pomiar.c: 1788: }
  4788  00A7A0  0012               	return	
  4789  00A7A2                     __end_of_PomiarCS:
  4790  000000                     
  4791  000000                     
  4792  000000                     
  4793  000000                     
  4794  000000                     
  4795  000000                     
  4796  000000                     
  4797  000000                     
  4798  000000                     
  4799  000000                     
  4800  000000                     
  4801  000000                     
  4802  000000                     
  4803  000000                     
  4804  000000                     
  4805  000000                     
  4806  000000                     
  4807  000000                     
  4808  000000                     
  4809  000000                     
  4810  000000                     
  4811  000000                     
  4812  000000                     
  4813  000000                     
  4814  000000                     
  4815  000000                     
  4816  000000                     
  4817  000000                     
  4818  000000                     
  4819  000000                     
  4820  000000                     
  4821  000000                     
  4822  000000                     
  4823  000000                     
  4824  000000                     
  4825  000000                     
  4826  000000                     
  4827  000000                     
  4828  000000                     
  4829  000000                     
  4830  000000                     
  4831  000000                     
  4832  000000                     
  4833  000000                     
  4834  000000                     
  4835  000000                     
  4836  000000                     
  4837  000000                     
  4838  000000                     
  4839  000000                     
  4840  000000                     
  4841  000000                     
  4842  000000                     
  4843  000000                     
  4844  000000                     
  4845  000000                     
  4846  000000                     
  4847  000000                     
  4848  000000                     
  4849  000000                     
  4850  000000                     
  4851  000000                     
  4852  000000                     
  4853  000000                     
  4854  000000                     
  4855  000000                     
  4856  000000                     
  4857  000000                     
  4858  000000                     
  4859  000000                     
  4860  000000                     
  4861  000000                     
  4862  000000                     
  4863  000000                     
  4864  000000                     
  4865  000000                     
  4866  000000                     
  4867  000000                     
  4868  000000                     
  4869  000000                     
  4870  000000                     
  4871  000000                     
  4872  000000                     
  4873  000000                     
  4874  000000                     
  4875  000000                     
  4876  000000                     
  4877  000000                     
  4878  000000                     
  4879  000000                     
  4880  000000                     
  4881  000000                     
  4882  000000                     
  4883  000000                     
  4884  000000                     
  4885  000000                     
  4886  000000                     
  4887  000000                     
  4888  000000                     
  4889  000000                     
  4890  000000                     
  4891  000000                     
  4892  000000                     
  4893  000000                     
  4894  000000                     
  4895  000000                     
  4896  000000                     
  4897  000000                     
  4898  000000                     
  4899  000000                     
  4900  000000                     
  4901  000000                     
  4902  000000                     
  4903  000000                     
  4904  000000                     
  4905  000000                     
  4906  000000                     
  4907  000000                     
  4908  000000                     
  4909  000000                     
  4910  000000                     
  4911  000000                     
  4912  000000                     
  4913  000000                     
  4914  000000                     
  4915  000000                     
  4916  000000                     
  4917  000000                     
  4918  000000                     
  4919  000000                     
  4920  000000                     
  4921  000000                     
  4922  000000                     
  4923  000000                     
  4924  000000                     
  4925  000000                     
  4926  000000                     
  4927  000000                     
  4928  000000                     
  4929  000000                     
  4930  000000                     
  4931  000000                     
  4932  000000                     
  4933  000000                     
  4934  000000                     
  4935  000000                     
  4936  000000                     
  4937  000000                     
  4938  000000                     
  4939  000000                     
  4940  000000                     
  4941  000000                     
  4942  000000                     
  4943  000000                     
  4944  000000                     
  4945  000000                     
  4946  000000                     
  4947  000000                     
  4948  000000                     
  4949  000000                     
  4950  000000                     
  4951  000000                     
  4952  000000                     
  4953  000000                     
  4954  000000                     
  4955  000000                     
  4956  000000                     
  4957  000000                     
  4958  000000                     
  4959  000000                     
  4960  000000                     
  4961  000000                     
  4962  000000                     
  4963  000000                     
  4964  000000                     
  4965  000000                     
  4966  000000                     
  4967  000000                     
  4968  000000                     
  4969  000000                     
  4970  000000                     
  4971  000000                     
  4972  000000                     
  4973  000000                     
  4974  000000                     
  4975  000000                     
  4976  000000                     
  4977  000000                     
  4978  000000                     
  4979  000000                     
  4980  000000                     
  4981  000000                     
  4982  000000                     
  4983  000000                     
  4984  000000                     
  4985  000000                     
  4986  000000                     
  4987  000000                     
  4988  000000                     
  4989  000000                     
  4990  000000                     
  4991  000000                     
  4992  000000                     
  4993  000000                     
  4994  000000                     
  4995  000000                     
  4996  000000                     
  4997  000000                     
  4998  000000                     
  4999  000000                     
  5000  000000                     
  5001  000000                     
  5002  000000                     
  5003  000000                     
  5004  000000                     
  5005  000000                     
  5006  000000                     
  5007  000000                     
  5008  000000                     
  5009  000000                     
  5010  000000                     
  5011  000000                     
  5012  000000                     
  5013  000000                     
  5014  000000                     
  5015  000000                     
  5016  000000                     
  5017  000000                     
  5018  000000                     
  5019  000000                     
  5020  000000                     
  5021  000000                     
  5022  000000                     
  5023  000000                     
  5024  000000                     
  5025  000000                     
  5026  000000                     
  5027  000000                     
  5028  000000                     
  5029  000000                     
  5030  000000                     
  5031  000000                     
  5032  000000                     
  5033  000000                     
  5034  000000                     
  5035  000000                     
  5036  000000                     
  5037  000000                     
  5038  000000                     
  5039  000000                     
  5040  000000                     
  5041  000000                     
  5042  000000                     
  5043  000000                     
  5044  000000                     
  5045  000000                     
  5046  000000                     
  5047  000000                     
  5048  000000                     
  5049  000000                     
  5050  000000                     
  5051  000000                     
  5052  000000                     
  5053  000000                     
  5054  000000                     
  5055  000000                     
  5056  000000                     
  5057  000000                     
  5058  000000                     
  5059  000000                     
  5060  000000                     
  5061  000000                     
  5062  000000                     
  5063  000000                     
  5064  000000                     
  5065  000000                     
  5066  000000                     
  5067  000000                     
  5068  000000                     
  5069  000000                     
  5070  000000                     
  5071  000000                     
  5072  000000                     
  5073  000000                     
  5074  000000                     
  5075  000000                     
  5076  000000                     
  5077  000000                     
  5078  000000                     
  5079  000000                     
  5080  000000                     
  5081  000000                     
  5082  000000                     
  5083  000000                     
  5084  000000                     
  5085  000000                     
  5086  000000                     
  5087  000000                     
  5088  000000                     
  5089  000000                     
  5090  000000                     
  5091  000000                     
  5092  000000                     
  5093  000000                     
  5094  000000                     
  5095  000000                     
  5096  000000                     
  5097  000000                     
  5098  000000                     
  5099  000000                     
  5100  000000                     
  5101  000000                     
  5102  000000                     
  5103  000000                     
  5104  000000                     
  5105  000000                     
  5106  000000                     
  5107  000000                     
  5108  000000                     
  5109  000000                     
  5110  000000                     
  5111  000000                     
  5112  000000                     
  5113  000000                     
  5114  000000                     
  5115  000000                     
  5116  000000                     
  5117  000000                     
  5118  000000                     
  5119  000000                     
  5120  000000                     
  5121  000000                     
  5122  000000                     
  5123  000000                     
  5124  000000                     
  5125  000000                     
  5126  000000                     
  5127  000000                     
  5128  000000                     
  5129  000000                     
  5130  000000                     
  5131  000000                     
  5132  000000                     
  5133  000000                     
  5134  000000                     
  5135  000000                     
  5136  000000                     
  5137  000000                     
  5138  000000                     
  5139  000000                     
  5140  000000                     
  5141  000000                     
  5142  000000                     
  5143  000000                     
  5144  000000                     
  5145  000000                     
  5146  000000                     
  5147  000000                     
  5148  000000                     
  5149  000000                     
  5150  000000                     
  5151  000000                     
  5152  000000                     
  5153  000000                     
  5154  000000                     
  5155  000000                     
  5156  000000                     
  5157  000000                     
  5158  000000                     
  5159  000000                     
  5160  000000                     
  5161  000000                     
  5162  000000                     
  5163  000000                     
  5164  000000                     
  5165  000000                     
  5166  000000                     
  5167  000000                     
  5168  000000                     
  5169  000000                     
  5170  000000                     
  5171  000000                     
  5172  000000                     
  5173  000000                     
  5174  000000                     
  5175  000000                     
  5176  000000                     
  5177  000000                     
  5178  000000                     
  5179  000000                     
  5180  000000                     
  5181  000000                     
  5182  000000                     
  5183  000000                     
  5184  000000                     
  5185  000000                     
  5186  000000                     
  5187  000000                     
  5188  000000                     
  5189  000000                     
  5190  000000                     
  5191  000000                     
  5192  000000                     
  5193  000000                     
  5194  000000                     
  5195  000000                     
  5196  000000                     
  5197  000000                     
  5198  000000                     
  5199  000000                     
  5200  000000                     
  5201  000000                     
  5202  000000                     
  5203  000000                     
  5204  000000                     
  5205  000000                     
  5206  000000                     
  5207  000000                     
  5208  000000                     
  5209  000000                     
  5210  000000                     
  5211  000000                     
  5212  000000                     
  5213  000000                     
  5214  000000                     
  5215  000000                     
  5216  000000                     
  5217  000000                     
  5218  000000                     
  5219  000000                     
  5220  000000                     
  5221  000000                     
  5222  000000                     
  5223  000000                     
  5224  000000                     
  5225  000000                     
  5226                           
  5227                           	psect	bigbss
  5228  000E6D                     F1694:
  5229  000E6D                     	ds	1
  5230  000E6D                     F1695:
  5231  000E6D                     	ds	1
  5232  000E6D                     F1700:
  5233  000E6D                     	ds	1
  5234  000E6D                     F1701:
  5235  000E6D                     	ds	1
  5236  000E6D                     F1706:
  5237  000E6D                     	ds	1
  5238  000E6D                     F1707:
  5239  000E6D                     	ds	1
  5240  000E6D                     F1708:
  5241  000E6D                     	ds	1
  5242  000E6D                     F1735:
  5243  000E6D                     	ds	1
  5244  000E6D                     F1743:
  5245  000E6D                     	ds	1
  5246  000E6D                     F1751:
  5247  000E6D                     	ds	1
  5248  000E6D                     F1755:
  5249  000E6D                     	ds	1
  5250  000E6D                     F1758:
  5251  000E6D                     	ds	1
  5252  000000                     
  5253  000000                     
  5254  000000                     
  5255  000000                     
  5256  000000                     
  5257  000000                     
  5258  000000                     
  5259  000000                     
  5260  000000                     
  5261  000000                     
  5262  000000                     
  5263  000000                     
  5264  000000                     
  5265  000000                     
  5266  000000                     
  5267  000000                     
  5268  000000                     
  5269  000000                     
  5270  000000                     
  5271  000000                     
  5272  000000                     
  5273  000000                     
  5274  000000                     
  5275  000000                     
  5276  000000                     
  5277  000000                     
  5278  000000                     
  5279  000000                     
  5280  000000                     
  5281  000000                     
  5282  000000                     
  5283  000000                     
  5284  000000                     
  5285  000000                     
  5286  000000                     
  5287  000000                     
  5288  000000                     
  5289  000000                     
  5290  000000                     
  5291  000000                     
  5292  000000                     
  5293  000000                     
  5294  000000                     
  5295  000000                     
  5296  000000                     
  5297  000000                     
  5298  000000                     
  5299  000000                     
  5300  000000                     
  5301  000000                     
  5302  000000                     
  5303  000000                     
  5304  000000                     
  5305  000000                     
  5306  000000                     
  5307  000000                     
  5308  000000                     
  5309  000000                     
  5310  000000                     
  5311  000000                     
  5312  000000                     
  5313  000000                     
  5314  000000                     
  5315  000000                     
  5316  000000                     
  5317  000000                     
  5318  000000                     
  5319  000000                     
  5320  000000                     
  5321  000000                     
  5322  000000                     
  5323  000000                     
  5324  000000                     
  5325  000000                     
  5326  000000                     
  5327  000000                     
  5328  000000                     
  5329  000000                     
  5330  000E6D                     _PmrtimFlt1:
  5331  000E6D                     	ds	1
  5332  000E6D                     _PmrtimFlt2:
  5333  000E6D                     	ds	1
  5334  000000                     
  5335  000000                     
  5336  000000                     
  5337  000000                     
  5338  000000                     
  5339  000000                     
  5340  000000                     
  5341  000000                     
  5342  000000                     
  5343  000000                     
  5344  000000                     
  5345  000000                     
  5346  000000                     
  5347  000000                     
  5348  000000                     
  5349  000000                     
  5350  000000                     
  5351  000000                     
  5352  000000                     
  5353  000000                     
  5354  000000                     
  5355  000000                     
  5356  000000                     
  5357  000000                     
  5358  000000                     
  5359  000000                     
  5360  000000                     
  5361  000000                     
  5362  000000                     
  5363  000000                     
  5364  000000                     
  5365  000000                     
  5366  000000                     
  5367  000000                     
  5368  000000                     
  5369  000000                     
  5370  000000                     
  5371  000000                     
  5372  000000                     
  5373  000000                     
  5374  000000                     
  5375  000000                     
  5376  000000                     
  5377  000000                     
  5378  000000                     
  5379  000000                     
  5380  000000                     
  5381  000000                     
  5382  000000                     
  5383  000000                     
  5384  000E6D                     _wff:
  5385  000E6D                     	ds	12
  5386  000E6D                     _wff2:
  5387  000E6D                     	ds	12
  5388                           
  5389                           	psect	bss
  5390  00005B                     _PmrtimFlt3:
  5391  00005B                     	ds	2
  5392  000000                     
  5393  000000                     
  5394  000000                     
  5395  000000                     
  5396  00005B                     _pbf:
  5397  00005B                     	ds	2
  5398  00005B                     _DtCS:
  5399  00005B                     	ds	4
  5400  00005B                     _DtZW:
  5401  00005B                     	ds	4
  5402  00005B                     _PFN:
  5403  00005B                     	ds	7
  5404  00005B                     _DtCW:
  5405  00005B                     	ds	15
  5406  00005B                     _DtCO:
  5407  00005B                     	ds	19
  5408  00005B                     _DtIN:
  5409  00005B                     	ds	20
  5410                           
  5411                           	psect	temp
  5412  000000                     btemp:
  5413  000000                     	ds	8
  5414                           tblptrh	equ	0xFF7
  5415                           tblptrl	equ	0xFF6
  5416                           prodl	equ	0xFF3
  5417                           indf0	equ	0xFEF
  5418                           postinc0	equ	0xFEE
  5419                           fsr0h	equ	0xFEA
  5420                           fsr0l	equ	0xFE9
  5421                           wreg	equ	0xFE8
  5422                           indf1	equ	0xFE7
  5423                           fsr1h	equ	0xFE2
  5424                           fsr1l	equ	0xFE1
  5425                           fsr2l	equ	0xFD9
  5426                           status	equ	0xFD8


HI-TECH Software PICC-18 Macro Assembler V9.51PL3
Symbol Table                                           Mon Sep 14 17:33:12 2020

                 _SetTrbPGD 9884           __end_of_SetTrbPGD 996E  
                         _M 0306                    _PomiarCO 90EA  
                  _PomiarCS A5C0                    _PomiarCW 95C0  
                  _PomiarIN 958A                    _PomiarZW 97AA  
                        l30 8B76                          l22 8AFC  
                        l31 8B78                          l40 8C12  
                        l32 8BD0                          l33 8CB4  
                        l25 8B14                          l17 8AC8  
                        l42 8C78                          l34 8C1A  
                        l18 8AD4                          l43 8C44  
                        l44 8C24                          l36 8C08  
                        l28 8B3E                          l37 8BFA  
                        l70 8D4E                          l71 8D40  
                        l55 8C2C                          l80 8DF4  
                        l64 8CAA                          l65 8DF0  
                        l49 8C24                          l82 8E0A  
                        l83 8E76                          l75 8D7E  
                        l59 8CA8                          l92 8E7E  
                        l84 8E28                          l76 8DE8  
                        l68 8D5A                          l85 8E12  
                        l77 8DC2                          l96 8EAC  
                        l88 8E5E                          l97 8F18  
                        l89 8E3A                          l98 8ECA  
                        l99 8EB4                   _PomiarECO A30A  
                        u65 8B38                          u85 8B9E  
                        u95 8BC8                   _PomiarPCO A06A  
                 _PomiarPFN A3BE                   _PomiarPCW A1DA  
         __end_of_PomiarECO A39A           __end_of_PomiarPCO A180  
         __end_of_PomiarPFN A5C0           __end_of_PomiarPCW A2E6  
              ?a_GetPGD_PCO 00AD                    _StartRTG FD4A  
                  _StartRTS FCA2  __end_of_FiltrPomiarowyCOCW 90EA  
                       l110 8F52                         l102 8F00  
                       l103 8EDC                         l200 9492  
                       l120 8FD6                         l112 8F64  
                       l201 9464                         l121 8FE6  
                       l113 8F70                         l210 94CA  
                       l130 9086                         l122 8FF8  
                       l114 8F86                         l106 8F20  
                       l211 94D4                         l131 908A  
                       l220 953E                         l212 94DE  
                       l140 951A                         l132 90C8  
                       l124 9008                         l116 8F98  
                       l221 9568                         l213 94E8  
                       l205 948E                         l141 9508  
                       l125 9040                         l117 8FA4  
                       l310 9984                         l222 9552  
                       l214 94F2                         l150 9206  
                       l142 9142                         l134 90D6  
                       l126 9034                         l311 9980  
                       l303 9930                         l223 9556  
                       l215 94FC                         l207 94B2  
                       l151 91D8                         l119 8FC4  
                       l400 9F98                         l240 9626  
                       l232 95B6                         l224 9562  
                       l208 94B6                         l144 9186  
                       l128 9044                         l313 9A66  
                       l305 9904                         l217 9528  
                       l209 94C0                         l129 90CC  
                       l314 99D0                         l250 964A  
                       l242 961A                         l218 952C  
                       l138 9138                         l403 9FCC  
                       l323 9A34                         l315 99C6  
                       l235 95FE                         l227 9574  
                       l219 953A                         l155 9202  
                       l500 A68E                         l420 A07C  
                       l404 9FD2                         l340 9A7A  
                       l324 99EC                         l316 99B4  
                       l252 9670                         l228 9578  
                       l180 92EC                         l501 A69A  
                       l421 A080                         l405 9FEA  
                       l333 9A4A                         l317 9998  
                       l237 9750                         l229 9584  
                       l510 A750                         l502 A70E  
                       l422 A0DE                         l350 9B9E  
                       l342 9A96                         l326 9A2E  
                       l318 999A                         l270 971A  
                       l254 9696                         l238 9740  
                       l511 A754                         l431 A156  
                       l423 A0B4                         l407 9FF0  
                       l351 9BFA                         l327 9A1E  
                       l319 99AC                         l271 971E  
                       l263 96E6                         l255 96A6  
                       l239 9608                         l183 9316  
                       l175 92F0                         l167 922C  
                       l512 A766                         l440 A1C4  
                       l432 A14A                         l424 A0C2  
                       l408 A02C                         l352 9BCC  
                       l280 9790                         l264 96FC  
                       l192 93CE                         l184 9344  
                       l176 92C2                         l513 A76A  
                       l505 A744                         l425 A0DA  
                       l409 A026                         l353 9BF4  
                       l281 9794                         l265 96F0  
                       l257 96E2                         l185 9372  
                       l169 9270                         l514 A77C  
                       l506 A73A                         l450 A246  
                       l442 A1D4                         l434 A15C  
                       l362 9C82                         l282 979E  
                       l274 976C                         l258 96CE  
                       l194 9412                         l186 93A0  
                       l427 A0F2                         l371 9D10  
                       l363 9C88                         l355 9C12  
                       l347 9D76                         l339 9A7E  
                       l291 980C                         l275 9762  
                       l267 96F6                         l259 96D8  
                       l452 A258                         l428 A100  
                       l380 9FA4                         l372 9D16  
                       l364 9CA0                         l348 9CE8  
                       l292 9818                         l517 A79C  
                       l509 A790                         l461 A2C2  
                       l445 A1E8                         l429 A116  
                       l381 9F16                         l373 9D2E  
                       l357 9C18                         l349 9C5A  
                       l293 9874                         l285 97E0  
                       l277 9770                         l470 A37E  
                       l454 A266                         l446 A1DC  
                       l438 A1AE                         l390 9F10  
                       l382 9E5A                         l366 9CA6  
                       l358 9C54                         l294 986E  
                       l278 977E                         l455 A27E  
                       l447 A1DE                         l439 A1C8  
                       l391 9F0A                         l383 9EB6  
                       l375 9D34                         l367 9CE2  
                       l359 9C4E                         l295 983E  
                       l287 987A                         l279 9782  
                       l384 9E88                         l376 9D70  
                       l368 9CDC                         l288 9808  
                       l465 A36A                         l457 A2A2  
                       l449 A282                         l385 9EB0  
                       l377 9D6A                         l482 A584  
                       l466 A342                         l394 9F3E  
                       l483 A582                         l475 A59E  
                       l467 A34E                         l459 A2B4  
                       l395 9F44                         l387 9ECE  
                       l484 A57E                         l476 A442  
                       l468 A366                         l396 9F5C  
                       l493 A684                         l477 A54E  
                       l469 A38A                         l389 9ED4  
                       l494 A64C                         l478 A4A2  
                       l398 9F62                         l495 A658  
                       l487 A5B0                         l399 9F9E  
                       l489 A62E                         l499 A716  
                  _WriteECO A2E6                         u100 8BCA  
                       u335 8CF2                         u345 8D1C  
                       _PFN 0067                    _WritePCO A03E  
                       u820 91B0                    _WritePFN A39A  
                       u735 90B0                         u825 91AE  
                       u761 9112                    _WritePCW A180  
                       u780 9118                         u855 9200  
                       u980 929A                         _RTG FD7A  
                       u985 9298                         _RTS FCC6  
                       _pbf 005D                         _wff 0E7B  
                       wreg 000FE8                   _StartRTdS FC66  
                 _StartTim1 8AE8                   _StartTim2 8B00  
                 _StartTim3 8B18             _ReturnACfromNTC 0462  
                      F1700 0E6F                        F1701 0E70  
                      F1706 0E71           __end_of_StartTim1 8AEE  
                      F1707 0E72           __end_of_StartTim2 8B06  
                      F1708 0E73           __end_of_StartTim3 8B22  
                      F1751 0E76                        F1743 0E75  
                      F1735 0E74                        F1755 0E77  
                      F1758 0E78                        F1694 0E6D  
                      F1695 0E6E                  ?a_PomiarCS 00A9  
                ?a_PomiarCW 00A9                  _PmrtimFlt1 0E79  
                _PmrtimFlt2 0E7A                  _PmrtimFlt3 005B  
                      u1015 92EA                        u1035 933E  
                      u1140 943C                        u1045 936C  
                      u1055 939A                        u1145 943A  
                      u1065 93C6                        u2220 9A74  
                      u1341 95AA                        u1175 948C  
                      u2080 9A0A                        u1360 95B0  
                      u1530 96DE                        u1371 95E0  
                      u1390 95E6                        u1730 9802  
                      u2285 9B98                        u1661 97CA  
                      u2535 9E54                        u1680 97D0  
                      u3611 A5F4                        u1860 9942  
                      u3525 A570                        u1870 9944  
                      u3561 A5DA                        u3650 A5FA  
                      u1980 99A6                        u3581 A5E2  
                      _MGSD 03AA                        u3921 A786  
                      u3940 A78C                _ReadEEPopPFN 8560  
                      _DtCO 007D                        _DtCS 005F  
                      _DtCW 006E                        _DtIN 0090  
                      _RTdS FC8A                        _DtZW 0063  
                      _wff2 0E87                        aldiv 0C7A  
                      fsr0h 000FEA                        fsr1h 000FE2  
                      indf0 000FEF                        fsr0l 000FE9  
                      indf1 000FE7                        fsr1l 000FE1  
                      fsr2l 000FD9                        btemp 0000  
                      awdiv 0D4A                        awmul 0E24  
                      prodl 000FF3             __end_of_ReadPCO A03E  
           __end_of_PmrTim1 8B00             __end_of_PmrTim2 8B18  
           __end_of_PmrTim3 8B42                 ?a_SetTrbPGD 00A9  
           _PredkoscZmianCO 8E9C             _PredkoscZmianCW 8DFA  
               ?a_PomiarPCO 00A9                  _WriteEEECO 84C8  
                _WriteEEPCO 845C                  _WriteEEPFN 84FA  
                _WriteEEPCW 8426                       _RSDT1 032D  
                     _DtKNF 02AE                       _RdPrt F438  
                used_btemp0 0001                  used_btemp1 0001  
                used_btemp2 0001                  used_btemp3 0001  
                used_btemp4 0001                  used_btemp5 0001  
                used_btemp6 0001                  used_btemp7 0001  
               _IncPmrTimer 8ABC                     _BitSet2 07D8  
                   _GetBit2 0772                    ?_BitSet2 00AC  
       __end_of_IncPmrTimer 8AE8                       status 000FD8  
                  ?_GetBit2 00AE                     _ReadPCO A032  
                   _PmrTim1 8AEE                     _PmrTim2 8B06  
                   _PmrTim3 8B24                     __Lparam 00A4  
                  ?_PmrTim3 00A4                  _GetPGD_PCO 9AB0  
        _FiltrPomiarowyCOCW 8FFE          __end_of_GetPGD_PCO A032  
          __end_of_PomiarCO 958A            __end_of_PomiarCS A7A2  
          __end_of_PomiarCW 97AA            __end_of_PomiarIN 95C0  
          __end_of_PomiarZW 9884                     __ramtop 1000  
          __end_of_WriteECO A30A            __end_of_WritePCO A06A  
          __end_of_WritePFN A3BE            __end_of_WritePCW A1A4  
   __end_of_PredkoscZmianCO 8F3E     __end_of_PredkoscZmianCW 8E9C  
               _InitDataPmr 8A86         __end_of_InitDataPmr 8ABC  
               _WriteEEPPGD 848E                 _ReadTabZNTC 049E  
                    _ChkPGD 7DAA                      _ChkPCO 7D6E  
                    _ReadAC 0390                      _SetPFN 8306  
                _ReadEEPPGD 8488                     postinc0 000FEE  
                    aldiv_f 0EC8                      almul_f 0EDC  
                 _FltParMod 8F3E                  _ReadTabNTC 03FC  
         __end_of_FltParMod 8FFE                      tblptrh 000FF7  
                    tblptrl 000FF6                   _ReadEEECO 84C4  
                 _ReadEEPCO 8458                   _ReadEEPFN 8548  
                 _ReadEEPCW 8422                   _GoldenEye 8B42  
         __end_of_GoldenEye 8DFA                _SetMinMaxPGD 7D44  
              _SetMinMaxPCO 7CC8                   _SetModPCO 996E  
                 _SetModPCW A1A4           __end_of_SetModPCO 9AB0  
         __end_of_SetModPCW A1DA  
