

HI-TECH Software PICC-18 Macro Assembler V9.51PL3
                                                       Fri Nov 21 09:58:03 2014


     1                           	processor	18F65J90
     2                           	opt	pw 80
     3                           	psect	text,global,reloc=2,class=CODE,delta=1
     4                           	psect	temp,global,ovrld,common,class=COMRAM,spa
      +                          ce=1,delta=1
     5                           	psect	intsave_regs,global,class=BIGRAM,space=1,
      +                          delta=1
     6  000000                     
     7  000000                     
     8  000000                     
     9  000000                     
    10  000000                     
    11  000000                     
    12  000000                     
    13  000000                     
    14  000000                     
    15  000000                     
    16  000000                     
    17  000000                     
    18  000000                     
    19  000000                     
    20  000000                     
    21  000000                     
    22  000000                     
    23  000000                     
    24  000000                     
    25  000000                     
    26  000000                     
    27  000000                     
    28  000000                     
    29  000000                     
    30  000000                     
    31  000000                     
    32  000000                     
    33  000000                     
    34  000000                     
    35  000000                     
    36  000000                     
    37  000000                     
    38  000000                     
    39  000000                     
    40  000000                     
    41  000000                     
    42  000000                     
    43  000000                     
    44  000000                     
    45  000000                     
    46  000000                     
    47  000000                     
    48  000000                     
    49  000000                     
    50  000000                     
    51  000000                     
    52  000000                     
    53  000000                     
    54  000000                     
    55  000000                     
    56  000000                     
    57  000000                     
    58  000000                     
    59  000000                     
    60  000000                     
    61  000000                     
    62  000000                     
    63  000000                     
    64  000000                     
    65  000000                     
    66  000000                     
    67  000000                     
    68  000000                     
    69  000000                     
    70  000000                     
    71  000000                     
    72  000000                     
    73  000000                     
    74  000000                     
    75  000000                     
    76  000000                     
    77  000000                     
    78  000000                     
    79  000000                     
    80  000000                     
    81  000000                     
    82  000000                     
    83  000000                     
    84  000000                     
    85  000000                     
    86  000000                     
    87  000000                     
    88  000000                     
    89  000000                     
    90  000000                     
    91  000000                     
    92  000000                     
    93  000000                     
    94  000000                     
    95                           
    96                           	psect	text
    97                           ;pic18f85j90.h: 18: static volatile near unsigne
      +                          d char TOSU @ 0xFFF;
    98                           ;pic18f85j90.h: 19: static volatile near unsigne
      +                          d char TOSH @ 0xFFE;
    99                           ;pic18f85j90.h: 20: static volatile near unsigne
      +                          d char TOSL @ 0xFFD;
   100                           ;pic18f85j90.h: 21: static volatile near unsigne
      +                          d char STKPTR @ 0xFFC;
   101                           ;pic18f85j90.h: 22: static volatile near unsigne
      +                          d char PCLATU @ 0xFFB;
   102                           ;pic18f85j90.h: 23: static volatile near unsigne
      +                          d char PCLATH @ 0xFFA;
   103                           ;pic18f85j90.h: 24: static volatile near unsigne
      +                          d char PCL @ 0xFF9;
   104                           ;pic18f85j90.h: 25: static volatile far unsigned
      +                           char * TBLPTR @ 0xFF6;
   105                           ;pic18f85j90.h: 26: static volatile near unsigne
      +                          d char TBLPTRU @ 0xFF8;
   106                           ;pic18f85j90.h: 27: static volatile near unsigne
      +                          d char TBLPTRH @ 0xFF7;
   107                           ;pic18f85j90.h: 28: static volatile near unsigne
      +                          d char TBLPTRL @ 0xFF6;
   108                           ;pic18f85j90.h: 29: static volatile near unsigne
      +                          d char TABLAT @ 0xFF5;
   109                           ;pic18f85j90.h: 30: static volatile near unsigne
      +                          d char PRODH @ 0xFF4;
   110                           ;pic18f85j90.h: 31: static volatile near unsigne
      +                          d char PRODL @ 0xFF3;
   111                           ;pic18f85j90.h: 32: static volatile near unsigne
      +                          d char INTCON @ 0xFF2;
   112                           ;pic18f85j90.h: 33: static near unsigned char IN
      +                          TCON2 @ 0xFF1;
   113                           ;pic18f85j90.h: 34: static volatile near unsigne
      +                          d char INTCON3 @ 0xFF0;
   114                           ;pic18f85j90.h: 35: static volatile near unsigne
      +                          d char INDF0 @ 0xFEF;
   115                           ;pic18f85j90.h: 36: static volatile near unsigne
      +                          d char POSTINC0 @ 0xFEE;
   116                           ;pic18f85j90.h: 37: static volatile near unsigne
      +                          d char POSTDEC0 @ 0xFED;
   117                           ;pic18f85j90.h: 38: static volatile near unsigne
      +                          d char PREINC0 @ 0xFEC;
   118                           ;pic18f85j90.h: 39: static volatile near unsigne
      +                          d char PLUSW0 @ 0xFEB;
   119                           ;pic18f85j90.h: 40: static volatile near unsigne
      +                          d char FSR0H @ 0xFEA;
   120                           ;pic18f85j90.h: 41: static volatile near unsigne
      +                          d char FSR0L @ 0xFE9;
   121                           ;pic18f85j90.h: 42: static volatile near unsigne
      +                          d char WREG @ 0xFE8;
   122                           ;pic18f85j90.h: 43: static volatile near unsigne
      +                          d char INDF1 @ 0xFE7;
   123                           ;pic18f85j90.h: 44: static volatile near unsigne
      +                          d char POSTINC1 @ 0xFE6;
   124                           ;pic18f85j90.h: 45: static volatile near unsigne
      +                          d char POSTDEC1 @ 0xFE5;
   125                           ;pic18f85j90.h: 46: static volatile near unsigne
      +                          d char PREINC1 @ 0xFE4;
   126                           ;pic18f85j90.h: 47: static volatile near unsigne
      +                          d char PLUSW1 @ 0xFE3;
   127                           ;pic18f85j90.h: 48: static volatile near unsigne
      +                          d char FSR1H @ 0xFE2;
   128                           ;pic18f85j90.h: 49: static volatile near unsigne
      +                          d char FSR1L @ 0xFE1;
   129                           ;pic18f85j90.h: 50: static near unsigned char BS
      +                          R @ 0xFE0;
   130                           ;pic18f85j90.h: 51: static volatile near unsigne
      +                          d char INDF2 @ 0xFDF;
   131                           ;pic18f85j90.h: 52: static volatile near unsigne
      +                          d char POSTINC2 @ 0xFDE;
   132                           ;pic18f85j90.h: 53: static volatile near unsigne
      +                          d char POSTDEC2 @ 0xFDD;
   133                           ;pic18f85j90.h: 54: static volatile near unsigne
      +                          d char PREINC2 @ 0xFDC;
   134                           ;pic18f85j90.h: 55: static volatile near unsigne
      +                          d char PLUSW2 @ 0xFDB;
   135                           ;pic18f85j90.h: 56: static volatile near unsigne
      +                          d char FSR2H @ 0xFDA;
   136                           ;pic18f85j90.h: 57: static volatile near unsigne
      +                          d char FSR2L @ 0xFD9;
   137                           ;pic18f85j90.h: 58: static volatile near unsigne
      +                          d char STATUS @ 0xFD8;
   138                           ;pic18f85j90.h: 59: static volatile near unsigne
      +                          d char TMR0H @ 0xFD7;
   139                           ;pic18f85j90.h: 60: static volatile near unsigne
      +                          d char TMR0L @ 0xFD6;
   140                           ;pic18f85j90.h: 62: static volatile near unsigne
      +                          d int TMR0 @ 0xFD6;
   141                           ;pic18f85j90.h: 63: static near unsigned char T0
      +                          CON @ 0xFD5;
   142                           ;pic18f85j90.h: 64: static volatile near unsigne
      +                          d char OSCCON @ 0xFD3;
   143                           ;pic18f85j90.h: 65: static near unsigned char LC
      +                          DREG @ 0xFD2;
   144                           ;pic18f85j90.h: 66: static volatile near unsigne
      +                          d char WDTCON @ 0xFD1;
   145                           ;pic18f85j90.h: 67: static volatile near unsigne
      +                          d char RCON @ 0xFD0;
   146                           ;pic18f85j90.h: 68: static volatile near unsigne
      +                          d char TMR1H @ 0xFCF;
   147                           ;pic18f85j90.h: 69: static volatile near unsigne
      +                          d char TMR1L @ 0xFCE;
   148                           ;pic18f85j90.h: 71: static volatile near unsigne
      +                          d int TMR1 @ 0xFCE;
   149                           ;pic18f85j90.h: 72: static near unsigned char T1
      +                          CON @ 0xFCD;
   150                           ;pic18f85j90.h: 73: static volatile near unsigne
      +                          d char TMR2 @ 0xFCC;
   151                           ;pic18f85j90.h: 74: static near unsigned char PR
      +                          2 @ 0xFCB;
   152                           ;pic18f85j90.h: 75: static near unsigned char T2
      +                          CON @ 0xFCA;
   153                           ;pic18f85j90.h: 76: static volatile near unsigne
      +                          d char SSPBUF @ 0xFC9;
   154                           ;pic18f85j90.h: 77: static near unsigned char SS
      +                          PADD @ 0xFC8;
   155                           ;pic18f85j90.h: 78: static volatile near unsigne
      +                          d char SSPSTAT @ 0xFC7;
   156                           ;pic18f85j90.h: 79: static volatile near unsigne
      +                          d char SSPCON1 @ 0xFC6;
   157                           ;pic18f85j90.h: 80: static volatile near unsigne
      +                          d char SSPCON2 @ 0xFC5;
   158                           ;pic18f85j90.h: 81: static volatile near unsigne
      +                          d char ADRESH @ 0xFC4;
   159                           ;pic18f85j90.h: 82: static volatile near unsigne
      +                          d char ADRESL @ 0xFC3;
   160                           ;pic18f85j90.h: 84: static volatile near unsigne
      +                          d int ADRES @ 0xFC3;
   161                           ;pic18f85j90.h: 85: static volatile near unsigne
      +                          d char ADCON0 @ 0xFC2;
   162                           ;pic18f85j90.h: 86: static near unsigned char AD
      +                          CON1 @ 0xFC1;
   163                           ;pic18f85j90.h: 87: static near unsigned char AD
      +                          CON2 @ 0xFC0;
   164                           ;pic18f85j90.h: 88: static near unsigned char LC
      +                          DDATA4 @ 0xFBF;
   165                           ;pic18f85j90.h: 89: static near unsigned char LC
      +                          DDATA3 @ 0xFBE;
   166                           ;pic18f85j90.h: 90: static near unsigned char LC
      +                          DDATA2 @ 0xFBD;
   167                           ;pic18f85j90.h: 91: static near unsigned char LC
      +                          DDATA1 @ 0xFBC;
   168                           ;pic18f85j90.h: 92: static near unsigned char LC
      +                          DDATA0 @ 0xFBB;
   169                           ;pic18f85j90.h: 93: static near unsigned char LC
      +                          DSE5 @ 0xFBA;
   170                           ;pic18f85j90.h: 94: static near unsigned char LC
      +                          DSE4 @ 0xFB9;
   171                           ;pic18f85j90.h: 95: static near unsigned char LC
      +                          DSE3 @ 0xFB8;
   172                           ;pic18f85j90.h: 96: static near unsigned char LC
      +                          DSE2 @ 0xFB7;
   173                           ;pic18f85j90.h: 97: static near unsigned char LC
      +                          DSE1 @ 0xFB6;
   174                           ;pic18f85j90.h: 98: static volatile near unsigne
      +                          d char CVRCON @ 0xFB5;
   175                           ;pic18f85j90.h: 99: static volatile near unsigne
      +                          d char CMCON @ 0xFB4;
   176                           ;pic18f85j90.h: 100: static volatile near unsign
      +                          ed char TMR3H @ 0xFB3;
   177                           ;pic18f85j90.h: 101: static volatile near unsign
      +                          ed char TMR3L @ 0xFB2;
   178                           ;pic18f85j90.h: 103: static volatile near unsign
      +                          ed int TMR3 @ 0xFB2;
   179                           ;pic18f85j90.h: 104: static near unsigned char T
      +                          3CON @ 0xFB1;
   180                           ;pic18f85j90.h: 105: static near unsigned char S
      +                          PBRG1 @ 0xFAF;
   181                           ;pic18f85j90.h: 107: static near unsigned char S
      +                          PBRG @ 0xFAF;
   182                           ;pic18f85j90.h: 108: static volatile near unsign
      +                          ed char RCREG1 @ 0xFAE;
   183                           ;pic18f85j90.h: 110: static volatile near unsign
      +                          ed char RCREG @ 0xFAE;
   184                           ;pic18f85j90.h: 111: static volatile near unsign
      +                          ed char TXREG1 @ 0xFAD;
   185                           ;pic18f85j90.h: 113: static volatile near unsign
      +                          ed char TXREG @ 0xFAD;
   186                           ;pic18f85j90.h: 114: static volatile near unsign
      +                          ed char TXSTA1 @ 0xFAC;
   187                           ;pic18f85j90.h: 116: static volatile near unsign
      +                          ed char TXSTA @ 0xFAC;
   188                           ;pic18f85j90.h: 117: static volatile near unsign
      +                          ed char RCSTA1 @ 0xFAB;
   189                           ;pic18f85j90.h: 119: static volatile near unsign
      +                          ed char RCSTA @ 0xFAB;
   190                           ;pic18f85j90.h: 120: static volatile near unsign
      +                          ed char LCDPS @ 0xFAA;
   191                           ;pic18f85j90.h: 121: static near unsigned char L
      +                          CDSE0 @ 0xFA9;
   192                           ;pic18f85j90.h: 122: static volatile near unsign
      +                          ed char LCDCON @ 0xFA8;
   193                           ;pic18f85j90.h: 123: static volatile near unsign
      +                          ed char EECON2 @ 0xFA7;
   194                           ;pic18f85j90.h: 124: static volatile near unsign
      +                          ed char EECON1 @ 0xFA6;
   195                           ;pic18f85j90.h: 125: static near unsigned char I
      +                          PR3 @ 0xFA5;
   196                           ;pic18f85j90.h: 126: static volatile near unsign
      +                          ed char PIR3 @ 0xFA4;
   197  003CE8                     _ClsScr:
   198                           ;	_lkod2 assigned to ?a_PrintGrafH+0
   199  000000                     _PrintGrafH$lkod2	set	?a_PrintGrafH
   200                           ;       param _lkod1 assigned to ?_PrintGrafH+0
   201  000000                     _PrintGrafH$lkod1	set	?_PrintGrafH
   202                           ;	_dhigh assigned to ?a_ClrDig+0
   203  000000                     _ClrDig$dhigh	set	?a_ClrDig
   204                           ;       param _krs assigned to ?_ClrDig+1
   205  000000                     _ClrDig$krs	set	?_ClrDig+1
   206                           ;       param _dlow assigned to ?_ClrDig+0
   207  000000                     _ClrDig$dlow	set	?_ClrDig
   208                           ;	_pg assigned to ?a_PrintPG+0
   209  000000                     _PrintPG$pg	set	?a_PrintPG
   210                           ;	_pp assigned to ?a_PrintPP+0
   211  000000                     _PrintPP$pp	set	?a_PrintPP
   212                           ;	_tm assigned to ?a_PrintIN+0
   213  000000                     _PrintIN$tm	set	?a_PrintIN
   214                           ;	_tm assigned to ?a_PrintCO+0
   215  000000                     _PrintCO$tm	set	?a_PrintCO
   216                           ;       param _l3 assigned to ?_PrintCO+1
   217  000000                     _PrintCO$l3	set	?_PrintCO+1
   218                           ;       param _only assigned to ?_PrintCO+0
   219  000000                     _PrintCO$only	set	?_PrintCO
   220                           ;	_vn assigned to ?a_PrintVNT+0
   221  000000                     _PrintVNT$vn	set	?a_PrintVNT
   222                           ;       param _only assigned to ?_PrintVNT+0
   223  000000                     _PrintVNT$only	set	?_PrintVNT
   224                           ;	_board assigned to ?a_PrintVER+0
   225  000000                     _PrintVER$board	set	?a_PrintVER
   226                           ;       param _only assigned to ?_PrintVER+1
   227  000000                     _PrintVER$only	set	?_PrintVER+1
   228                           ;       param _ver assigned to ?_PrintVER+0
   229  000000                     _PrintVER$ver	set	?_PrintVER
   230                           ;	_tm assigned to ?a_PrintCW+0
   231  000000                     _PrintCW$tm	set	?a_PrintCW
   232                           ;       param _only assigned to ?_PrintCW+0
   233  000000                     _PrintCW$only	set	?_PrintCW
   234                           ;	_cs assigned to ?a_PrintCS+0
   235  000000                     _PrintCS$cs	set	?a_PrintCS
   236                           ;       param _only assigned to ?_PrintCS+0
   237  000000                     _PrintCS$only	set	?_PrintCS
   238                           ;       param _s assigned to ?_Mark+0
   239  000000                     _Mark$s	set	?_Mark
   240                           ;	_fl assigned to ?a_PrintNstCO+8
   241  000000                     _PrintNstCO$fl	set	?a_PrintNstCO+8
   242                           ;	_fo assigned to ?a_PrintNstCO+6
   243  000000                     _PrintNstCO$fo	set	?a_PrintNstCO+6
   244                           ;	_fn assigned to ?a_PrintNstCO+4
   245  000000                     _PrintNstCO$fn	set	?a_PrintNstCO+4
   246                           ;	_fm assigned to ?a_PrintNstCO+2
   247  000000                     _PrintNstCO$fm	set	?a_PrintNstCO+2
   248                           ;	_fk assigned to ?a_PrintNstCO+0
   249  000000                     _PrintNstCO$fk	set	?a_PrintNstCO
   250                           ;       param _only assigned to ?_PrintNstCO+1
   251  000000                     _PrintNstCO$only	set	?_PrintNstCO+1
   252                           ;       param _kt assigned to ?_PrintNstCO+0
   253  000000                     _PrintNstCO$kt	set	?_PrintNstCO
   254                           ;	_fl assigned to ?a_PrintNstCW2+0
   255  000000                     _PrintNstCW2$fl	set	?a_PrintNstCW2
   256                           ;       param _only assigned to ?_PrintNstCW2+1
   257  000000                     _PrintNstCW2$only	set	?_PrintNstCW2+1
   258                           ;print.c: 571: void ClrMarkMinMax(void);
   259                           ;       param _min assigned to ?_PrintNstCW2+0
   260  000000                     _PrintNstCW2$min	set	?_PrintNstCW2
   261                           ;	_fl assigned to ?a_PrintNstCW+0
   262  000000                     _PrintNstCW$fl	set	?a_PrintNstCW
   263                           ;       param _only assigned to ?_PrintNstCW+0
   264  000000                     _PrintNstCW$only	set	?_PrintNstCW
   265                           ;       param _lo_wr assigned to ?_PrintWPR+0
   266  000000                     _PrintWPR$lo_wr	set	?_PrintWPR
   267                           ;       param _tryb assigned to ?_PrintPR+1
   268  000000                     _PrintPR$tryb	set	?_PrintPR+1
   269                           ;       param _nkod assigned to ?_PrintPR+0
   270  000000                     _PrintPR$nkod	set	?_PrintPR
   271                           ;	_gl assigned to ?a_PrintErrMsg+9
   272  000000                     _PrintErrMsg$gl	set	?a_PrintErrMsg+9
   273                           ;	_fl assigned to ?a_PrintErrMsg+7
   274  000000                     _PrintErrMsg$fl	set	?a_PrintErrMsg+7
   275                           ;	_gk assigned to ?a_PrintErrMsg+5
   276  000000                     _PrintErrMsg$gk	set	?a_PrintErrMsg+5
   277                           ;	_fm assigned to ?a_PrintErrMsg+3
   278  000000                     _PrintErrMsg$fm	set	?a_PrintErrMsg+3
   279                           ;	_fk assigned to ?a_PrintErrMsg+1
   280  000000                     _PrintErrMsg$fk	set	?a_PrintErrMsg+1
   281                           ;	_id assigned to ?a_PrintErrMsg+0
   282  000000                     _PrintErrMsg$id	set	?a_PrintErrMsg
   283                           ;       param _res assigned to ?_PrintErrMsg+4
   284  000000                     _PrintErrMsg$res	set	?_PrintErrMsg+4
   285                           ;       param _cs assigned to ?_PrintErrMsg+3
   286  000000                     _PrintErrMsg$cs	set	?_PrintErrMsg+3
   287                           ;       param _tm assigned to ?_PrintErrMsg+2
   288  000000                     _PrintErrMsg$tm	set	?_PrintErrMsg+2
   289                           ;       param _nkod assigned to ?_PrintErrMsg+1
   290  000000                     _PrintErrMsg$nkod	set	?_PrintErrMsg+1
   291                           ;       param _lkod assigned to ?_PrintErrMsg+0
   292  000000                     _PrintErrMsg$lkod	set	?_PrintErrMsg
   293  000000                     
   294                           ;print.c: 42: WswOff();
   295  003CE8  EF9A  F01B         	goto	_WswOff	;wreg free
   296                           ;print.c: 44: }
   297  003CEC                     __end_of_ClsScr:
   298                           ;print.c: 46: void EndClsScr(void)
   299                           ;print.c: 47: {
   300  003CEC                     _EndClsScr:
   301  000000                     
   302                           ;print.c: 48: AllKolToFirstPoz();
   303  003CEC  EC52  F01E         	call	_AllKolToFirstPoz	;wreg free
   304                           ;print.c: 49: WswOn();
   305  003CF0  EF9D  F01B         	goto	_WswOn	;wreg free
   306                           ;print.c: 51: }
   307  003CF4                     __end_of_EndClsScr:
   308                           ;print.c: 107: void EndErr(void)
   309                           ;print.c: 108: {
   310  003CF4                     _EndErr:
   311  000000                     
   312                           ;print.c: 109: ResetKol(2);
   313  003CF4  0E02               	movlw	2
   314  003CF6  ECFE  F01D         	call	_ResetKol
   315                           ;print.c: 110: ResetKol(0);
   316  003CFA  0E00               	movlw	0
   317  003CFC  EFFE  F01D         	goto	_ResetKol
   318                           ;print.c: 111: }
   319  003D00                     __end_of_EndErr:
   320                           ;print.c: 122: void PrintErrMsg(const unsigned c
      +                          har id, const unsigned char lkod,unsigned char n
      +                          kod,unsigned char tm,unsigned char cs, unsigned 
      +                          char res)
   321                           ;print.c: 123: {
   322  003D00  00CF               	dw	?_PrintErrMsg
   323  003D02                     _PrintErrMsg:
   324  000000                     
   325                           ;_id stored from wreg
   326  003D02  0100               	movlb	__Lparam shr (0+8)
   327  003D04  6FD4               	movwf	?a_PrintErrMsg^(__Lparam& (0+65280)),b
   328                           ;print.c: 124: unsigned int fk,fl,gk,gl,fm;
   329  003D06  51D1               	movf	(?_PrintErrMsg+2)^(__Lparam& (0+65280)),w
   330  003D08  A4D8               	btfss	status,2,c
   331  003D0A  51D2               	movf	(?_PrintErrMsg+3)^(__Lparam& (0+65280)),w
   332  003D0C  E102               	bnz	u46
   333  003D0E  6A00               	clrf	btemp,c
   334  003D10  D002               	goto	L1
   335  003D12                     u46:
   336  003D12  0E04               	movlw	4
   337  003D14  6E00               	movwf	btemp,c
   338  003D16                     L1:
   339  003D16  6A01               	clrf	btemp+1,c
   340  003D18  C000  F0D5         	movff	btemp,?a_PrintErrMsg+1
   341  003D1C  C001  F0D6         	movff	btemp+1,?a_PrintErrMsg+2
   342                           ;print.c: 128: fl=(tm&&cs)?0:0b0000000000000100;
   343  003D20  0100               	movlb	__Lparam shr (0+8)
   344  003D22  51D1               	movf	(?_PrintErrMsg+2)^(__Lparam& (0+65280)),w
   345  003D24  A4D8               	btfss	status,2,c
   346  003D26  51D2               	movf	(?_PrintErrMsg+3)^(__Lparam& (0+65280)),w
   347  003D28  E103               	bnz	u86
   348  003D2A  0E04               	movlw	4
   349  003D2C  6E00               	movwf	btemp,c
   350  003D2E  D001               	goto	L2
   351  003D30                     u86:
   352  003D30  6A00               	clrf	btemp,c
   353  003D32                     L2:
   354  003D32  6A01               	clrf	btemp+1,c
   355  003D34  C000  F0DB         	movff	btemp,?a_PrintErrMsg+7
   356  003D38  C001  F0DC         	movff	btemp+1,?a_PrintErrMsg+8
   357                           ;print.c: 130: gl=(!res)?0:0b0000000000001000;
   358  003D3C  0100               	movlb	__Lparam shr (0+8)
   359  003D3E  51D3               	movf	(?_PrintErrMsg+4)^(__Lparam& (0+65280)),w
   360  003D40  E003               	bz	u106
   361  003D42  0E08               	movlw	8
   362  003D44  6E00               	movwf	btemp,c
   363  003D46  D001               	goto	L3
   364  003D48                     u106:
   365  003D48  6A00               	clrf	btemp,c
   366  003D4A                     L3:
   367  003D4A  6A01               	clrf	btemp+1,c
   368  003D4C  C000  F0DD         	movff	btemp,?a_PrintErrMsg+9
   369  003D50  C001  F0DE         	movff	btemp+1,?a_PrintErrMsg+10
   370                           ;print.c: 131: gk=(res)?0:0b0000000000001000;
   371  003D54  51D3               	movf	(?_PrintErrMsg+4)^(__Lparam& (0+65280)),w
   372  003D56  E103               	bnz	u126
   373  003D58  0E08               	movlw	8
   374  003D5A  6E00               	movwf	btemp,c
   375  003D5C  D001               	goto	L4
   376  003D5E                     u126:
   377  003D5E  6A00               	clrf	btemp,c
   378  003D60                     L4:
   379  003D60  6A01               	clrf	btemp+1,c
   380  003D62  C000  F0D9         	movff	btemp,?a_PrintErrMsg+5
   381  003D66  C001  F0DA         	movff	btemp+1,?a_PrintErrMsg+6
   382                           ;print.c: 133: fm=(fl||gl)?0b0000000000100000:0;
   383  003D6A  51DC               	movf	(?a_PrintErrMsg+8)^(__Lparam& (0+65280)),w
   384  003D6C  11DB               	iorwf	(?a_PrintErrMsg+7)^(__Lparam& (0+65280)),
      +                          w
   385  003D6E  E105               	bnz	u166
   386  003D70  51DE               	movf	(?a_PrintErrMsg+10)^(__Lparam& (0+65280)),
      +                          w
   387  003D72  11DD               	iorwf	(?a_PrintErrMsg+9)^(__Lparam& (0+65280)),
      +                          w
   388  003D74  E102               	bnz	u166
   389  003D76  6A00               	clrf	btemp,c
   390  003D78  D002               	goto	L5
   391  003D7A                     u166:
   392  003D7A  0E20               	movlw	32
   393  003D7C  6E00               	movwf	btemp,c
   394  003D7E                     L5:
   395  003D7E  6A01               	clrf	btemp+1,c
   396  003D80  C000  F0D7         	movff	btemp,?a_PrintErrMsg+3
   397  003D84  C001  F0D8         	movff	btemp+1,?a_PrintErrMsg+4
   398                           ;print.c: 190: SetData(&(DWD[id].Dt2),0b00000000
      +                          ,lkod);
   399  003D88  0100               	movlb	__Lparam shr (0+8)
   400  003D8A  51D4               	movf	?a_PrintErrMsg^(__Lparam& (0+65280)),w
   401  003D8C  0D10               	mullw	16
   402  003D8E  0E98               	movlw	low (_DWD+8)
   403  003D90  24F3               	addwf	prodl,w,c
   404  003D92  6FDF               	movwf	?_SetData^(__Lparam& (0+65280)),b
   405  003D94  0E01               	movlw	high (_DWD+8)
   406  003D96  20F4               	addwfc	prodh,w,c
   407  003D98  6FE0               	movwf	(?_SetData+1)^(__Lparam& (0+65280)),b
   408  003D9A  6BE1               	clrf	(?_SetData+2)^(__Lparam& (0+65280)),b
   409  003D9C  51CF               	movf	?_PrintErrMsg^(__Lparam& (0+65280)),w
   410  003D9E  6FE2               	movwf	(?_SetData+3)^(__Lparam& (0+65280)),b
   411  003DA0  ECA1  F01B         	call	_SetData	;wreg free
   412                           ;print.c: 191: SetData(&(DWD[id].Dt),0,nkod);
   413  003DA4  0100               	movlb	__Lparam shr (0+8)
   414  003DA6  51D4               	movf	?a_PrintErrMsg^(__Lparam& (0+65280)),w
   415  003DA8  0D10               	mullw	16
   416  003DAA  0E96               	movlw	low (_DWD+6)
   417  003DAC  24F3               	addwf	prodl,w,c
   418  003DAE  6FDF               	movwf	?_SetData^(__Lparam& (0+65280)),b
   419  003DB0  0E01               	movlw	high (_DWD+6)
   420  003DB2  20F4               	addwfc	prodh,w,c
   421  003DB4  6FE0               	movwf	(?_SetData+1)^(__Lparam& (0+65280)),b
   422  003DB6  6BE1               	clrf	(?_SetData+2)^(__Lparam& (0+65280)),b
   423  003DB8  51D0               	movf	(?_PrintErrMsg+1)^(__Lparam& (0+65280)),w
   424  003DBA  6FE2               	movwf	(?_SetData+3)^(__Lparam& (0+65280)),b
   425  003DBC  ECA1  F01B         	call	_SetData	;wreg free
   426                           ;print.c: 192: SetStatus(&(DWD[id].St2),0b000000
      +                          0000000000|fm|0b0000000000010000|0b1000000000000
      +                          000,0b1111111111111111,fl|gl,fk|gk|0b00000000000
      +                          10000|0b0000000000100000|0b0000000001000000);
   427  003DC0  0100               	movlb	__Lparam shr (0+8)
   428  003DC2  51D4               	movf	?a_PrintErrMsg^(__Lparam& (0+65280)),w
   429  003DC4  0D10               	mullw	16
   430  003DC6  0E9A               	movlw	low (_DWD+10)
   431  003DC8  24F3               	addwf	prodl,w,c
   432  003DCA  6FDF               	movwf	?_SetStatus^(__Lparam& (0+65280)),b
   433  003DCC  0E01               	movlw	high (_DWD+10)
   434  003DCE  20F4               	addwfc	prodh,w,c
   435  003DD0  6FE0               	movwf	(?_SetStatus+1)^(__Lparam& (0+65280)),b
   436  003DD2  0E10               	movlw	16
   437  003DD4  11D7               	iorwf	(?a_PrintErrMsg+3)^(__Lparam& (0+65280)),
      +                          w
   438  003DD6  6FE1               	movwf	(?_SetStatus+2)^(__Lparam& (0+65280)),b
   439  003DD8  0E80               	movlw	128
   440  003DDA  11D8               	iorwf	(?a_PrintErrMsg+4)^(__Lparam& (0+65280)),
      +                          w
   441  003DDC  6FE2               	movwf	(?_SetStatus+3)^(__Lparam& (0+65280)),b
   442  003DDE  69E3               	setf	(?_SetStatus+4)^(__Lparam& (0+65280)),b
   443  003DE0  69E4               	setf	(?_SetStatus+5)^(__Lparam& (0+65280)),b
   444  003DE2  51DD               	movf	(?a_PrintErrMsg+9)^(__Lparam& (0+65280)),w
   445  003DE4  11DB               	iorwf	(?a_PrintErrMsg+7)^(__Lparam& (0+65280)),
      +                          w
   446  003DE6  6FE5               	movwf	(?_SetStatus+6)^(__Lparam& (0+65280)),b
   447  003DE8  51D9               	movf	(?a_PrintErrMsg+5)^(__Lparam& (0+65280)),w
   448  003DEA  11D5               	iorwf	(?a_PrintErrMsg+1)^(__Lparam& (0+65280)),
      +                          w
   449  003DEC  0970               	iorlw	112
   450  003DEE  6FE6               	movwf	(?_SetStatus+7)^(__Lparam& (0+65280)),b
   451  003DF0  ECB1  F01B         	call	_SetStatus	;wreg free
   452                           ;print.c: 193: SetStatus(&(DWD[id].St),0b0100000
      +                          000000000|fm|0b0000000000010000|0b10000000000000
      +                          00,0b1111111111111111,fl|gl,fk|gk|0b000000000001
      +                          0000|0b0000000000100000|0b0000000001000000);
   453  003DF4  0100               	movlb	__Lparam shr (0+8)
   454  003DF6  51D4               	movf	?a_PrintErrMsg^(__Lparam& (0+65280)),w
   455  003DF8  0D10               	mullw	16
   456  003DFA  0E90               	movlw	low _DWD
   457  003DFC  24F3               	addwf	prodl,w,c
   458  003DFE  6FDF               	movwf	?_SetStatus^(__Lparam& (0+65280)),b
   459  003E00  0E01               	movlw	high _DWD
   460  003E02  20F4               	addwfc	prodh,w,c
   461  003E04  6FE0               	movwf	(?_SetStatus+1)^(__Lparam& (0+65280)),b
   462  003E06  0E10               	movlw	16
   463  003E08  11D7               	iorwf	(?a_PrintErrMsg+3)^(__Lparam& (0+65280)),
      +                          w
   464  003E0A  6FE1               	movwf	(?_SetStatus+2)^(__Lparam& (0+65280)),b
   465  003E0C  0EC0               	movlw	192
   466  003E0E  11D8               	iorwf	(?a_PrintErrMsg+4)^(__Lparam& (0+65280)),
      +                          w
   467  003E10  6FE2               	movwf	(?_SetStatus+3)^(__Lparam& (0+65280)),b
   468  003E12  69E3               	setf	(?_SetStatus+4)^(__Lparam& (0+65280)),b
   469  003E14  69E4               	setf	(?_SetStatus+5)^(__Lparam& (0+65280)),b
   470  003E16  51DD               	movf	(?a_PrintErrMsg+9)^(__Lparam& (0+65280)),w
   471  003E18  11DB               	iorwf	(?a_PrintErrMsg+7)^(__Lparam& (0+65280)),
      +                          w
   472  003E1A  6FE5               	movwf	(?_SetStatus+6)^(__Lparam& (0+65280)),b
   473  003E1C  51D9               	movf	(?a_PrintErrMsg+5)^(__Lparam& (0+65280)),w
   474  003E1E  11D5               	iorwf	(?a_PrintErrMsg+1)^(__Lparam& (0+65280)),
      +                          w
   475  003E20  0970               	iorlw	112
   476  003E22  6FE6               	movwf	(?_SetStatus+7)^(__Lparam& (0+65280)),b
   477  003E24  ECB1  F01B         	call	_SetStatus	;wreg free
   478                           ;print.c: 194: if((tm&&!cs)||(cs&&!tm))
   479  003E28  0100               	movlb	__Lparam shr (0+8)
   480  003E2A  51D1               	movf	(?_PrintErrMsg+2)^(__Lparam& (0+65280)),w
   481  003E2C  E002               	bz	u191
   482  003E2E  51D2               	movf	(?_PrintErrMsg+3)^(__Lparam& (0+65280)),w
   483  003E30  E007               	bz	u230
   484  003E32                     u191:
   485  003E32  0100               	movlb	__Lparam shr (0+8)
   486  003E34  51D2               	movf	(?_PrintErrMsg+3)^(__Lparam& (0+65280)),w
   487  003E36  E101 D186          	bz	l23
   488  003E3A  51D1               	movf	(?_PrintErrMsg+2)^(__Lparam& (0+65280)),w
   489  003E3C  E001 D183          	bnz	l23
   490  003E40                     u230:
   491                           ;print.c: 195: {
   492  003E40  0102               	movlb	_PFN shr (0+8)
   493  003E42  B106               	btfsc	_PFN& (0+255),0,b
   494  003E44  D062               	goto	l24
   495                           ;print.c: 197: {
   496  003E46  0102               	movlb	(_PFN+4) shr (0+8)
   497  003E48  AD0A               	btfss	(_PFN+4)& (0+255),6,b
   498  003E4A  D04A               	goto	l25
   499                           ;print.c: 199: {
   500  003E4C  0102               	movlb	(_PFN+6) shr (0+8)
   501  003E4E  B70C               	btfsc	(_PFN+6)& (0+255),3,b
   502  003E50  D024               	goto	l26
   503                           ;print.c: 201: {
   504  003E52  0100               	movlb	__Lparam shr (0+8)
   505  003E54  51D4               	movf	?a_PrintErrMsg^(__Lparam& (0+65280)),w
   506  003E56  0D10               	mullw	16
   507  003E58  0EAA               	movlw	low (_DWD+26)
   508  003E5A  24F3               	addwf	prodl,w,c
   509  003E5C  6FDF               	movwf	?_SetStatus^(__Lparam& (0+65280)),b
   510  003E5E  0E01               	movlw	high (_DWD+26)
   511  003E60  20F4               	addwfc	prodh,w,c
   512  003E62  6FE0               	movwf	(?_SetStatus+1)^(__Lparam& (0+65280)),b
   513  003E64  0E30               	movlw	48
   514  003E66  6FE1               	movwf	(?_SetStatus+2)^(__Lparam& (0+65280)),b
   515  003E68  0EC0               	movlw	192
   516  003E6A  6FE2               	movwf	(?_SetStatus+3)^(__Lparam& (0+65280)),b
   517  003E6C  69E3               	setf	(?_SetStatus+4)^(__Lparam& (0+65280)),b
   518  003E6E  69E4               	setf	(?_SetStatus+5)^(__Lparam& (0+65280)),b
   519  003E70  0E20               	movlw	32
   520  003E72  6FE5               	movwf	(?_SetStatus+6)^(__Lparam& (0+65280)),b
   521  003E74  0E0C               	movlw	12
   522  003E76  6FE6               	movwf	(?_SetStatus+7)^(__Lparam& (0+65280)),b
   523  003E78  ECB1  F01B         	call	_SetStatus	;wreg free
   524                           ;print.c: 203: SetData(&(DWD[id+1].Dt2),0,PFN.CW
      +                          );
   525  003E7C  0100               	movlb	__Lparam shr (0+8)
   526  003E7E  51D4               	movf	?a_PrintErrMsg^(__Lparam& (0+65280)),w
   527  003E80  0D10               	mullw	16
   528  003E82  0EA8               	movlw	low (_DWD+24)
   529  003E84  24F3               	addwf	prodl,w,c
   530  003E86  6FDF               	movwf	?_SetData^(__Lparam& (0+65280)),b
   531  003E88  0E01               	movlw	high (_DWD+24)
   532  003E8A  20F4               	addwfc	prodh,w,c
   533  003E8C  6FE0               	movwf	(?_SetData+1)^(__Lparam& (0+65280)),b
   534  003E8E  6BE1               	clrf	(?_SetData+2)^(__Lparam& (0+65280)),b
   535  003E90  C211  F0E2         	movff	_PFN+11,?_SetData+3
   536  003E94  ECA1  F01B         	call	_SetData	;wreg free
   537                           ;print.c: 204: }
   538  003E98  D04C               	goto	l29
   539  003E9A                     l26:
   540                           ;print.c: 205: else
   541  003E9A  0100               	movlb	__Lparam shr (0+8)
   542  003E9C  51D4               	movf	?a_PrintErrMsg^(__Lparam& (0+65280)),w
   543  003E9E  0D10               	mullw	16
   544  003EA0  0EAA               	movlw	low (_DWD+26)
   545  003EA2  24F3               	addwf	prodl,w,c
   546  003EA4  6FDF               	movwf	?_SetStatus^(__Lparam& (0+65280)),b
   547  003EA6  0E01               	movlw	high (_DWD+26)
   548  003EA8  20F4               	addwfc	prodh,w,c
   549  003EAA  6FE0               	movwf	(?_SetStatus+1)^(__Lparam& (0+65280)),b
   550  003EAC  0E10               	movlw	16
   551  003EAE  6FE1               	movwf	(?_SetStatus+2)^(__Lparam& (0+65280)),b
   552  003EB0  0E80               	movlw	128
   553  003EB2  6FE2               	movwf	(?_SetStatus+3)^(__Lparam& (0+65280)),b
   554  003EB4  69E3               	setf	(?_SetStatus+4)^(__Lparam& (0+65280)),b
   555  003EB6  69E4               	setf	(?_SetStatus+5)^(__Lparam& (0+65280)),b
   556  003EB8  6BE5               	clrf	(?_SetStatus+6)^(__Lparam& (0+65280)),b
   557  003EBA  0E2C               	movlw	44
   558  003EBC  6FE6               	movwf	(?_SetStatus+7)^(__Lparam& (0+65280)),b
   559  003EBE  ECB1  F01B         	call	_SetStatus	;wreg free
   560                           ;print.c: 208: SetData(&(DWD[id+1].Dt2),0b010000
      +                          00,0b01000000);
   561  003EC2  0100               	movlb	__Lparam shr (0+8)
   562  003EC4  51D4               	movf	?a_PrintErrMsg^(__Lparam& (0+65280)),w
   563  003EC6  0D10               	mullw	16
   564  003EC8  0EA8               	movlw	low (_DWD+24)
   565  003ECA  24F3               	addwf	prodl,w,c
   566  003ECC  6FDF               	movwf	?_SetData^(__Lparam& (0+65280)),b
   567  003ECE  0E01               	movlw	high (_DWD+24)
   568  003ED0  20F4               	addwfc	prodh,w,c
   569  003ED2  6FE0               	movwf	(?_SetData+1)^(__Lparam& (0+65280)),b
   570  003ED4  0E40               	movlw	64
   571  003ED6  6FE1               	movwf	(?_SetData+2)^(__Lparam& (0+65280)),b
   572  003ED8  6FE2               	movwf	(?_SetData+3)^(__Lparam& (0+65280)),b
   573  003EDA  ECA1  F01B         	call	_SetData	;wreg free
   574                           ;print.c: 209: }
   575  003EDE  D029               	goto	l29
   576  003EE0                     l25:
   577                           ;print.c: 211: else
   578  003EE0  0100               	movlb	__Lparam shr (0+8)
   579  003EE2  51D4               	movf	?a_PrintErrMsg^(__Lparam& (0+65280)),w
   580  003EE4  0D10               	mullw	16
   581  003EE6  0EAA               	movlw	low (_DWD+26)
   582  003EE8  24F3               	addwf	prodl,w,c
   583  003EEA  6FDF               	movwf	?_SetStatus^(__Lparam& (0+65280)),b
   584  003EEC  0E01               	movlw	high (_DWD+26)
   585  003EEE  20F4               	addwfc	prodh,w,c
   586  003EF0  6FE0               	movwf	(?_SetStatus+1)^(__Lparam& (0+65280)),b
   587  003EF2  0E10               	movlw	16
   588  003EF4  6FE1               	movwf	(?_SetStatus+2)^(__Lparam& (0+65280)),b
   589  003EF6  0E03               	movlw	3
   590  003EF8  6FE2               	movwf	(?_SetStatus+3)^(__Lparam& (0+65280)),b
   591  003EFA  69E3               	setf	(?_SetStatus+4)^(__Lparam& (0+65280)),b
   592  003EFC  69E4               	setf	(?_SetStatus+5)^(__Lparam& (0+65280)),b
   593  003EFE  6BE5               	clrf	(?_SetStatus+6)^(__Lparam& (0+65280)),b
   594  003F00  0E20               	movlw	32
   595  003F02  6FE6               	movwf	(?_SetStatus+7)^(__Lparam& (0+65280)),b
   596  003F04  ECB1  F01B         	call	_SetStatus	;wreg free
   597                           ;print.c: 214: }
   598  003F08  D014               	goto	l29
   599  003F0A                     l24:
   600                           ;print.c: 216: else
   601  003F0A  0100               	movlb	__Lparam shr (0+8)
   602  003F0C  51D4               	movf	?a_PrintErrMsg^(__Lparam& (0+65280)),w
   603  003F0E  0D10               	mullw	16
   604  003F10  0EAA               	movlw	low (_DWD+26)
   605  003F12  24F3               	addwf	prodl,w,c
   606  003F14  6FDF               	movwf	?_SetStatus^(__Lparam& (0+65280)),b
   607  003F16  0E01               	movlw	high (_DWD+26)
   608  003F18  20F4               	addwfc	prodh,w,c
   609  003F1A  6FE0               	movwf	(?_SetStatus+1)^(__Lparam& (0+65280)),b
   610  003F1C  0E10               	movlw	16
   611  003F1E  6FE1               	movwf	(?_SetStatus+2)^(__Lparam& (0+65280)),b
   612  003F20  0E03               	movlw	3
   613  003F22  6FE2               	movwf	(?_SetStatus+3)^(__Lparam& (0+65280)),b
   614  003F24  69E3               	setf	(?_SetStatus+4)^(__Lparam& (0+65280)),b
   615  003F26  69E4               	setf	(?_SetStatus+5)^(__Lparam& (0+65280)),b
   616  003F28  6BE5               	clrf	(?_SetStatus+6)^(__Lparam& (0+65280)),b
   617  003F2A  0E20               	movlw	32
   618  003F2C  6FE6               	movwf	(?_SetStatus+7)^(__Lparam& (0+65280)),b
   619  003F2E  ECB1  F01B         	call	_SetStatus	;wreg free
   620  003F32                     l29:
   621                           ;print.c: 219: }
   622  003F32  0100               	movlb	__Lparam shr (0+8)
   623  003F34  51D1               	movf	(?_PrintErrMsg+2)^(__Lparam& (0+65280)),w
   624  003F36  E101 D0B5          	bz	l30
   625                           ;print.c: 221: {
   626  003F3A  0102               	movlb	_PFN shr (0+8)
   627  003F3C  B106               	btfsc	_PFN& (0+255),0,b
   628  003F3E  D09D               	goto	l31
   629                           ;print.c: 223: {
   630  003F40  0102               	movlb	(_PFN+4) shr (0+8)
   631  003F42  BD0A               	btfsc	(_PFN+4)& (0+255),6,b
   632  003F44  D085               	goto	l32
   633                           ;print.c: 225: {
   634  003F46  0102               	movlb	(_PFN+5) shr (0+8)
   635  003F48  BB0B               	btfsc	(_PFN+5)& (0+255),5,b
   636  003F4A  D05E               	goto	l33
   637                           ;print.c: 227: {
   638  003F4C  0102               	movlb	(_PFN+6) shr (0+8)
   639  003F4E  B50C               	btfsc	(_PFN+6)& (0+255),2,b
   640  003F50  D027               	goto	l34
   641  003F52  0102               	movlb	(_PFN+6) shr (0+8)
   642  003F54  BD0C               	btfsc	(_PFN+6)& (0+255),6,b
   643  003F56  D024               	goto	l34
   644                           ;print.c: 230: {
   645  003F58  0100               	movlb	__Lparam shr (0+8)
   646  003F5A  51D4               	movf	?a_PrintErrMsg^(__Lparam& (0+65280)),w
   647  003F5C  0D10               	mullw	16
   648  003F5E  0EA0               	movlw	low (_DWD+16)
   649  003F60  24F3               	addwf	prodl,w,c
   650  003F62  6FDF               	movwf	?_SetStatus^(__Lparam& (0+65280)),b
   651  003F64  0E01               	movlw	high (_DWD+16)
   652  003F66  20F4               	addwfc	prodh,w,c
   653  003F68  6FE0               	movwf	(?_SetStatus+1)^(__Lparam& (0+65280)),b
   654  003F6A  0E30               	movlw	48
   655  003F6C  6FE1               	movwf	(?_SetStatus+2)^(__Lparam& (0+65280)),b
   656  003F6E  0EC0               	movlw	192
   657  003F70  6FE2               	movwf	(?_SetStatus+3)^(__Lparam& (0+65280)),b
   658  003F72  69E3               	setf	(?_SetStatus+4)^(__Lparam& (0+65280)),b
   659  003F74  69E4               	setf	(?_SetStatus+5)^(__Lparam& (0+65280)),b
   660  003F76  0E10               	movlw	16
   661  003F78  6FE5               	movwf	(?_SetStatus+6)^(__Lparam& (0+65280)),b
   662  003F7A  0E40               	movlw	64
   663  003F7C  6FE6               	movwf	(?_SetStatus+7)^(__Lparam& (0+65280)),b
   664  003F7E  ECB1  F01B         	call	_SetStatus	;wreg free
   665                           ;print.c: 232: SetData(&(DWD[id+1].Dt),0,PFN.CO)
      +                          ;
   666  003F82  0100               	movlb	__Lparam shr (0+8)
   667  003F84  51D4               	movf	?a_PrintErrMsg^(__Lparam& (0+65280)),w
   668  003F86  0D10               	mullw	16
   669  003F88  0EA6               	movlw	low (_DWD+22)
   670  003F8A  24F3               	addwf	prodl,w,c
   671  003F8C  6FDF               	movwf	?_SetData^(__Lparam& (0+65280)),b
   672  003F8E  0E01               	movlw	high (_DWD+22)
   673  003F90  20F4               	addwfc	prodh,w,c
   674  003F92  6FE0               	movwf	(?_SetData+1)^(__Lparam& (0+65280)),b
   675  003F94  6BE1               	clrf	(?_SetData+2)^(__Lparam& (0+65280)),b
   676  003F96  C210  F0E2         	movff	_PFN+10,?_SetData+3
   677  003F9A  ECA1  F01B         	call	_SetData	;wreg free
   678                           ;print.c: 233: }
   679  003F9E  D14E               	goto	l45
   680  003FA0                     l34:
   681                           ;print.c: 234: else
   682  003FA0  0100               	movlb	__Lparam shr (0+8)
   683  003FA2  51D4               	movf	?a_PrintErrMsg^(__Lparam& (0+65280)),w
   684  003FA4  0D10               	mullw	16
   685  003FA6  0EA0               	movlw	low (_DWD+16)
   686  003FA8  24F3               	addwf	prodl,w,c
   687  003FAA  6FDF               	movwf	?_SetStatus^(__Lparam& (0+65280)),b
   688  003FAC  0E01               	movlw	high (_DWD+16)
   689  003FAE  20F4               	addwfc	prodh,w,c
   690  003FB0  6FE0               	movwf	(?_SetStatus+1)^(__Lparam& (0+65280)),b
   691  003FB2  0E10               	movlw	16
   692  003FB4  6FE1               	movwf	(?_SetStatus+2)^(__Lparam& (0+65280)),b
   693  003FB6  0E80               	movlw	128
   694  003FB8  6FE2               	movwf	(?_SetStatus+3)^(__Lparam& (0+65280)),b
   695  003FBA  69E3               	setf	(?_SetStatus+4)^(__Lparam& (0+65280)),b
   696  003FBC  69E4               	setf	(?_SetStatus+5)^(__Lparam& (0+65280)),b
   697  003FBE  6BE5               	clrf	(?_SetStatus+6)^(__Lparam& (0+65280)),b
   698  003FC0  0E50               	movlw	80
   699  003FC2  6FE6               	movwf	(?_SetStatus+7)^(__Lparam& (0+65280)),b
   700  003FC4  ECB1  F01B         	call	_SetStatus	;wreg free
   701                           ;print.c: 237: if(!PFN._oflato) SetData(&(DWD[id
      +                          +1].Dt),0b01000000,0b01000000);
   702  003FC8  0102               	movlb	(_PFN+6) shr (0+8)
   703  003FCA  BD0C               	btfsc	(_PFN+6)& (0+255),6,b
   704  003FCC  D00F               	goto	l36
   705  003FCE  0100               	movlb	__Lparam shr (0+8)
   706  003FD0  51D4               	movf	?a_PrintErrMsg^(__Lparam& (0+65280)),w
   707  003FD2  0D10               	mullw	16
   708  003FD4  0EA6               	movlw	low (_DWD+22)
   709  003FD6  24F3               	addwf	prodl,w,c
   710  003FD8  6FDF               	movwf	?_SetData^(__Lparam& (0+65280)),b
   711  003FDA  0E01               	movlw	high (_DWD+22)
   712  003FDC  20F4               	addwfc	prodh,w,c
   713  003FDE  6FE0               	movwf	(?_SetData+1)^(__Lparam& (0+65280)),b
   714  003FE0  0E40               	movlw	64
   715  003FE2  6FE1               	movwf	(?_SetData+2)^(__Lparam& (0+65280)),b
   716  003FE4  6FE2               	movwf	(?_SetData+3)^(__Lparam& (0+65280)),b
   717  003FE6  ECA1  F01B         	call	_SetData	;wreg free
   718  003FEA  D128               	goto	l45
   719  003FEC                     l36:
   720                           ;print.c: 238: else SetData(&(DWD[id+1].Dt),0b00
      +                          000000,0b00000000);
   721  003FEC  0100               	movlb	__Lparam shr (0+8)
   722  003FEE  51D4               	movf	?a_PrintErrMsg^(__Lparam& (0+65280)),w
   723  003FF0  0D10               	mullw	16
   724  003FF2  0EA6               	movlw	low (_DWD+22)
   725  003FF4  24F3               	addwf	prodl,w,c
   726  003FF6  6FDF               	movwf	?_SetData^(__Lparam& (0+65280)),b
   727  003FF8  0E01               	movlw	high (_DWD+22)
   728  003FFA  20F4               	addwfc	prodh,w,c
   729  003FFC  6FE0               	movwf	(?_SetData+1)^(__Lparam& (0+65280)),b
   730  003FFE  6BE1               	clrf	(?_SetData+2)^(__Lparam& (0+65280)),b
   731  004000  6BE2               	clrf	(?_SetData+3)^(__Lparam& (0+65280)),b
   732  004002  ECA1  F01B         	call	_SetData	;wreg free
   733                           ;print.c: 239: }
   734  004006  D11A               	goto	l45
   735  004008                     l33:
   736                           ;print.c: 241: else
   737  004008  0100               	movlb	__Lparam shr (0+8)
   738  00400A  51D4               	movf	?a_PrintErrMsg^(__Lparam& (0+65280)),w
   739  00400C  0D10               	mullw	16
   740  00400E  0EA0               	movlw	low (_DWD+16)
   741  004010  24F3               	addwf	prodl,w,c
   742  004012  6FDF               	movwf	?_SetStatus^(__Lparam& (0+65280)),b
   743  004014  0E01               	movlw	high (_DWD+16)
   744  004016  20F4               	addwfc	prodh,w,c
   745  004018  6FE0               	movwf	(?_SetStatus+1)^(__Lparam& (0+65280)),b
   746  00401A  0E10               	movlw	16
   747  00401C  6FE1               	movwf	(?_SetStatus+2)^(__Lparam& (0+65280)),b
   748  00401E  0E80               	movlw	128
   749  004020  6FE2               	movwf	(?_SetStatus+3)^(__Lparam& (0+65280)),b
   750  004022  69E3               	setf	(?_SetStatus+4)^(__Lparam& (0+65280)),b
   751  004024  69E4               	setf	(?_SetStatus+5)^(__Lparam& (0+65280)),b
   752  004026  6BE5               	clrf	(?_SetStatus+6)^(__Lparam& (0+65280)),b
   753  004028  0E50               	movlw	80
   754  00402A  6FE6               	movwf	(?_SetStatus+7)^(__Lparam& (0+65280)),b
   755  00402C  ECB1  F01B         	call	_SetStatus	;wreg free
   756                           ;print.c: 244: SetData(&(DWD[id+1].Dt),0b0011100
      +                          0,0b01001111);
   757  004030  0100               	movlb	__Lparam shr (0+8)
   758  004032  51D4               	movf	?a_PrintErrMsg^(__Lparam& (0+65280)),w
   759  004034  0D10               	mullw	16
   760  004036  0EA6               	movlw	low (_DWD+22)
   761  004038  24F3               	addwf	prodl,w,c
   762  00403A  6FDF               	movwf	?_SetData^(__Lparam& (0+65280)),b
   763  00403C  0E01               	movlw	high (_DWD+22)
   764  00403E  20F4               	addwfc	prodh,w,c
   765  004040  6FE0               	movwf	(?_SetData+1)^(__Lparam& (0+65280)),b
   766  004042  0E38               	movlw	56
   767  004044  6FE1               	movwf	(?_SetData+2)^(__Lparam& (0+65280)),b
   768  004046  0E4F               	movlw	79
   769  004048  6FE2               	movwf	(?_SetData+3)^(__Lparam& (0+65280)),b
   770  00404A  ECA1  F01B         	call	_SetData	;wreg free
   771                           ;print.c: 245: }
   772  00404E  D0F6               	goto	l45
   773  004050                     l32:
   774                           ;print.c: 247: else
   775  004050  0100               	movlb	__Lparam shr (0+8)
   776  004052  51D4               	movf	?a_PrintErrMsg^(__Lparam& (0+65280)),w
   777  004054  0D10               	mullw	16
   778  004056  0EA0               	movlw	low (_DWD+16)
   779  004058  24F3               	addwf	prodl,w,c
   780  00405A  6FDF               	movwf	?_SetStatus^(__Lparam& (0+65280)),b
   781  00405C  0E01               	movlw	high (_DWD+16)
   782  00405E  20F4               	addwfc	prodh,w,c
   783  004060  6FE0               	movwf	(?_SetStatus+1)^(__Lparam& (0+65280)),b
   784  004062  0E10               	movlw	16
   785  004064  6FE1               	movwf	(?_SetStatus+2)^(__Lparam& (0+65280)),b
   786  004066  0E03               	movlw	3
   787  004068  6FE2               	movwf	(?_SetStatus+3)^(__Lparam& (0+65280)),b
   788  00406A  69E3               	setf	(?_SetStatus+4)^(__Lparam& (0+65280)),b
   789  00406C  69E4               	setf	(?_SetStatus+5)^(__Lparam& (0+65280)),b
   790  00406E  6BE5               	clrf	(?_SetStatus+6)^(__Lparam& (0+65280)),b
   791  004070  0E50               	movlw	80
   792  004072  6FE6               	movwf	(?_SetStatus+7)^(__Lparam& (0+65280)),b
   793  004074  ECB1  F01B         	call	_SetStatus	;wreg free
   794                           ;print.c: 250: }
   795  004078  D0E1               	goto	l45
   796  00407A                     l31:
   797                           ;print.c: 252: else
   798  00407A  0100               	movlb	__Lparam shr (0+8)
   799  00407C  51D4               	movf	?a_PrintErrMsg^(__Lparam& (0+65280)),w
   800  00407E  0D10               	mullw	16
   801  004080  0EA0               	movlw	low (_DWD+16)
   802  004082  24F3               	addwf	prodl,w,c
   803  004084  6FDF               	movwf	?_SetStatus^(__Lparam& (0+65280)),b
   804  004086  0E01               	movlw	high (_DWD+16)
   805  004088  20F4               	addwfc	prodh,w,c
   806  00408A  6FE0               	movwf	(?_SetStatus+1)^(__Lparam& (0+65280)),b
   807  00408C  0E10               	movlw	16
   808  00408E  6FE1               	movwf	(?_SetStatus+2)^(__Lparam& (0+65280)),b
   809  004090  0E03               	movlw	3
   810  004092  6FE2               	movwf	(?_SetStatus+3)^(__Lparam& (0+65280)),b
   811  004094  69E3               	setf	(?_SetStatus+4)^(__Lparam& (0+65280)),b
   812  004096  69E4               	setf	(?_SetStatus+5)^(__Lparam& (0+65280)),b
   813  004098  6BE5               	clrf	(?_SetStatus+6)^(__Lparam& (0+65280)),b
   814  00409A  0E50               	movlw	80
   815  00409C  6FE6               	movwf	(?_SetStatus+7)^(__Lparam& (0+65280)),b
   816  00409E  ECB1  F01B         	call	_SetStatus	;wreg free
   817                           ;print.c: 255: }
   818  0040A2  D0CC               	goto	l45
   819  0040A4                     l30:
   820                           ;print.c: 257: else
   821  0040A4  0100               	movlb	__Lparam shr (0+8)
   822  0040A6  51D2               	movf	(?_PrintErrMsg+3)^(__Lparam& (0+65280)),w
   823  0040A8  E101 D0C8          	bz	l45
   824                           ;print.c: 259: {
   825  0040AC  0102               	movlb	(_PFN+6) shr (0+8)
   826  0040AE  B30C               	btfsc	(_PFN+6)& (0+255),1,b
   827  0040B0  D027               	goto	l43
   828  0040B2  0102               	movlb	(_PFN+6) shr (0+8)
   829  0040B4  B90C               	btfsc	(_PFN+6)& (0+255),4,b
   830  0040B6  D024               	goto	l43
   831                           ;print.c: 261: {
   832  0040B8  0100               	movlb	__Lparam shr (0+8)
   833  0040BA  51D4               	movf	?a_PrintErrMsg^(__Lparam& (0+65280)),w
   834  0040BC  0D10               	mullw	16
   835  0040BE  0EA0               	movlw	low (_DWD+16)
   836  0040C0  24F3               	addwf	prodl,w,c
   837  0040C2  6FDF               	movwf	?_SetStatus^(__Lparam& (0+65280)),b
   838  0040C4  0E01               	movlw	high (_DWD+16)
   839  0040C6  20F4               	addwfc	prodh,w,c
   840  0040C8  6FE0               	movwf	(?_SetStatus+1)^(__Lparam& (0+65280)),b
   841  0040CA  0E30               	movlw	48
   842  0040CC  6FE1               	movwf	(?_SetStatus+2)^(__Lparam& (0+65280)),b
   843  0040CE  0EC4               	movlw	196
   844  0040D0  6FE2               	movwf	(?_SetStatus+3)^(__Lparam& (0+65280)),b
   845  0040D2  69E3               	setf	(?_SetStatus+4)^(__Lparam& (0+65280)),b
   846  0040D4  69E4               	setf	(?_SetStatus+5)^(__Lparam& (0+65280)),b
   847  0040D6  0E40               	movlw	64
   848  0040D8  6FE5               	movwf	(?_SetStatus+6)^(__Lparam& (0+65280)),b
   849  0040DA  0E10               	movlw	16
   850  0040DC  6FE6               	movwf	(?_SetStatus+7)^(__Lparam& (0+65280)),b
   851  0040DE  ECB1  F01B         	call	_SetStatus	;wreg free
   852                           ;print.c: 263: SetData(&(DWD[id+1].Dt),0,PFN.CS)
      +                          ;
   853  0040E2  0100               	movlb	__Lparam shr (0+8)
   854  0040E4  51D4               	movf	?a_PrintErrMsg^(__Lparam& (0+65280)),w
   855  0040E6  0D10               	mullw	16
   856  0040E8  0EA6               	movlw	low (_DWD+22)
   857  0040EA  24F3               	addwf	prodl,w,c
   858  0040EC  6FDF               	movwf	?_SetData^(__Lparam& (0+65280)),b
   859  0040EE  0E01               	movlw	high (_DWD+22)
   860  0040F0  20F4               	addwfc	prodh,w,c
   861  0040F2  6FE0               	movwf	(?_SetData+1)^(__Lparam& (0+65280)),b
   862  0040F4  6BE1               	clrf	(?_SetData+2)^(__Lparam& (0+65280)),b
   863  0040F6  C212  F0E2         	movff	_PFN+12,?_SetData+3
   864  0040FA  ECA1  F01B         	call	_SetData	;wreg free
   865                           ;print.c: 264: }
   866  0040FE  D09E               	goto	l45
   867  004100                     l43:
   868                           ;print.c: 265: else
   869  004100  0100               	movlb	__Lparam shr (0+8)
   870  004102  51D4               	movf	?a_PrintErrMsg^(__Lparam& (0+65280)),w
   871  004104  0D10               	mullw	16
   872  004106  0EA0               	movlw	low (_DWD+16)
   873  004108  24F3               	addwf	prodl,w,c
   874  00410A  6FDF               	movwf	?_SetStatus^(__Lparam& (0+65280)),b
   875  00410C  0E01               	movlw	high (_DWD+16)
   876  00410E  20F4               	addwfc	prodh,w,c
   877  004110  6FE0               	movwf	(?_SetStatus+1)^(__Lparam& (0+65280)),b
   878  004112  0E10               	movlw	16
   879  004114  6FE1               	movwf	(?_SetStatus+2)^(__Lparam& (0+65280)),b
   880  004116  0E80               	movlw	128
   881  004118  6FE2               	movwf	(?_SetStatus+3)^(__Lparam& (0+65280)),b
   882  00411A  69E3               	setf	(?_SetStatus+4)^(__Lparam& (0+65280)),b
   883  00411C  69E4               	setf	(?_SetStatus+5)^(__Lparam& (0+65280)),b
   884  00411E  6BE5               	clrf	(?_SetStatus+6)^(__Lparam& (0+65280)),b
   885  004120  0E50               	movlw	80
   886  004122  6FE6               	movwf	(?_SetStatus+7)^(__Lparam& (0+65280)),b
   887  004124  ECB1  F01B         	call	_SetStatus	;wreg free
   888                           ;print.c: 268: SetData(&(DWD[id+1].Dt),0b0100000
      +                          0,0b01000000);
   889  004128  0100               	movlb	__Lparam shr (0+8)
   890  00412A  51D4               	movf	?a_PrintErrMsg^(__Lparam& (0+65280)),w
   891  00412C  0D10               	mullw	16
   892  00412E  0EA6               	movlw	low (_DWD+22)
   893  004130  24F3               	addwf	prodl,w,c
   894  004132  6FDF               	movwf	?_SetData^(__Lparam& (0+65280)),b
   895  004134  0E01               	movlw	high (_DWD+22)
   896  004136  20F4               	addwfc	prodh,w,c
   897  004138  6FE0               	movwf	(?_SetData+1)^(__Lparam& (0+65280)),b
   898  00413A  0E40               	movlw	64
   899  00413C  6FE1               	movwf	(?_SetData+2)^(__Lparam& (0+65280)),b
   900  00413E  6FE2               	movwf	(?_SetData+3)^(__Lparam& (0+65280)),b
   901  004140  ECA1  F01B         	call	_SetData	;wreg free
   902                           ;print.c: 269: }
   903  004144  D07B               	goto	l45
   904  004146                     l23:
   905                           ;print.c: 272: else
   906  004146  0100               	movlb	__Lparam shr (0+8)
   907  004148  51D4               	movf	?a_PrintErrMsg^(__Lparam& (0+65280)),w
   908  00414A  0D10               	mullw	16
   909  00414C  0EAA               	movlw	low (_DWD+26)
   910  00414E  24F3               	addwf	prodl,w,c
   911  004150  6FDF               	movwf	?_SetStatus^(__Lparam& (0+65280)),b
   912  004152  0E01               	movlw	high (_DWD+26)
   913  004154  20F4               	addwfc	prodh,w,c
   914  004156  6FE0               	movwf	(?_SetStatus+1)^(__Lparam& (0+65280)),b
   915  004158  0E10               	movlw	16
   916  00415A  6FE1               	movwf	(?_SetStatus+2)^(__Lparam& (0+65280)),b
   917  00415C  0E80               	movlw	128
   918  00415E  6FE2               	movwf	(?_SetStatus+3)^(__Lparam& (0+65280)),b
   919  004160  69E3               	setf	(?_SetStatus+4)^(__Lparam& (0+65280)),b
   920  004162  69E4               	setf	(?_SetStatus+5)^(__Lparam& (0+65280)),b
   921  004164  6BE5               	clrf	(?_SetStatus+6)^(__Lparam& (0+65280)),b
   922  004166  0E7C               	movlw	124
   923  004168  6FE6               	movwf	(?_SetStatus+7)^(__Lparam& (0+65280)),b
   924  00416A  ECB1  F01B         	call	_SetStatus	;wreg free
   925                           ;print.c: 275: if(tm==1&&cs==1)
   926  00416E  0100               	movlb	__Lparam shr (0+8)
   927  004170  05D1               	decf	(?_PrintErrMsg+2)^(__Lparam& (0+65280)),w
   928  004172  E132               	bnz	l46
   929  004174  05D2               	decf	(?_PrintErrMsg+3)^(__Lparam& (0+65280)),w
   930  004176  E130               	bnz	l46
   931                           ;print.c: 276: {
   932  004178  51D4               	movf	?a_PrintErrMsg^(__Lparam& (0+65280)),w
   933  00417A  0D10               	mullw	16
   934  00417C  0EA0               	movlw	low (_DWD+16)
   935  00417E  24F3               	addwf	prodl,w,c
   936  004180  6FDF               	movwf	?_SetStatus^(__Lparam& (0+65280)),b
   937  004182  0E01               	movlw	high (_DWD+16)
   938  004184  20F4               	addwfc	prodh,w,c
   939  004186  6FE0               	movwf	(?_SetStatus+1)^(__Lparam& (0+65280)),b
   940  004188  0E10               	movlw	16
   941  00418A  6FE1               	movwf	(?_SetStatus+2)^(__Lparam& (0+65280)),b
   942  00418C  0EC0               	movlw	192
   943  00418E  6FE2               	movwf	(?_SetStatus+3)^(__Lparam& (0+65280)),b
   944  004190  69E3               	setf	(?_SetStatus+4)^(__Lparam& (0+65280)),b
   945  004192  69E4               	setf	(?_SetStatus+5)^(__Lparam& (0+65280)),b
   946  004194  6BE5               	clrf	(?_SetStatus+6)^(__Lparam& (0+65280)),b
   947  004196  0E7C               	movlw	124
   948  004198  6FE6               	movwf	(?_SetStatus+7)^(__Lparam& (0+65280)),b
   949  00419A  ECB1  F01B         	call	_SetStatus	;wreg free
   950                           ;print.c: 278: SetData(&(DWD[id+1].Dt2),0b000000
      +                          00,lkod);
   951  00419E  0100               	movlb	__Lparam shr (0+8)
   952  0041A0  51D4               	movf	?a_PrintErrMsg^(__Lparam& (0+65280)),w
   953  0041A2  0D10               	mullw	16
   954  0041A4  0EA8               	movlw	low (_DWD+24)
   955  0041A6  24F3               	addwf	prodl,w,c
   956  0041A8  6FDF               	movwf	?_SetData^(__Lparam& (0+65280)),b
   957  0041AA  0E01               	movlw	high (_DWD+24)
   958  0041AC  20F4               	addwfc	prodh,w,c
   959  0041AE  6FE0               	movwf	(?_SetData+1)^(__Lparam& (0+65280)),b
   960  0041B0  6BE1               	clrf	(?_SetData+2)^(__Lparam& (0+65280)),b
   961  0041B2  51CF               	movf	?_PrintErrMsg^(__Lparam& (0+65280)),w
   962  0041B4  6FE2               	movwf	(?_SetData+3)^(__Lparam& (0+65280)),b
   963  0041B6  ECA1  F01B         	call	_SetData	;wreg free
   964                           ;print.c: 279: SetData(&(DWD[id+1].Dt),0,nkod);
   965  0041BA  0100               	movlb	__Lparam shr (0+8)
   966  0041BC  51D4               	movf	?a_PrintErrMsg^(__Lparam& (0+65280)),w
   967  0041BE  0D10               	mullw	16
   968  0041C0  0EA6               	movlw	low (_DWD+22)
   969  0041C2  24F3               	addwf	prodl,w,c
   970  0041C4  6FDF               	movwf	?_SetData^(__Lparam& (0+65280)),b
   971  0041C6  0E01               	movlw	high (_DWD+22)
   972  0041C8  20F4               	addwfc	prodh,w,c
   973  0041CA  6FE0               	movwf	(?_SetData+1)^(__Lparam& (0+65280)),b
   974  0041CC  6BE1               	clrf	(?_SetData+2)^(__Lparam& (0+65280)),b
   975  0041CE  51D0               	movf	(?_PrintErrMsg+1)^(__Lparam& (0+65280)),w
   976  0041D0  6FE2               	movwf	(?_SetData+3)^(__Lparam& (0+65280)),b
   977  0041D2  ECA1  F01B         	call	_SetData	;wreg free
   978                           ;print.c: 281: }
   979  0041D6  D032               	goto	l45
   980  0041D8                     l46:
   981                           ;print.c: 282: else
   982  0041D8  0100               	movlb	__Lparam shr (0+8)
   983  0041DA  51D1               	movf	(?_PrintErrMsg+2)^(__Lparam& (0+65280)),w
   984  0041DC  E12F               	bnz	l45
   985  0041DE  51D2               	movf	(?_PrintErrMsg+3)^(__Lparam& (0+65280)),w
   986  0041E0  E12D               	bnz	l45
   987                           ;print.c: 284: {
   988  0041E2  51D4               	movf	?a_PrintErrMsg^(__Lparam& (0+65280)),w
   989  0041E4  0D10               	mullw	16
   990  0041E6  0EA0               	movlw	low (_DWD+16)
   991  0041E8  24F3               	addwf	prodl,w,c
   992  0041EA  6FDF               	movwf	?_SetStatus^(__Lparam& (0+65280)),b
   993  0041EC  0E01               	movlw	high (_DWD+16)
   994  0041EE  20F4               	addwfc	prodh,w,c
   995  0041F0  6FE0               	movwf	(?_SetStatus+1)^(__Lparam& (0+65280)),b
   996  0041F2  0E10               	movlw	16
   997  0041F4  6FE1               	movwf	(?_SetStatus+2)^(__Lparam& (0+65280)),b
   998  0041F6  0E80               	movlw	128
   999  0041F8  6FE2               	movwf	(?_SetStatus+3)^(__Lparam& (0+65280)),b
  1000  0041FA  69E3               	setf	(?_SetStatus+4)^(__Lparam& (0+65280)),b
  1001  0041FC  69E4               	setf	(?_SetStatus+5)^(__Lparam& (0+65280)),b
  1002  0041FE  6BE5               	clrf	(?_SetStatus+6)^(__Lparam& (0+65280)),b
  1003  004200  0E7C               	movlw	124
  1004  004202  6FE6               	movwf	(?_SetStatus+7)^(__Lparam& (0+65280)),b
  1005  004204  ECB1  F01B         	call	_SetStatus	;wreg free
  1006                           ;print.c: 286: SetData(&(DWD[id+1].Dt2),0b000000
      +                          00,0b00000000);
  1007  004208  0100               	movlb	__Lparam shr (0+8)
  1008  00420A  51D4               	movf	?a_PrintErrMsg^(__Lparam& (0+65280)),w
  1009  00420C  0D10               	mullw	16
  1010  00420E  0EA8               	movlw	low (_DWD+24)
  1011  004210  24F3               	addwf	prodl,w,c
  1012  004212  6FDF               	movwf	?_SetData^(__Lparam& (0+65280)),b
  1013  004214  0E01               	movlw	high (_DWD+24)
  1014  004216  20F4               	addwfc	prodh,w,c
  1015  004218  6FE0               	movwf	(?_SetData+1)^(__Lparam& (0+65280)),b
  1016  00421A  6BE1               	clrf	(?_SetData+2)^(__Lparam& (0+65280)),b
  1017  00421C  6BE2               	clrf	(?_SetData+3)^(__Lparam& (0+65280)),b
  1018  00421E  ECA1  F01B         	call	_SetData	;wreg free
  1019                           ;print.c: 287: SetData(&(DWD[id+1].Dt),0b0000000
      +                          0,0b00000000);
  1020  004222  0100               	movlb	__Lparam shr (0+8)
  1021  004224  51D4               	movf	?a_PrintErrMsg^(__Lparam& (0+65280)),w
  1022  004226  0D10               	mullw	16
  1023  004228  0EA6               	movlw	low (_DWD+22)
  1024  00422A  24F3               	addwf	prodl,w,c
  1025  00422C  6FDF               	movwf	?_SetData^(__Lparam& (0+65280)),b
  1026  00422E  0E01               	movlw	high (_DWD+22)
  1027  004230  20F4               	addwfc	prodh,w,c
  1028  004232  6FE0               	movwf	(?_SetData+1)^(__Lparam& (0+65280)),b
  1029  004234  6BE1               	clrf	(?_SetData+2)^(__Lparam& (0+65280)),b
  1030  004236  6BE2               	clrf	(?_SetData+3)^(__Lparam& (0+65280)),b
  1031  004238  ECA1  F01B         	call	_SetData	;wreg free
  1032  00423C                     l45:
  1033                           ;print.c: 288: }
  1034  00423C  0100               	movlb	__Lparam shr (0+8)
  1035  00423E  51D4               	movf	?a_PrintErrMsg^(__Lparam& (0+65280)),w
  1036  004240  E10A               	bnz	l49
  1037                           ;print.c: 292: {
  1038  004242  6BDF               	clrf	?_SetPoz^(__Lparam& (0+65280)),b
  1039  004244  0E00               	movlw	0
  1040  004246  EC5B  F01D         	call	_SetPoz
  1041                           ;print.c: 294: SetPoz(0,1);
  1042  00424A  0E01               	movlw	1
  1043  00424C  0100               	movlb	__Lparam shr (0+8)
  1044  00424E  6FDF               	movwf	?_SetPoz^(__Lparam& (0+65280)),b
  1045  004250  0E00               	movlw	0
  1046  004252  EF5B  F01D         	goto	_SetPoz
  1047                           ;print.c: 295: }
  1048  004256                     l49:
  1049                           ;print.c: 296: else
  1050  004256  0100               	movlb	__Lparam shr (0+8)
  1051  004258  6BDF               	clrf	?_SetPoz^(__Lparam& (0+65280)),b
  1052  00425A  0E02               	movlw	2
  1053  00425C  EC5B  F01D         	call	_SetPoz
  1054                           ;print.c: 299: SetPoz(2,1);
  1055  004260  0E01               	movlw	1
  1056  004262  0100               	movlb	__Lparam shr (0+8)
  1057  004264  6FDF               	movwf	?_SetPoz^(__Lparam& (0+65280)),b
  1058  004266  0E02               	movlw	2
  1059  004268  EF5B  F01D         	goto	_SetPoz
  1060                           ;print.c: 300: }
  1061  00426C                     __end_of_PrintErrMsg:
  1062                           ;print.c: 489: void PrintPR(const unsigned char 
      +                          lkod,unsigned char nkod,unsigned char tryb)
  1063                           ;print.c: 490: {
  1064  00426C  00D0               	dw	?_PrintPR
  1065  00426E                     _PrintPR:
  1066  000000                     
  1067                           ; _lkod loaded to fsr2l
  1068  00426E  6ED9               	movwf	fsr2l,c
  1069                           ;print.c: 496: if((nkod>99)&&!tryb) nkod=99;
  1070  004270  0E63               	movlw	99
  1071  004272  0100               	movlb	__Lparam shr (0+8)
  1072  004274  65D0               	cpfsgt	?_PrintPR^(__Lparam& (0+65280)),b
  1073  004276  D004               	goto	l52
  1074  004278  51D1               	movf	(?_PrintPR+1)^(__Lparam& (0+65280)),w
  1075  00427A  E102               	bnz	l52
  1076  00427C  0E63               	movlw	99
  1077  00427E  6FD0               	movwf	?_PrintPR^(__Lparam& (0+65280)),b
  1078  004280                     l52:
  1079                           ;print.c: 497: SetData(&(PWD[1].Dt2),0b00000000,
      +                          lkod);
  1080  004280  0100               	movlb	__Lparam shr (0+8)
  1081  004282  0E58               	movlw	low (_PWD+24)
  1082  004284  6FDF               	movwf	?_SetData^(__Lparam& (0+65280)),b
  1083  004286  0E01               	movlw	high (_PWD+24)
  1084  004288  6FE0               	movwf	(?_SetData+1)^(__Lparam& (0+65280)),b
  1085  00428A  6BE1               	clrf	(?_SetData+2)^(__Lparam& (0+65280)),b
  1086  00428C  50D9               	movf	fsr2l,w,c
  1087  00428E  6FE2               	movwf	(?_SetData+3)^(__Lparam& (0+65280)),b
  1088  004290  ECA1  F01B         	call	_SetData	;wreg free
  1089                           ;print.c: 498: SetStatus(&(PWD[1].St2),0b0000000
      +                          000000000|0b1000000000000000,0b1111111111111111,
      +                          0,0);
  1090  004294  0100               	movlb	__Lparam shr (0+8)
  1091  004296  0E5A               	movlw	low (_PWD+26)
  1092  004298  6FDF               	movwf	?_SetStatus^(__Lparam& (0+65280)),b
  1093  00429A  0E01               	movlw	high (_PWD+26)
  1094  00429C  6FE0               	movwf	(?_SetStatus+1)^(__Lparam& (0+65280)),b
  1095  00429E  6BE1               	clrf	(?_SetStatus+2)^(__Lparam& (0+65280)),b
  1096  0042A0  0E80               	movlw	128
  1097  0042A2  6FE2               	movwf	(?_SetStatus+3)^(__Lparam& (0+65280)),b
  1098  0042A4  69E3               	setf	(?_SetStatus+4)^(__Lparam& (0+65280)),b
  1099  0042A6  69E4               	setf	(?_SetStatus+5)^(__Lparam& (0+65280)),b
  1100  0042A8  6BE5               	clrf	(?_SetStatus+6)^(__Lparam& (0+65280)),b
  1101  0042AA  6BE6               	clrf	(?_SetStatus+7)^(__Lparam& (0+65280)),b
  1102  0042AC  ECB1  F01B         	call	_SetStatus	;wreg free
  1103                           ;print.c: 499: SetData(&(PWD[1].Dt),0,nkod);
  1104  0042B0  0100               	movlb	__Lparam shr (0+8)
  1105  0042B2  0E56               	movlw	low (_PWD+22)
  1106  0042B4  6FDF               	movwf	?_SetData^(__Lparam& (0+65280)),b
  1107  0042B6  0E01               	movlw	high (_PWD+22)
  1108  0042B8  6FE0               	movwf	(?_SetData+1)^(__Lparam& (0+65280)),b
  1109  0042BA  6BE1               	clrf	(?_SetData+2)^(__Lparam& (0+65280)),b
  1110  0042BC  51D0               	movf	?_PrintPR^(__Lparam& (0+65280)),w
  1111  0042BE  6FE2               	movwf	(?_SetData+3)^(__Lparam& (0+65280)),b
  1112  0042C0  ECA1  F01B         	call	_SetData	;wreg free
  1113  0042C4  D024               	goto	L16
  1114                           ;print.c: 500: SetStatus(&(PWD[1].St),0b01000000
      +                          00000000|0b0000000000100000|0b1000000000000000,0
      +                          b1111111111111111,0b0000000000000100,0);
  1115                           ;print.c: 503: }
  1116  0042C6                     __end_of_PrintPR:
  1117                           ;print.c: 506: void PrintWPR(unsigned char hi_wr
      +                          ,unsigned char lo_wr)
  1118                           ;print.c: 507: {
  1119  0042C6  00D0               	dw	?_PrintWPR
  1120  0042C8                     _PrintWPR:
  1121  000000                     
  1122                           ; _hi_wr loaded to fsr2l
  1123  0042C8  6ED9               	movwf	fsr2l,c
  1124                           ;print.c: 512: SetData(&(PWD[1].Dt2),0,hi_wr);
  1125  0042CA  0100               	movlb	__Lparam shr (0+8)
  1126  0042CC  0E58               	movlw	low (_PWD+24)
  1127  0042CE  6FDF               	movwf	?_SetData^(__Lparam& (0+65280)),b
  1128  0042D0  0E01               	movlw	high (_PWD+24)
  1129  0042D2  6FE0               	movwf	(?_SetData+1)^(__Lparam& (0+65280)),b
  1130  0042D4  6BE1               	clrf	(?_SetData+2)^(__Lparam& (0+65280)),b
  1131  0042D6  50D9               	movf	fsr2l,w,c
  1132  0042D8  6FE2               	movwf	(?_SetData+3)^(__Lparam& (0+65280)),b
  1133  0042DA  ECA1  F01B         	call	_SetData	;wreg free
  1134                           ;print.c: 513: SetStatus(&(PWD[1].St2),0b0100000
      +                          000000000|0b1000000000000000,0b1111111111111111,
      +                          0,0);
  1135  0042DE  0100               	movlb	__Lparam shr (0+8)
  1136  0042E0  0E5A               	movlw	low (_PWD+26)
  1137  0042E2  6FDF               	movwf	?_SetStatus^(__Lparam& (0+65280)),b
  1138  0042E4  0E01               	movlw	high (_PWD+26)
  1139  0042E6  6FE0               	movwf	(?_SetStatus+1)^(__Lparam& (0+65280)),b
  1140  0042E8  6BE1               	clrf	(?_SetStatus+2)^(__Lparam& (0+65280)),b
  1141  0042EA  0EC0               	movlw	192
  1142  0042EC  6FE2               	movwf	(?_SetStatus+3)^(__Lparam& (0+65280)),b
  1143  0042EE  69E3               	setf	(?_SetStatus+4)^(__Lparam& (0+65280)),b
  1144  0042F0  69E4               	setf	(?_SetStatus+5)^(__Lparam& (0+65280)),b
  1145  0042F2  6BE5               	clrf	(?_SetStatus+6)^(__Lparam& (0+65280)),b
  1146  0042F4  6BE6               	clrf	(?_SetStatus+7)^(__Lparam& (0+65280)),b
  1147  0042F6  ECB1  F01B         	call	_SetStatus	;wreg free
  1148                           ;print.c: 514: SetData(&(PWD[1].Dt),0,lo_wr);
  1149  0042FA  0100               	movlb	__Lparam shr (0+8)
  1150  0042FC  0E56               	movlw	low (_PWD+22)
  1151  0042FE  6FDF               	movwf	?_SetData^(__Lparam& (0+65280)),b
  1152  004300  0E01               	movlw	high (_PWD+22)
  1153  004302  6FE0               	movwf	(?_SetData+1)^(__Lparam& (0+65280)),b
  1154  004304  6BE1               	clrf	(?_SetData+2)^(__Lparam& (0+65280)),b
  1155  004306  51D0               	movf	?_PrintWPR^(__Lparam& (0+65280)),w
  1156  004308  6FE2               	movwf	(?_SetData+3)^(__Lparam& (0+65280)),b
  1157  00430A  ECA1  F01B         	call	_SetData	;wreg free
  1158  00430E                     L16:
  1159                           ;print.c: 515: SetStatus(&(PWD[1].St),0b01000000
      +                          00000000|0b0000000000100000|0b1000000000000000,0
      +                          b1111111111111111,0b0000000000000100,0);
  1160  00430E  0100               	movlb	__Lparam shr (0+8)
  1161  004310  0E50               	movlw	low (_PWD+16)
  1162  004312  6FDF               	movwf	?_SetStatus^(__Lparam& (0+65280)),b
  1163  004314  0E01               	movlw	high (_PWD+16)
  1164  004316  6FE0               	movwf	(?_SetStatus+1)^(__Lparam& (0+65280)),b
  1165  004318  0E20               	movlw	32
  1166  00431A  6FE1               	movwf	(?_SetStatus+2)^(__Lparam& (0+65280)),b
  1167  00431C  0EC0               	movlw	192
  1168  00431E  6FE2               	movwf	(?_SetStatus+3)^(__Lparam& (0+65280)),b
  1169  004320  69E3               	setf	(?_SetStatus+4)^(__Lparam& (0+65280)),b
  1170  004322  69E4               	setf	(?_SetStatus+5)^(__Lparam& (0+65280)),b
  1171  004324  0E04               	movlw	4
  1172  004326  6FE5               	movwf	(?_SetStatus+6)^(__Lparam& (0+65280)),b
  1173  004328  D019               	goto	L17
  1174                           ;print.c: 518: }
  1175  00432A                     __end_of_PrintWPR:
  1176                           ;print.c: 521: void EndPR(void)
  1177                           ;print.c: 522: {
  1178  00432A                     _EndPR:
  1179  000000                     
  1180                           ;print.c: 526: SetStatus(&(PWD[1].St),0b01000000
      +                          00000000,0b1111111111111111,0,0);
  1181  00432A  0100               	movlb	__Lparam shr (0+8)
  1182  00432C  0E50               	movlw	low (_PWD+16)
  1183  00432E  6FDF               	movwf	?_SetStatus^(__Lparam& (0+65280)),b
  1184  004330  0E01               	movlw	high (_PWD+16)
  1185  004332  6FE0               	movwf	(?_SetStatus+1)^(__Lparam& (0+65280)),b
  1186  004334  6BE1               	clrf	(?_SetStatus+2)^(__Lparam& (0+65280)),b
  1187  004336  0E40               	movlw	64
  1188  004338  6FE2               	movwf	(?_SetStatus+3)^(__Lparam& (0+65280)),b
  1189  00433A  69E3               	setf	(?_SetStatus+4)^(__Lparam& (0+65280)),b
  1190  00433C  69E4               	setf	(?_SetStatus+5)^(__Lparam& (0+65280)),b
  1191  00433E  6BE5               	clrf	(?_SetStatus+6)^(__Lparam& (0+65280)),b
  1192  004340  6BE6               	clrf	(?_SetStatus+7)^(__Lparam& (0+65280)),b
  1193  004342  ECB1  F01B         	call	_SetStatus	;wreg free
  1194                           ;print.c: 527: SetStatus(&(PWD[1].St2),0b0100000
      +                          000000000,0b1111111111111111,0,0);
  1195  004346  0100               	movlb	__Lparam shr (0+8)
  1196  004348  0E5A               	movlw	low (_PWD+26)
  1197  00434A  6FDF               	movwf	?_SetStatus^(__Lparam& (0+65280)),b
  1198  00434C  0E01               	movlw	high (_PWD+26)
  1199  00434E  6FE0               	movwf	(?_SetStatus+1)^(__Lparam& (0+65280)),b
  1200  004350  6BE1               	clrf	(?_SetStatus+2)^(__Lparam& (0+65280)),b
  1201  004352  0E40               	movlw	64
  1202  004354                     L18:
  1203  004354  6FE2               	movwf	(?_SetStatus+3)^(__Lparam& (0+65280)),b
  1204  004356  69E3               	setf	(?_SetStatus+4)^(__Lparam& (0+65280)),b
  1205  004358  69E4               	setf	(?_SetStatus+5)^(__Lparam& (0+65280)),b
  1206  00435A  6BE5               	clrf	(?_SetStatus+6)^(__Lparam& (0+65280)),b
  1207  00435C                     L17:
  1208  00435C  6BE6               	clrf	(?_SetStatus+7)^(__Lparam& (0+65280)),b
  1209  00435E  EFB1  F01B         	goto	_SetStatus	;wreg free
  1210                           ;print.c: 530: }
  1211  004362                     __end_of_EndPR:
  1212                           ;print.c: 553: void PrintNstCW(const unsigned ch
      +                          ar nst,const unsigned char only)
  1213                           ;print.c: 554: {
  1214  004362  00CF               	dw	?_PrintNstCW
  1215  004364                     _PrintNstCW:
  1216  000000                     
  1217                           ; _nst loaded to fsr2l
  1218  004364  6ED9               	movwf	fsr2l,c
  1219                           ;print.c: 555: unsigned int fl,fk,fm,fn;
  1220  004366  0100               	movlb	__Lparam shr (0+8)
  1221  004368  51CF               	movf	?_PrintNstCW^(__Lparam& (0+65280)),w
  1222  00436A  E003               	bz	u506
  1223  00436C  0E04               	movlw	4
  1224  00436E  6E00               	movwf	btemp,c
  1225  004370  D001               	goto	L6
  1226  004372                     u506:
  1227  004372  6A00               	clrf	btemp,c
  1228  004374                     L6:
  1229  004374  6A01               	clrf	btemp+1,c
  1230  004376  C000  F0D0         	movff	btemp,?a_PrintNstCW
  1231  00437A  C001  F0D1         	movff	btemp+1,?a_PrintNstCW+1
  1232                           ;print.c: 557: SetData(&(DWD[2].Dt2),0,nst);
  1233  00437E  0EB8               	movlw	low (_DWD+40)
  1234  004380  6FDF               	movwf	?_SetData^(__Lparam& (0+65280)),b
  1235  004382  0E01               	movlw	high (_DWD+40)
  1236  004384  6FE0               	movwf	(?_SetData+1)^(__Lparam& (0+65280)),b
  1237  004386  6BE1               	clrf	(?_SetData+2)^(__Lparam& (0+65280)),b
  1238  004388  50D9               	movf	fsr2l,w,c
  1239  00438A  6FE2               	movwf	(?_SetData+3)^(__Lparam& (0+65280)),b
  1240  00438C  ECA1  F01B         	call	_SetData	;wreg free
  1241                           ;print.c: 558: SetData(&(DWD[3].Dt2),0b00000000,
      +                          0b00000000);
  1242  004390  0100               	movlb	__Lparam shr (0+8)
  1243  004392  0EC8               	movlw	low (_DWD+56)
  1244  004394  6FDF               	movwf	?_SetData^(__Lparam& (0+65280)),b
  1245  004396  0E01               	movlw	high (_DWD+56)
  1246  004398  6FE0               	movwf	(?_SetData+1)^(__Lparam& (0+65280)),b
  1247  00439A  6BE1               	clrf	(?_SetData+2)^(__Lparam& (0+65280)),b
  1248  00439C  6BE2               	clrf	(?_SetData+3)^(__Lparam& (0+65280)),b
  1249  00439E  ECA1  F01B         	call	_SetData	;wreg free
  1250                           ;print.c: 559: SetStatus(&(DWD[2].St2),fl|0b0100
      +                          000000000000|0b0000000000100000|0b10000000000000
      +                          00,0b1111111111111111,0b0000000000100000|0b00000
      +                          00000000010,0);
  1251  0043A2  0100               	movlb	__Lparam shr (0+8)
  1252  0043A4  0EBA               	movlw	low (_DWD+42)
  1253  0043A6  6FDF               	movwf	?_SetStatus^(__Lparam& (0+65280)),b
  1254  0043A8  0E01               	movlw	high (_DWD+42)
  1255  0043AA  6FE0               	movwf	(?_SetStatus+1)^(__Lparam& (0+65280)),b
  1256  0043AC  0E20               	movlw	32
  1257  0043AE  11D0               	iorwf	?a_PrintNstCW^(__Lparam& (0+65280)),w
  1258  0043B0  6FE1               	movwf	(?_SetStatus+2)^(__Lparam& (0+65280)),b
  1259  0043B2  0EC0               	movlw	192
  1260  0043B4  11D1               	iorwf	(?a_PrintNstCW+1)^(__Lparam& (0+65280)),w
  1261  0043B6  6FE2               	movwf	(?_SetStatus+3)^(__Lparam& (0+65280)),b
  1262  0043B8  69E3               	setf	(?_SetStatus+4)^(__Lparam& (0+65280)),b
  1263  0043BA  69E4               	setf	(?_SetStatus+5)^(__Lparam& (0+65280)),b
  1264  0043BC  0E22               	movlw	34
  1265  0043BE  6FE5               	movwf	(?_SetStatus+6)^(__Lparam& (0+65280)),b
  1266  0043C0  6BE6               	clrf	(?_SetStatus+7)^(__Lparam& (0+65280)),b
  1267  0043C2  ECB1  F01B         	call	_SetStatus	;wreg free
  1268                           ;print.c: 560: SetStatus(&(DWD[3].St2),fl|0b0000
      +                          000000000000|0b0000000000010000,0b11111111111111
      +                          11,0,0b0000000000000010|0b0000000000100000);
  1269  0043C6  0100               	movlb	__Lparam shr (0+8)
  1270  0043C8  0ECA               	movlw	low (_DWD+58)
  1271  0043CA  6FDF               	movwf	?_SetStatus^(__Lparam& (0+65280)),b
  1272  0043CC  0E01               	movlw	high (_DWD+58)
  1273  0043CE  6FE0               	movwf	(?_SetStatus+1)^(__Lparam& (0+65280)),b
  1274  0043D0  0E10               	movlw	16
  1275  0043D2  11D0               	iorwf	?a_PrintNstCW^(__Lparam& (0+65280)),w
  1276  0043D4  6FE1               	movwf	(?_SetStatus+2)^(__Lparam& (0+65280)),b
  1277  0043D6  51D1               	movf	(?a_PrintNstCW+1)^(__Lparam& (0+65280)),w
  1278  0043D8  6FE2               	movwf	(?_SetStatus+3)^(__Lparam& (0+65280)),b
  1279  0043DA  69E3               	setf	(?_SetStatus+4)^(__Lparam& (0+65280)),b
  1280  0043DC  69E4               	setf	(?_SetStatus+5)^(__Lparam& (0+65280)),b
  1281  0043DE  6BE5               	clrf	(?_SetStatus+6)^(__Lparam& (0+65280)),b
  1282  0043E0  0E22               	movlw	34
  1283  0043E2  6FE6               	movwf	(?_SetStatus+7)^(__Lparam& (0+65280)),b
  1284  0043E4  ECB1  F01B         	call	_SetStatus	;wreg free
  1285                           ;print.c: 561: MarkMinMax(1,0);
  1286  0043E8  0100               	movlb	__Lparam shr (0+8)
  1287  0043EA  6BDB               	clrf	?_MarkMinMax^(__Lparam& (0+65280)),b
  1288  0043EC  0E01               	movlw	1
  1289  0043EE  ECBF  F008         	call	_MarkMinMax
  1290                           ;print.c: 563: if(!only)
  1291  0043F2  0100               	movlb	__Lparam shr (0+8)
  1292  0043F4  51CF               	movf	?_PrintNstCW^(__Lparam& (0+65280)),w
  1293  0043F6  E11F               	bnz	l56
  1294                           ;print.c: 564: {
  1295  0043F8  0EB0               	movlw	low (_DWD+32)
  1296  0043FA  6FDF               	movwf	?_SetStatus^(__Lparam& (0+65280)),b
  1297  0043FC  0E01               	movlw	high (_DWD+32)
  1298  0043FE  6FE0               	movwf	(?_SetStatus+1)^(__Lparam& (0+65280)),b
  1299  004400  0E10               	movlw	16
  1300  004402  6FE1               	movwf	(?_SetStatus+2)^(__Lparam& (0+65280)),b
  1301  004404  0E03               	movlw	3
  1302  004406  6FE2               	movwf	(?_SetStatus+3)^(__Lparam& (0+65280)),b
  1303  004408  69E3               	setf	(?_SetStatus+4)^(__Lparam& (0+65280)),b
  1304  00440A  69E4               	setf	(?_SetStatus+5)^(__Lparam& (0+65280)),b
  1305  00440C  6BE5               	clrf	(?_SetStatus+6)^(__Lparam& (0+65280)),b
  1306  00440E  0ED0               	movlw	208
  1307  004410  6FE6               	movwf	(?_SetStatus+7)^(__Lparam& (0+65280)),b
  1308  004412  ECB1  F01B         	call	_SetStatus	;wreg free
  1309                           ;print.c: 566: SetStatus(&(DWD[3].St),0b00000011
      +                          00000000|0b0000000000010000,0b1111111111111111,0
      +                          ,0b0000000010000000|0b0000000000010000|0b0000000
      +                          001000000);
  1310  004416  0100               	movlb	__Lparam shr (0+8)
  1311  004418  0EC0               	movlw	low (_DWD+48)
  1312  00441A  6FDF               	movwf	?_SetStatus^(__Lparam& (0+65280)),b
  1313  00441C  0E01               	movlw	high (_DWD+48)
  1314  00441E  6FE0               	movwf	(?_SetStatus+1)^(__Lparam& (0+65280)),b
  1315  004420  0E10               	movlw	16
  1316  004422  6FE1               	movwf	(?_SetStatus+2)^(__Lparam& (0+65280)),b
  1317  004424  0E03               	movlw	3
  1318  004426  6FE2               	movwf	(?_SetStatus+3)^(__Lparam& (0+65280)),b
  1319  004428  69E3               	setf	(?_SetStatus+4)^(__Lparam& (0+65280)),b
  1320  00442A  69E4               	setf	(?_SetStatus+5)^(__Lparam& (0+65280)),b
  1321  00442C  6BE5               	clrf	(?_SetStatus+6)^(__Lparam& (0+65280)),b
  1322  00442E  0ED0               	movlw	208
  1323  004430  6FE6               	movwf	(?_SetStatus+7)^(__Lparam& (0+65280)),b
  1324  004432  ECB1  F01B         	call	_SetStatus	;wreg free
  1325  004436                     l56:
  1326  004436  D1B8               	goto	L19
  1327                           ;print.c: 567: }
  1328                           ;print.c: 570: }
  1329  004438                     __end_of_PrintNstCW:
  1330                           ;print.c: 572: void PrintNstCW2(const unsigned c
      +                          har nst,const unsigned char min, const unsigned 
      +                          char only)
  1331                           ;print.c: 573: {
  1332  004438  00CF               	dw	?_PrintNstCW2
  1333  00443A                     _PrintNstCW2:
  1334  000000                     
  1335                           ; _nst loaded to fsr2l
  1336  00443A  6ED9               	movwf	fsr2l,c
  1337                           ;print.c: 574: unsigned int fl,fk,fm,fn;
  1338  00443C  0100               	movlb	__Lparam shr (0+8)
  1339  00443E  51D0               	movf	(?_PrintNstCW2+1)^(__Lparam& (0+65280)),w
  1340  004440  E003               	bz	u536
  1341  004442  0E04               	movlw	4
  1342  004444  6E00               	movwf	btemp,c
  1343  004446  D001               	goto	L7
  1344  004448                     u536:
  1345  004448  6A00               	clrf	btemp,c
  1346  00444A                     L7:
  1347  00444A  6A01               	clrf	btemp+1,c
  1348  00444C  C000  F0D1         	movff	btemp,?a_PrintNstCW2
  1349  004450  C001  F0D2         	movff	btemp+1,?a_PrintNstCW2+1
  1350                           ;print.c: 576: if(nst>min)
  1351  004454  50D9               	movf	fsr2l,w,c
  1352  004456  61CF               	cpfslt	?_PrintNstCW2^(__Lparam& (0+65280)),b
  1353  004458  D03B               	goto	l58
  1354                           ;print.c: 577: {
  1355  00445A  0EB8               	movlw	low (_DWD+40)
  1356  00445C  6FDF               	movwf	?_SetData^(__Lparam& (0+65280)),b
  1357  00445E  0E01               	movlw	high (_DWD+40)
  1358  004460  6FE0               	movwf	(?_SetData+1)^(__Lparam& (0+65280)),b
  1359  004462  6BE1               	clrf	(?_SetData+2)^(__Lparam& (0+65280)),b
  1360  004464  50D9               	movf	fsr2l,w,c
  1361  004466  6FE2               	movwf	(?_SetData+3)^(__Lparam& (0+65280)),b
  1362  004468  ECA1  F01B         	call	_SetData	;wreg free
  1363                           ;print.c: 579: SetData(&(DWD[3].Dt2),0b00000000,
      +                          0b00000000);
  1364  00446C  0100               	movlb	__Lparam shr (0+8)
  1365  00446E  0EC8               	movlw	low (_DWD+56)
  1366  004470  6FDF               	movwf	?_SetData^(__Lparam& (0+65280)),b
  1367  004472  0E01               	movlw	high (_DWD+56)
  1368  004474  6FE0               	movwf	(?_SetData+1)^(__Lparam& (0+65280)),b
  1369  004476  6BE1               	clrf	(?_SetData+2)^(__Lparam& (0+65280)),b
  1370  004478  6BE2               	clrf	(?_SetData+3)^(__Lparam& (0+65280)),b
  1371  00447A  ECA1  F01B         	call	_SetData	;wreg free
  1372                           ;print.c: 580: SetStatus(&(DWD[2].St2),fl|0b0100
      +                          000000000000|0b0000000000100000|0b10000000000000
      +                          00,0b1111111111111111,0b0000000000100000|0b00000
      +                          00000000010,0);
  1373  00447E  0100               	movlb	__Lparam shr (0+8)
  1374  004480  0EBA               	movlw	low (_DWD+42)
  1375  004482  6FDF               	movwf	?_SetStatus^(__Lparam& (0+65280)),b
  1376  004484  0E01               	movlw	high (_DWD+42)
  1377  004486  6FE0               	movwf	(?_SetStatus+1)^(__Lparam& (0+65280)),b
  1378  004488  0E20               	movlw	32
  1379  00448A  11D1               	iorwf	?a_PrintNstCW2^(__Lparam& (0+65280)),w
  1380  00448C  6FE1               	movwf	(?_SetStatus+2)^(__Lparam& (0+65280)),b
  1381  00448E  0EC0               	movlw	192
  1382  004490  11D2               	iorwf	(?a_PrintNstCW2+1)^(__Lparam& (0+65280)),
      +                          w
  1383  004492  6FE2               	movwf	(?_SetStatus+3)^(__Lparam& (0+65280)),b
  1384  004494  69E3               	setf	(?_SetStatus+4)^(__Lparam& (0+65280)),b
  1385  004496  69E4               	setf	(?_SetStatus+5)^(__Lparam& (0+65280)),b
  1386  004498  0E22               	movlw	34
  1387  00449A  6FE5               	movwf	(?_SetStatus+6)^(__Lparam& (0+65280)),b
  1388  00449C  6BE6               	clrf	(?_SetStatus+7)^(__Lparam& (0+65280)),b
  1389  00449E  ECB1  F01B         	call	_SetStatus	;wreg free
  1390                           ;print.c: 581: SetStatus(&(DWD[3].St2),fl|0b0000
      +                          000000000000|0b0000000000010000,0b11111111111111
      +                          11,0,0b0000000000000010|0b0000000000100000);
  1391  0044A2  0100               	movlb	__Lparam shr (0+8)
  1392  0044A4  0ECA               	movlw	low (_DWD+58)
  1393  0044A6  6FDF               	movwf	?_SetStatus^(__Lparam& (0+65280)),b
  1394  0044A8  0E01               	movlw	high (_DWD+58)
  1395  0044AA  6FE0               	movwf	(?_SetStatus+1)^(__Lparam& (0+65280)),b
  1396  0044AC  0E10               	movlw	16
  1397  0044AE  11D1               	iorwf	?a_PrintNstCW2^(__Lparam& (0+65280)),w
  1398  0044B0  6FE1               	movwf	(?_SetStatus+2)^(__Lparam& (0+65280)),b
  1399  0044B2  51D2               	movf	(?a_PrintNstCW2+1)^(__Lparam& (0+65280)),w
  1400  0044B4  6FE2               	movwf	(?_SetStatus+3)^(__Lparam& (0+65280)),b
  1401  0044B6  69E3               	setf	(?_SetStatus+4)^(__Lparam& (0+65280)),b
  1402  0044B8  69E4               	setf	(?_SetStatus+5)^(__Lparam& (0+65280)),b
  1403  0044BA  6BE5               	clrf	(?_SetStatus+6)^(__Lparam& (0+65280)),b
  1404  0044BC  0E22               	movlw	34
  1405  0044BE  6FE6               	movwf	(?_SetStatus+7)^(__Lparam& (0+65280)),b
  1406  0044C0  ECB1  F01B         	call	_SetStatus	;wreg free
  1407                           ;print.c: 582: MarkMinMax(1,0);
  1408  0044C4  0100               	movlb	__Lparam shr (0+8)
  1409  0044C6  6BDB               	clrf	?_MarkMinMax^(__Lparam& (0+65280)),b
  1410  0044C8  0E01               	movlw	1
  1411  0044CA  ECBF  F008         	call	_MarkMinMax
  1412                           ;print.c: 583: }
  1413  0044CE  D039               	goto	l59
  1414  0044D0                     l58:
  1415                           ;print.c: 584: else
  1416  0044D0  0100               	movlb	__Lparam shr (0+8)
  1417  0044D2  0EB8               	movlw	low (_DWD+40)
  1418  0044D4  6FDF               	movwf	?_SetData^(__Lparam& (0+65280)),b
  1419  0044D6  0E01               	movlw	high (_DWD+40)
  1420  0044D8  6FE0               	movwf	(?_SetData+1)^(__Lparam& (0+65280)),b
  1421  0044DA  0E40               	movlw	64
  1422  0044DC  6FE1               	movwf	(?_SetData+2)^(__Lparam& (0+65280)),b
  1423  0044DE  6FE2               	movwf	(?_SetData+3)^(__Lparam& (0+65280)),b
  1424  0044E0  ECA1  F01B         	call	_SetData	;wreg free
  1425                           ;print.c: 587: SetData(&(DWD[3].Dt2),0b00000000,
      +                          0b00000000);
  1426  0044E4  0100               	movlb	__Lparam shr (0+8)
  1427  0044E6  0EC8               	movlw	low (_DWD+56)
  1428  0044E8  6FDF               	movwf	?_SetData^(__Lparam& (0+65280)),b
  1429  0044EA  0E01               	movlw	high (_DWD+56)
  1430  0044EC  6FE0               	movwf	(?_SetData+1)^(__Lparam& (0+65280)),b
  1431  0044EE  6BE1               	clrf	(?_SetData+2)^(__Lparam& (0+65280)),b
  1432  0044F0  6BE2               	clrf	(?_SetData+3)^(__Lparam& (0+65280)),b
  1433  0044F2  ECA1  F01B         	call	_SetData	;wreg free
  1434                           ;print.c: 588: SetStatus(&(DWD[2].St2),fl|0b0000
      +                          000000000000|0b0000000000100000|0b00000000000100
      +                          00|0b1000000000000000,0b1111111111111111,0b00000
      +                          00000000010,0b0000000000100000);
  1435  0044F6  0100               	movlb	__Lparam shr (0+8)
  1436  0044F8  0EBA               	movlw	low (_DWD+42)
  1437  0044FA  6FDF               	movwf	?_SetStatus^(__Lparam& (0+65280)),b
  1438  0044FC  0E01               	movlw	high (_DWD+42)
  1439  0044FE  6FE0               	movwf	(?_SetStatus+1)^(__Lparam& (0+65280)),b
  1440  004500  0E30               	movlw	48
  1441  004502  11D1               	iorwf	?a_PrintNstCW2^(__Lparam& (0+65280)),w
  1442  004504  6FE1               	movwf	(?_SetStatus+2)^(__Lparam& (0+65280)),b
  1443  004506  0E80               	movlw	128
  1444  004508  11D2               	iorwf	(?a_PrintNstCW2+1)^(__Lparam& (0+65280)),
      +                          w
  1445  00450A  6FE2               	movwf	(?_SetStatus+3)^(__Lparam& (0+65280)),b
  1446  00450C  69E3               	setf	(?_SetStatus+4)^(__Lparam& (0+65280)),b
  1447  00450E  69E4               	setf	(?_SetStatus+5)^(__Lparam& (0+65280)),b
  1448  004510  0E02               	movlw	2
  1449  004512  6FE5               	movwf	(?_SetStatus+6)^(__Lparam& (0+65280)),b
  1450  004514  0E20               	movlw	32
  1451  004516  6FE6               	movwf	(?_SetStatus+7)^(__Lparam& (0+65280)),b
  1452  004518  ECB1  F01B         	call	_SetStatus	;wreg free
  1453                           ;print.c: 589: SetStatus(&(DWD[3].St2),fl|0b0000
      +                          000000000000|0b0000000000100000|0b00000000000100
      +                          00,0b1111111111111111,0b0000000000000010,0b00000
      +                          00000100000);
  1454  00451C  0100               	movlb	__Lparam shr (0+8)
  1455  00451E  0ECA               	movlw	low (_DWD+58)
  1456  004520  6FDF               	movwf	?_SetStatus^(__Lparam& (0+65280)),b
  1457  004522  0E01               	movlw	high (_DWD+58)
  1458  004524  6FE0               	movwf	(?_SetStatus+1)^(__Lparam& (0+65280)),b
  1459  004526  0E30               	movlw	48
  1460  004528  11D1               	iorwf	?a_PrintNstCW2^(__Lparam& (0+65280)),w
  1461  00452A  6FE1               	movwf	(?_SetStatus+2)^(__Lparam& (0+65280)),b
  1462  00452C  51D2               	movf	(?a_PrintNstCW2+1)^(__Lparam& (0+65280)),w
  1463  00452E  6FE2               	movwf	(?_SetStatus+3)^(__Lparam& (0+65280)),b
  1464  004530  69E3               	setf	(?_SetStatus+4)^(__Lparam& (0+65280)),b
  1465  004532  69E4               	setf	(?_SetStatus+5)^(__Lparam& (0+65280)),b
  1466  004534  0E02               	movlw	2
  1467  004536  6FE5               	movwf	(?_SetStatus+6)^(__Lparam& (0+65280)),b
  1468  004538  0E20               	movlw	32
  1469  00453A  6FE6               	movwf	(?_SetStatus+7)^(__Lparam& (0+65280)),b
  1470  00453C  ECB1  F01B         	call	_SetStatus	;wreg free
  1471                           ;print.c: 590: ClrMarkMinMax();
  1472  004540  D94D               	call	_ClrMarkMinMax	;wreg free
  1473  004542                     l59:
  1474                           ;print.c: 591: }
  1475  004542  0100               	movlb	__Lparam shr (0+8)
  1476  004544  51D0               	movf	(?_PrintNstCW2+1)^(__Lparam& (0+65280)),w
  1477  004546  E11F               	bnz	l60
  1478                           ;print.c: 594: {
  1479  004548  0EB0               	movlw	low (_DWD+32)
  1480  00454A  6FDF               	movwf	?_SetStatus^(__Lparam& (0+65280)),b
  1481  00454C  0E01               	movlw	high (_DWD+32)
  1482  00454E  6FE0               	movwf	(?_SetStatus+1)^(__Lparam& (0+65280)),b
  1483  004550  0E10               	movlw	16
  1484  004552  6FE1               	movwf	(?_SetStatus+2)^(__Lparam& (0+65280)),b
  1485  004554  0E03               	movlw	3
  1486  004556  6FE2               	movwf	(?_SetStatus+3)^(__Lparam& (0+65280)),b
  1487  004558  69E3               	setf	(?_SetStatus+4)^(__Lparam& (0+65280)),b
  1488  00455A  69E4               	setf	(?_SetStatus+5)^(__Lparam& (0+65280)),b
  1489  00455C  6BE5               	clrf	(?_SetStatus+6)^(__Lparam& (0+65280)),b
  1490  00455E  0ED0               	movlw	208
  1491  004560  6FE6               	movwf	(?_SetStatus+7)^(__Lparam& (0+65280)),b
  1492  004562  ECB1  F01B         	call	_SetStatus	;wreg free
  1493                           ;print.c: 596: SetStatus(&(DWD[3].St),0b00000011
      +                          00000000|0b0000000000010000,0b1111111111111111,0
      +                          ,0b0000000010000000|0b0000000000010000|0b0000000
      +                          001000000);
  1494  004566  0100               	movlb	__Lparam shr (0+8)
  1495  004568  0EC0               	movlw	low (_DWD+48)
  1496  00456A  6FDF               	movwf	?_SetStatus^(__Lparam& (0+65280)),b
  1497  00456C  0E01               	movlw	high (_DWD+48)
  1498  00456E  6FE0               	movwf	(?_SetStatus+1)^(__Lparam& (0+65280)),b
  1499  004570  0E10               	movlw	16
  1500  004572  6FE1               	movwf	(?_SetStatus+2)^(__Lparam& (0+65280)),b
  1501  004574  0E03               	movlw	3
  1502  004576  6FE2               	movwf	(?_SetStatus+3)^(__Lparam& (0+65280)),b
  1503  004578  69E3               	setf	(?_SetStatus+4)^(__Lparam& (0+65280)),b
  1504  00457A  69E4               	setf	(?_SetStatus+5)^(__Lparam& (0+65280)),b
  1505  00457C  6BE5               	clrf	(?_SetStatus+6)^(__Lparam& (0+65280)),b
  1506  00457E  0ED0               	movlw	208
  1507  004580  6FE6               	movwf	(?_SetStatus+7)^(__Lparam& (0+65280)),b
  1508  004582  ECB1  F01B         	call	_SetStatus	;wreg free
  1509  004586                     l60:
  1510  004586  D110               	goto	L19
  1511                           ;print.c: 597: }
  1512                           ;print.c: 600: }
  1513  004588                     __end_of_PrintNstCW2:
  1514                           ;print.c: 603: void PrintNstCO(const unsigned ch
      +                          ar nst,const unsigned char kt,const unsigned cha
      +                          r only)
  1515                           ;print.c: 604: {
  1516  004588  00CF               	dw	?_PrintNstCO
  1517  00458A                     _PrintNstCO:
  1518  000000                     
  1519                           ; _nst loaded to fsr2l
  1520  00458A  6ED9               	movwf	fsr2l,c
  1521                           ;print.c: 605: unsigned int fl,fk,fm,fn,fo;
  1522  00458C  0100               	movlb	__Lparam shr (0+8)
  1523  00458E  51D0               	movf	(?_PrintNstCO+1)^(__Lparam& (0+65280)),w
  1524  004590  E003               	bz	u576
  1525  004592  0E04               	movlw	4
  1526  004594  6E00               	movwf	btemp,c
  1527  004596  D001               	goto	L8
  1528  004598                     u576:
  1529  004598  6A00               	clrf	btemp,c
  1530  00459A                     L8:
  1531  00459A  6A01               	clrf	btemp+1,c
  1532  00459C  C000  F0D9         	movff	btemp,?a_PrintNstCO+8
  1533  0045A0  C001  F0DA         	movff	btemp+1,?a_PrintNstCO+9
  1534                           ;print.c: 607: fk=(!kt)?0:0b0000010000000000;
  1535  0045A4  51CF               	movf	?_PrintNstCO^(__Lparam& (0+65280)),w
  1536  0045A6  E005               	bz	u596
  1537  0045A8  0E00               	movlw	0
  1538  0045AA  6E00               	movwf	btemp,c
  1539  0045AC  0E04               	movlw	4
  1540  0045AE  6E01               	movwf	btemp+1,c
  1541  0045B0  D002               	goto	u598
  1542  0045B2                     u596:
  1543  0045B2  6A00               	clrf	btemp,c
  1544  0045B4  6A01               	clrf	btemp+1,c
  1545  0045B6                     u598:
  1546  0045B6  C000  F0D1         	movff	btemp,?a_PrintNstCO
  1547  0045BA  C001  F0D2         	movff	btemp+1,?a_PrintNstCO+1
  1548                           ;print.c: 608: fm=(!kt)?0b0000000000010000:0b000
      +                          0000010000000;
  1549  0045BE  51CF               	movf	?_PrintNstCO^(__Lparam& (0+65280)),w
  1550  0045C0  E002               	bz	u616
  1551  0045C2  0E80               	movlw	128
  1552  0045C4  D001               	goto	L9
  1553  0045C6                     u616:
  1554  0045C6  0E10               	movlw	16
  1555  0045C8                     L9:
  1556  0045C8  6E00               	movwf	btemp,c
  1557  0045CA  6A01               	clrf	btemp+1,c
  1558  0045CC  C000  F0D3         	movff	btemp,?a_PrintNstCO+2
  1559  0045D0  C001  F0D4         	movff	btemp+1,?a_PrintNstCO+3
  1560                           ;print.c: 609: fn=(!kt)?0:0b0000000000010000;
  1561  0045D4  51CF               	movf	?_PrintNstCO^(__Lparam& (0+65280)),w
  1562  0045D6  E003               	bz	u636
  1563  0045D8  0E10               	movlw	16
  1564  0045DA  6E00               	movwf	btemp,c
  1565  0045DC  D001               	goto	L10
  1566  0045DE                     u636:
  1567  0045DE  6A00               	clrf	btemp,c
  1568  0045E0                     L10:
  1569  0045E0  6A01               	clrf	btemp+1,c
  1570  0045E2  C000  F0D5         	movff	btemp,?a_PrintNstCO+4
  1571  0045E6  C001  F0D6         	movff	btemp+1,?a_PrintNstCO+5
  1572                           ;print.c: 610: fo=(!kt)?0:0b0000000010000000;
  1573  0045EA  51CF               	movf	?_PrintNstCO^(__Lparam& (0+65280)),w
  1574  0045EC  E003               	bz	u656
  1575  0045EE  0E80               	movlw	128
  1576  0045F0  6E00               	movwf	btemp,c
  1577  0045F2  D001               	goto	L11
  1578  0045F4                     u656:
  1579  0045F4  6A00               	clrf	btemp,c
  1580  0045F6                     L11:
  1581  0045F6  6A01               	clrf	btemp+1,c
  1582  0045F8  C000  F0D7         	movff	btemp,?a_PrintNstCO+6
  1583  0045FC  C001  F0D8         	movff	btemp+1,?a_PrintNstCO+7
  1584                           ;print.c: 611: SetData(&(DWD[2].Dt),0,nst);
  1585  004600  0EB6               	movlw	low (_DWD+38)
  1586  004602  6FDF               	movwf	?_SetData^(__Lparam& (0+65280)),b
  1587  004604  0E01               	movlw	high (_DWD+38)
  1588  004606  6FE0               	movwf	(?_SetData+1)^(__Lparam& (0+65280)),b
  1589  004608  6BE1               	clrf	(?_SetData+2)^(__Lparam& (0+65280)),b
  1590  00460A  50D9               	movf	fsr2l,w,c
  1591  00460C  6FE2               	movwf	(?_SetData+3)^(__Lparam& (0+65280)),b
  1592  00460E  ECA1  F01B         	call	_SetData	;wreg free
  1593                           ;print.c: 612: SetData(&(DWD[3].Dt),0b00000000,0
      +                          b00000000);
  1594  004612  0100               	movlb	__Lparam shr (0+8)
  1595  004614  0EC6               	movlw	low (_DWD+54)
  1596  004616  6FDF               	movwf	?_SetData^(__Lparam& (0+65280)),b
  1597  004618  0E01               	movlw	high (_DWD+54)
  1598  00461A  6FE0               	movwf	(?_SetData+1)^(__Lparam& (0+65280)),b
  1599  00461C  6BE1               	clrf	(?_SetData+2)^(__Lparam& (0+65280)),b
  1600  00461E  6BE2               	clrf	(?_SetData+3)^(__Lparam& (0+65280)),b
  1601  004620  ECA1  F01B         	call	_SetData	;wreg free
  1602                           ;print.c: 613: SetStatus(&(DWD[2].St),fl|fk|0b01
      +                          00000000000000|0b0000000000100000|0b000000000001
      +                          0000|0b1000000000000000,0b1111111111111111,fm|0b
      +                          0000000000000001,fn|0b0000000001000000);
  1603  004624  0100               	movlb	__Lparam shr (0+8)
  1604  004626  0EB0               	movlw	low (_DWD+32)
  1605  004628  6FDF               	movwf	?_SetStatus^(__Lparam& (0+65280)),b
  1606  00462A  0E01               	movlw	high (_DWD+32)
  1607  00462C  6FE0               	movwf	(?_SetStatus+1)^(__Lparam& (0+65280)),b
  1608  00462E  C0D9  F000         	movff	?a_PrintNstCO+8,btemp
  1609  004632  C0DA  F001         	movff	?a_PrintNstCO+9,btemp+1
  1610  004636  51D1               	movf	?a_PrintNstCO^(__Lparam& (0+65280)),w
  1611  004638  1200               	iorwf	btemp,f,c
  1612  00463A  51D2               	movf	(?a_PrintNstCO+1)^(__Lparam& (0+65280)),w
  1613  00463C  1201               	iorwf	btemp+1,f,c
  1614  00463E  0E30               	movlw	48
  1615  004640  1000               	iorwf	btemp,w,c
  1616  004642  6FE1               	movwf	(?_SetStatus+2)^(__Lparam& (0+65280)),b
  1617  004644  0EC0               	movlw	192
  1618  004646  1001               	iorwf	btemp+1,w,c
  1619  004648  6FE2               	movwf	(?_SetStatus+3)^(__Lparam& (0+65280)),b
  1620  00464A  69E3               	setf	(?_SetStatus+4)^(__Lparam& (0+65280)),b
  1621  00464C  69E4               	setf	(?_SetStatus+5)^(__Lparam& (0+65280)),b
  1622  00464E  51D3               	movf	(?a_PrintNstCO+2)^(__Lparam& (0+65280)),w
  1623  004650  0901               	iorlw	1
  1624  004652  6FE5               	movwf	(?_SetStatus+6)^(__Lparam& (0+65280)),b
  1625  004654  51D5               	movf	(?a_PrintNstCO+4)^(__Lparam& (0+65280)),w
  1626  004656  0940               	iorlw	64
  1627  004658  6FE6               	movwf	(?_SetStatus+7)^(__Lparam& (0+65280)),b
  1628  00465A  ECB1  F01B         	call	_SetStatus	;wreg free
  1629                           ;print.c: 614: SetStatus(&(DWD[3].St),fl|0b00000
      +                          00000000000|0b0000000000010000,0b111111111111111
      +                          1,0,fo|0b0000000000010000|0b0000000000000001|0b0
      +                          000000001000000);
  1630  00465E  0100               	movlb	__Lparam shr (0+8)
  1631  004660  0EC0               	movlw	low (_DWD+48)
  1632  004662  6FDF               	movwf	?_SetStatus^(__Lparam& (0+65280)),b
  1633  004664  0E01               	movlw	high (_DWD+48)
  1634  004666  6FE0               	movwf	(?_SetStatus+1)^(__Lparam& (0+65280)),b
  1635  004668  0E10               	movlw	16
  1636  00466A  11D9               	iorwf	(?a_PrintNstCO+8)^(__Lparam& (0+65280)),w
  1637  00466C  6FE1               	movwf	(?_SetStatus+2)^(__Lparam& (0+65280)),b
  1638  00466E  51DA               	movf	(?a_PrintNstCO+9)^(__Lparam& (0+65280)),w
  1639  004670  6FE2               	movwf	(?_SetStatus+3)^(__Lparam& (0+65280)),b
  1640  004672  69E3               	setf	(?_SetStatus+4)^(__Lparam& (0+65280)),b
  1641  004674  69E4               	setf	(?_SetStatus+5)^(__Lparam& (0+65280)),b
  1642  004676  6BE5               	clrf	(?_SetStatus+6)^(__Lparam& (0+65280)),b
  1643  004678  51D7               	movf	(?a_PrintNstCO+6)^(__Lparam& (0+65280)),w
  1644  00467A  0951               	iorlw	81
  1645  00467C  6FE6               	movwf	(?_SetStatus+7)^(__Lparam& (0+65280)),b
  1646  00467E  ECB1  F01B         	call	_SetStatus	;wreg free
  1647                           ;print.c: 615: MarkMinMax(0,1);
  1648  004682  0E01               	movlw	1
  1649  004684  0100               	movlb	__Lparam shr (0+8)
  1650  004686  6FDB               	movwf	?_MarkMinMax^(__Lparam& (0+65280)),b
  1651  004688  0E00               	movlw	0
  1652  00468A  ECBF  F008         	call	_MarkMinMax
  1653                           ;print.c: 617: if(!only)
  1654  00468E  0100               	movlb	__Lparam shr (0+8)
  1655  004690  51D0               	movf	(?_PrintNstCO+1)^(__Lparam& (0+65280)),w
  1656  004692  E11F               	bnz	l62
  1657                           ;print.c: 618: {
  1658  004694  0EBA               	movlw	low (_DWD+42)
  1659  004696  6FDF               	movwf	?_SetStatus^(__Lparam& (0+65280)),b
  1660  004698  0E01               	movlw	high (_DWD+42)
  1661  00469A  6FE0               	movwf	(?_SetStatus+1)^(__Lparam& (0+65280)),b
  1662  00469C  0E10               	movlw	16
  1663  00469E  6FE1               	movwf	(?_SetStatus+2)^(__Lparam& (0+65280)),b
  1664  0046A0  0E03               	movlw	3
  1665  0046A2  6FE2               	movwf	(?_SetStatus+3)^(__Lparam& (0+65280)),b
  1666  0046A4  69E3               	setf	(?_SetStatus+4)^(__Lparam& (0+65280)),b
  1667  0046A6  69E4               	setf	(?_SetStatus+5)^(__Lparam& (0+65280)),b
  1668  0046A8  6BE5               	clrf	(?_SetStatus+6)^(__Lparam& (0+65280)),b
  1669  0046AA  0E20               	movlw	32
  1670  0046AC  6FE6               	movwf	(?_SetStatus+7)^(__Lparam& (0+65280)),b
  1671  0046AE  ECB1  F01B         	call	_SetStatus	;wreg free
  1672                           ;print.c: 620: SetStatus(&(DWD[3].St2),0b0000001
      +                          100000000|0b0000000000010000,0b1111111111111111,
      +                          0,0b0000000000100000);
  1673  0046B2  0100               	movlb	__Lparam shr (0+8)
  1674  0046B4  0ECA               	movlw	low (_DWD+58)
  1675  0046B6  6FDF               	movwf	?_SetStatus^(__Lparam& (0+65280)),b
  1676  0046B8  0E01               	movlw	high (_DWD+58)
  1677  0046BA  6FE0               	movwf	(?_SetStatus+1)^(__Lparam& (0+65280)),b
  1678  0046BC  0E10               	movlw	16
  1679  0046BE  6FE1               	movwf	(?_SetStatus+2)^(__Lparam& (0+65280)),b
  1680  0046C0  0E03               	movlw	3
  1681  0046C2  6FE2               	movwf	(?_SetStatus+3)^(__Lparam& (0+65280)),b
  1682  0046C4  69E3               	setf	(?_SetStatus+4)^(__Lparam& (0+65280)),b
  1683  0046C6  69E4               	setf	(?_SetStatus+5)^(__Lparam& (0+65280)),b
  1684  0046C8  6BE5               	clrf	(?_SetStatus+6)^(__Lparam& (0+65280)),b
  1685  0046CA  0E20               	movlw	32
  1686  0046CC  6FE6               	movwf	(?_SetStatus+7)^(__Lparam& (0+65280)),b
  1687  0046CE  ECB1  F01B         	call	_SetStatus	;wreg free
  1688  0046D2                     l62:
  1689  0046D2  D06A               	goto	L19
  1690                           ;print.c: 621: }
  1691                           ;print.c: 624: }
  1692  0046D4                     __end_of_PrintNstCO:
  1693                           ;print.c: 627: void PrintNstECO(const unsigned c
      +                          har nst)
  1694                           ;print.c: 628: {
  1695  0046D4                     _PrintNstECO:
  1696  000000                     
  1697                           ; _nst loaded to fsr2l
  1698  0046D4  6ED9               	movwf	fsr2l,c
  1699                           ;print.c: 629: unsigned int fl,fk,fm,fn,fo;
  1700  0046D6  0100               	movlb	__Lparam shr (0+8)
  1701  0046D8  0EB6               	movlw	low (_DWD+38)
  1702  0046DA  6FDF               	movwf	?_SetData^(__Lparam& (0+65280)),b
  1703  0046DC  0E01               	movlw	high (_DWD+38)
  1704  0046DE  6FE0               	movwf	(?_SetData+1)^(__Lparam& (0+65280)),b
  1705  0046E0  6BE1               	clrf	(?_SetData+2)^(__Lparam& (0+65280)),b
  1706  0046E2  50D9               	movf	fsr2l,w,c
  1707  0046E4  6FE2               	movwf	(?_SetData+3)^(__Lparam& (0+65280)),b
  1708  0046E6  ECA1  F01B         	call	_SetData	;wreg free
  1709                           ;print.c: 632: SetData(&(DWD[3].Dt),0b00000000,0
      +                          b00000000);
  1710  0046EA  0100               	movlb	__Lparam shr (0+8)
  1711  0046EC  0EC6               	movlw	low (_DWD+54)
  1712  0046EE  6FDF               	movwf	?_SetData^(__Lparam& (0+65280)),b
  1713  0046F0  0E01               	movlw	high (_DWD+54)
  1714  0046F2  6FE0               	movwf	(?_SetData+1)^(__Lparam& (0+65280)),b
  1715  0046F4  6BE1               	clrf	(?_SetData+2)^(__Lparam& (0+65280)),b
  1716  0046F6  6BE2               	clrf	(?_SetData+3)^(__Lparam& (0+65280)),b
  1717  0046F8  ECA1  F01B         	call	_SetData	;wreg free
  1718                           ;print.c: 633: SetData(&(DWD[2].Dt2),0b01111001,
      +                          0b01011000);
  1719  0046FC  0100               	movlb	__Lparam shr (0+8)
  1720  0046FE  0EB8               	movlw	low (_DWD+40)
  1721  004700  6FDF               	movwf	?_SetData^(__Lparam& (0+65280)),b
  1722  004702  0E01               	movlw	high (_DWD+40)
  1723  004704  6FE0               	movwf	(?_SetData+1)^(__Lparam& (0+65280)),b
  1724  004706  0E79               	movlw	121
  1725  004708  6FE1               	movwf	(?_SetData+2)^(__Lparam& (0+65280)),b
  1726  00470A  0E58               	movlw	88
  1727  00470C  6FE2               	movwf	(?_SetData+3)^(__Lparam& (0+65280)),b
  1728  00470E  ECA1  F01B         	call	_SetData	;wreg free
  1729                           ;print.c: 634: SetData(&(DWD[3].Dt2),0b00000000,
      +                          0b00000000);
  1730  004712  0100               	movlb	__Lparam shr (0+8)
  1731  004714  0EC8               	movlw	low (_DWD+56)
  1732  004716  6FDF               	movwf	?_SetData^(__Lparam& (0+65280)),b
  1733  004718  0E01               	movlw	high (_DWD+56)
  1734  00471A  6FE0               	movwf	(?_SetData+1)^(__Lparam& (0+65280)),b
  1735  00471C  6BE1               	clrf	(?_SetData+2)^(__Lparam& (0+65280)),b
  1736  00471E  6BE2               	clrf	(?_SetData+3)^(__Lparam& (0+65280)),b
  1737  004720  ECA1  F01B         	call	_SetData	;wreg free
  1738                           ;print.c: 636: SetStatus(&(DWD[2].St),0b01000000
      +                          00000000|0b0000010000000000|0b0000000000100000|0
      +                          b0000000000010000|0b1000000000000000,0b111111111
      +                          1111111,0b0000000010000000|0b0000000000000001,0b
      +                          0000000000010000|0b0000000001000000);
  1739  004724  0100               	movlb	__Lparam shr (0+8)
  1740  004726  0EB0               	movlw	low (_DWD+32)
  1741  004728  6FDF               	movwf	?_SetStatus^(__Lparam& (0+65280)),b
  1742  00472A  0E01               	movlw	high (_DWD+32)
  1743  00472C  6FE0               	movwf	(?_SetStatus+1)^(__Lparam& (0+65280)),b
  1744  00472E  0E30               	movlw	48
  1745  004730  6FE1               	movwf	(?_SetStatus+2)^(__Lparam& (0+65280)),b
  1746  004732  0EC4               	movlw	196
  1747  004734  6FE2               	movwf	(?_SetStatus+3)^(__Lparam& (0+65280)),b
  1748  004736  69E3               	setf	(?_SetStatus+4)^(__Lparam& (0+65280)),b
  1749  004738  69E4               	setf	(?_SetStatus+5)^(__Lparam& (0+65280)),b
  1750  00473A  0E81               	movlw	129
  1751  00473C  6FE5               	movwf	(?_SetStatus+6)^(__Lparam& (0+65280)),b
  1752  00473E  0E50               	movlw	80
  1753  004740  6FE6               	movwf	(?_SetStatus+7)^(__Lparam& (0+65280)),b
  1754  004742  ECB1  F01B         	call	_SetStatus	;wreg free
  1755                           ;print.c: 637: SetStatus(&(DWD[3].St),0b00000011
      +                          00000000|0b0000000000010000,0b1111111111111111,0
      +                          ,0b0000000010000000|0b0000000000010000|0b0000000
      +                          000000001|0b0000000001000000);
  1756  004746  0100               	movlb	__Lparam shr (0+8)
  1757  004748  0EC0               	movlw	low (_DWD+48)
  1758  00474A  6FDF               	movwf	?_SetStatus^(__Lparam& (0+65280)),b
  1759  00474C  0E01               	movlw	high (_DWD+48)
  1760  00474E  6FE0               	movwf	(?_SetStatus+1)^(__Lparam& (0+65280)),b
  1761  004750  0E10               	movlw	16
  1762  004752  6FE1               	movwf	(?_SetStatus+2)^(__Lparam& (0+65280)),b
  1763  004754  0E03               	movlw	3
  1764  004756  6FE2               	movwf	(?_SetStatus+3)^(__Lparam& (0+65280)),b
  1765  004758  69E3               	setf	(?_SetStatus+4)^(__Lparam& (0+65280)),b
  1766  00475A  69E4               	setf	(?_SetStatus+5)^(__Lparam& (0+65280)),b
  1767  00475C  6BE5               	clrf	(?_SetStatus+6)^(__Lparam& (0+65280)),b
  1768  00475E  0ED1               	movlw	209
  1769  004760  6FE6               	movwf	(?_SetStatus+7)^(__Lparam& (0+65280)),b
  1770  004762  ECB1  F01B         	call	_SetStatus	;wreg free
  1771                           ;print.c: 638: SetStatus(&(DWD[2].St2),0b0000000
      +                          000000000|0b0000000000010000,0b1111111111111111,
      +                          0,0b0000000000100000);
  1772  004766  0100               	movlb	__Lparam shr (0+8)
  1773  004768  0EBA               	movlw	low (_DWD+42)
  1774  00476A  6FDF               	movwf	?_SetStatus^(__Lparam& (0+65280)),b
  1775  00476C  0E01               	movlw	high (_DWD+42)
  1776  00476E  6FE0               	movwf	(?_SetStatus+1)^(__Lparam& (0+65280)),b
  1777  004770  0E10               	movlw	16
  1778  004772  6FE1               	movwf	(?_SetStatus+2)^(__Lparam& (0+65280)),b
  1779  004774  6BE2               	clrf	(?_SetStatus+3)^(__Lparam& (0+65280)),b
  1780  004776  69E3               	setf	(?_SetStatus+4)^(__Lparam& (0+65280)),b
  1781  004778  69E4               	setf	(?_SetStatus+5)^(__Lparam& (0+65280)),b
  1782  00477A  6BE5               	clrf	(?_SetStatus+6)^(__Lparam& (0+65280)),b
  1783  00477C  0E20               	movlw	32
  1784  00477E  6FE6               	movwf	(?_SetStatus+7)^(__Lparam& (0+65280)),b
  1785  004780  ECB1  F01B         	call	_SetStatus	;wreg free
  1786                           ;print.c: 639: SetStatus(&(DWD[3].St2),0b0000001
      +                          100000000|0b0000000000010000,0b1111111111111111,
      +                          0,0b0000000000100000);
  1787  004784  0100               	movlb	__Lparam shr (0+8)
  1788  004786  0ECA               	movlw	low (_DWD+58)
  1789  004788  6FDF               	movwf	?_SetStatus^(__Lparam& (0+65280)),b
  1790  00478A  0E01               	movlw	high (_DWD+58)
  1791  00478C  6FE0               	movwf	(?_SetStatus+1)^(__Lparam& (0+65280)),b
  1792  00478E  0E10               	movlw	16
  1793  004790  6FE1               	movwf	(?_SetStatus+2)^(__Lparam& (0+65280)),b
  1794  004792  0E03               	movlw	3
  1795  004794  6FE2               	movwf	(?_SetStatus+3)^(__Lparam& (0+65280)),b
  1796  004796  69E3               	setf	(?_SetStatus+4)^(__Lparam& (0+65280)),b
  1797  004798  69E4               	setf	(?_SetStatus+5)^(__Lparam& (0+65280)),b
  1798  00479A  6BE5               	clrf	(?_SetStatus+6)^(__Lparam& (0+65280)),b
  1799  00479C  0E20               	movlw	32
  1800  00479E  6FE6               	movwf	(?_SetStatus+7)^(__Lparam& (0+65280)),b
  1801  0047A0  ECB1  F01B         	call	_SetStatus	;wreg free
  1802                           ;print.c: 641: MarkMinMaxECO();
  1803  0047A4  EC18  F009         	call	_MarkMinMaxECO	;wreg free
  1804  0047A8                     L19:
  1805                           ;print.c: 642: RestartKol1(1);
  1806  0047A8  0E01               	movlw	1
  1807  0047AA  EF22  F01E         	goto	_RestartKol1
  1808                           ;print.c: 643: }
  1809  0047AE                     __end_of_PrintNstECO:
  1810                           ;print.c: 646: void EndNst(void)
  1811                           ;print.c: 647: {
  1812  0047AE                     _EndNst:
  1813  000000                     
  1814                           ;print.c: 648: ResetKol(1);
  1815  0047AE  0E01               	movlw	1
  1816  0047B0  EFFE  F01D         	goto	_ResetKol
  1817                           ;print.c: 649: }
  1818  0047B4                     __end_of_EndNst:
  1819                           ;print.c: 684: void Mark(unsigned char z,unsigne
      +                          d char s)
  1820                           ;print.c: 685: {
  1821  0047B4  00DD               	dw	?_Mark
  1822  0047B6                     _Mark:
  1823  000000                     
  1824                           ; _z loaded to fsr2l
  1825  0047B6  6ED9               	movwf	fsr2l,c
  1826                           ;print.c: 686: SetMark(&KMark[z],1,s>1,s);
  1827  0047B8  0F7C               	addlw	low _KMark
  1828  0047BA  0100               	movlb	__Lparam shr (0+8)
  1829  0047BC  6FDE               	movwf	?_SetMark^(__Lparam& (0+65280)),b
  1830  0047BE  6BDF               	clrf	(?_SetMark+1)^(__Lparam& (0+65280)),b
  1831  0047C0  0E07               	movlw	high _KMark
  1832  0047C2  23DF               	addwfc	(?_SetMark+1)^(__Lparam& (0+65280)),f,b
  1833  0047C4  0E01               	movlw	1
  1834  0047C6  6FE0               	movwf	(?_SetMark+2)^(__Lparam& (0+65280)),b
  1835  0047C8  0E02               	movlw	2
  1836  0047CA  5DDD               	subwf	?_Mark^(__Lparam& (0+65280)),w
  1837  0047CC  0E00               	movlw	0
  1838  0047CE  B0D8               	btfsc	status,0,c
  1839  0047D0  0E01               	movlw	1
  1840  0047D2  6FE1               	movwf	(?_SetMark+3)^(__Lparam& (0+65280)),b
  1841  0047D4  51DD               	movf	?_Mark^(__Lparam& (0+65280)),w
  1842  0047D6  6FE2               	movwf	(?_SetMark+4)^(__Lparam& (0+65280)),b
  1843  0047D8  EFC8  F01C         	goto	_SetMark	;wreg free
  1844                           ;print.c: 688: }
  1845  0047DC                     __end_of_Mark:
  1846                           ;print.c: 720: void ClrMarkMinMax(void)
  1847                           ;print.c: 721: {
  1848  0047DC                     _ClrMarkMinMax:
  1849  000000                     
  1850                           ;print.c: 722: Mark(13,0);
  1851  0047DC  0100               	movlb	__Lparam shr (0+8)
  1852  0047DE  6BDD               	clrf	?_Mark^(__Lparam& (0+65280)),b
  1853  0047E0  0E0D               	movlw	13
  1854  0047E2  DFE9               	call	_Mark
  1855                           ;print.c: 723: Mark(14,0);
  1856  0047E4  0100               	movlb	__Lparam shr (0+8)
  1857  0047E6  6BDD               	clrf	?_Mark^(__Lparam& (0+65280)),b
  1858  0047E8  0E0E               	movlw	14
  1859  0047EA  DFE5               	call	_Mark
  1860                           ;print.c: 724: Mark(11,0);
  1861  0047EC  0100               	movlb	__Lparam shr (0+8)
  1862  0047EE  6BDD               	clrf	?_Mark^(__Lparam& (0+65280)),b
  1863  0047F0  0E0B               	movlw	11
  1864  0047F2  DFE1               	call	_Mark
  1865                           ;print.c: 725: Mark(12,0);
  1866  0047F4  0100               	movlb	__Lparam shr (0+8)
  1867  0047F6  6BDD               	clrf	?_Mark^(__Lparam& (0+65280)),b
  1868  0047F8  0E0C               	movlw	12
  1869  0047FA  D7DD               	goto	_Mark
  1870                           ;print.c: 726: }
  1871  0047FC                     __end_of_ClrMarkMinMax:
  1872                           ;print.c: 734: void PrintCS(const unsigned char 
      +                          cs,const unsigned char only)
  1873                           ;print.c: 735: {
  1874  0047FC  00CF               	dw	?_PrintCS
  1875  0047FE                     _PrintCS:
  1876  000000                     
  1877                           ;_cs stored from wreg
  1878  0047FE  0100               	movlb	__Lparam shr (0+8)
  1879  004800  6FD0               	movwf	?a_PrintCS^(__Lparam& (0+65280)),b
  1880                           ;print.c: 736: unsigned int fl;
  1881  004802  51CF               	movf	?_PrintCS^(__Lparam& (0+65280)),w
  1882  004804  E003               	bz	u686
  1883  004806  0E04               	movlw	4
  1884  004808  6E00               	movwf	btemp,c
  1885  00480A  D001               	goto	L12
  1886  00480C                     u686:
  1887  00480C  6A00               	clrf	btemp,c
  1888  00480E                     L12:
  1889  00480E  6A01               	clrf	btemp+1,c
  1890  004810  C000  FFF3         	movff	btemp,prodl
  1891  004814  C001  FFF4         	movff	btemp+1,prodh
  1892                           ;print.c: 742: SetStatus(&(PWD[4].St),fl|0b01000
      +                          00000000000|0b0000010000000000|0b000000000010000
      +                          0|0b0000000000010000|0b1000000000000000,0b111111
      +                          1111111111,0b0000000001000000,0b0000000000010000
      +                          );
  1893  004818  0E80               	movlw	low (_PWD+64)
  1894  00481A  6FDF               	movwf	?_SetStatus^(__Lparam& (0+65280)),b
  1895  00481C  0E01               	movlw	high (_PWD+64)
  1896  00481E  6FE0               	movwf	(?_SetStatus+1)^(__Lparam& (0+65280)),b
  1897  004820  0E30               	movlw	48
  1898  004822  10F3               	iorwf	prodl,w,c
  1899  004824  6FE1               	movwf	(?_SetStatus+2)^(__Lparam& (0+65280)),b
  1900  004826  0EC4               	movlw	196
  1901  004828  10F4               	iorwf	prodh,w,c
  1902  00482A  6FE2               	movwf	(?_SetStatus+3)^(__Lparam& (0+65280)),b
  1903  00482C  69E3               	setf	(?_SetStatus+4)^(__Lparam& (0+65280)),b
  1904  00482E  69E4               	setf	(?_SetStatus+5)^(__Lparam& (0+65280)),b
  1905  004830  0E40               	movlw	64
  1906  004832  6FE5               	movwf	(?_SetStatus+6)^(__Lparam& (0+65280)),b
  1907  004834  0E10               	movlw	16
  1908  004836  6FE6               	movwf	(?_SetStatus+7)^(__Lparam& (0+65280)),b
  1909  004838  ECB1  F01B         	call	_SetStatus	;wreg free
  1910                           ;print.c: 743: SetData(&(PWD[4].Dt),0,cs);
  1911  00483C  0100               	movlb	__Lparam shr (0+8)
  1912  00483E  0E86               	movlw	low (_PWD+70)
  1913  004840  6FDF               	movwf	?_SetData^(__Lparam& (0+65280)),b
  1914  004842  0E01               	movlw	high (_PWD+70)
  1915  004844  6FE0               	movwf	(?_SetData+1)^(__Lparam& (0+65280)),b
  1916  004846  6BE1               	clrf	(?_SetData+2)^(__Lparam& (0+65280)),b
  1917  004848  51D0               	movf	?a_PrintCS^(__Lparam& (0+65280)),w
  1918  00484A  6FE2               	movwf	(?_SetData+3)^(__Lparam& (0+65280)),b
  1919  00484C  ECA1  F01B         	call	_SetData	;wreg free
  1920                           ;print.c: 744: if(!only) SetStatus(&(PWD[4].St2)
      +                          ,0b0000001100000000|0b1000000000000000,0b1111111
      +                          111111111,0,0);
  1921  004850  0100               	movlb	__Lparam shr (0+8)
  1922  004852  51CF               	movf	?_PrintCS^(__Lparam& (0+65280)),w
  1923  004854  D0C3               	goto	L26
  1924                           ;print.c: 747: }
  1925  004856                     __end_of_PrintCS:
  1926                           ;print.c: 752: void PrintCW(const unsigned char 
      +                          tm,const unsigned char only)
  1927                           ;print.c: 753: {
  1928  004856  00CF               	dw	?_PrintCW
  1929  004858                     _PrintCW:
  1930  000000                     
  1931                           ;_tm stored from wreg
  1932  004858  0100               	movlb	__Lparam shr (0+8)
  1933  00485A  6FD0               	movwf	?a_PrintCW^(__Lparam& (0+65280)),b
  1934                           ;print.c: 754: unsigned int fl;
  1935  00485C  51CF               	movf	?_PrintCW^(__Lparam& (0+65280)),w
  1936  00485E  E003               	bz	u716
  1937  004860  0E04               	movlw	4
  1938  004862  6E00               	movwf	btemp,c
  1939  004864  D001               	goto	L13
  1940  004866                     u716:
  1941  004866  6A00               	clrf	btemp,c
  1942  004868                     L13:
  1943  004868  6A01               	clrf	btemp+1,c
  1944  00486A  C000  FFF3         	movff	btemp,prodl
  1945  00486E  C001  FFF4         	movff	btemp+1,prodh
  1946                           ;print.c: 760: SetStatus(&(PWD[4].St2),fl|0b0100
      +                          000000000000|0b0000000000100000|0b10000000000000
      +                          00,0b1111111111111111,0b0000000000100000,0);
  1947  004872  0E8A               	movlw	low (_PWD+74)
  1948  004874  6FDF               	movwf	?_SetStatus^(__Lparam& (0+65280)),b
  1949  004876  0E01               	movlw	high (_PWD+74)
  1950  004878  6FE0               	movwf	(?_SetStatus+1)^(__Lparam& (0+65280)),b
  1951  00487A  0E20               	movlw	32
  1952  00487C  10F3               	iorwf	prodl,w,c
  1953  00487E  6FE1               	movwf	(?_SetStatus+2)^(__Lparam& (0+65280)),b
  1954  004880  0EC0               	movlw	192
  1955  004882  10F4               	iorwf	prodh,w,c
  1956  004884  6FE2               	movwf	(?_SetStatus+3)^(__Lparam& (0+65280)),b
  1957  004886  69E3               	setf	(?_SetStatus+4)^(__Lparam& (0+65280)),b
  1958  004888  69E4               	setf	(?_SetStatus+5)^(__Lparam& (0+65280)),b
  1959  00488A  0E20               	movlw	32
  1960  00488C  6FE5               	movwf	(?_SetStatus+6)^(__Lparam& (0+65280)),b
  1961  00488E  6BE6               	clrf	(?_SetStatus+7)^(__Lparam& (0+65280)),b
  1962  004890  ECB1  F01B         	call	_SetStatus	;wreg free
  1963                           ;print.c: 761: SetData(&(PWD[4].Dt2),0,tm);
  1964  004894  0100               	movlb	__Lparam shr (0+8)
  1965  004896  0E88               	movlw	low (_PWD+72)
  1966  004898  6FDF               	movwf	?_SetData^(__Lparam& (0+65280)),b
  1967  00489A  0E01               	movlw	high (_PWD+72)
  1968  00489C  6FE0               	movwf	(?_SetData+1)^(__Lparam& (0+65280)),b
  1969  00489E  6BE1               	clrf	(?_SetData+2)^(__Lparam& (0+65280)),b
  1970  0048A0  51D0               	movf	?a_PrintCW^(__Lparam& (0+65280)),w
  1971  0048A2  6FE2               	movwf	(?_SetData+3)^(__Lparam& (0+65280)),b
  1972  0048A4  ECA1  F01B         	call	_SetData	;wreg free
  1973                           ;print.c: 762: if(!only) SetStatus(&(PWD[4].St),
      +                          0b0000001100000000|0b1000000000000000,0b11111111
      +                          11111111,0,0);
  1974  0048A8  0100               	movlb	__Lparam shr (0+8)
  1975  0048AA  51CF               	movf	?_PrintCW^(__Lparam& (0+65280)),w
  1976  0048AC                     L25:
  1977  0048AC  A4D8               	btfss	status,2,c
  1978  0048AE  0012               	return	
  1979  0048B0  0E80               	movlw	low (_PWD+64)
  1980  0048B2  6FDF               	movwf	?_SetStatus^(__Lparam& (0+65280)),b
  1981  0048B4  0E01               	movlw	high (_PWD+64)
  1982  0048B6                     L24:
  1983  0048B6  6FE0               	movwf	(?_SetStatus+1)^(__Lparam& (0+65280)),b
  1984  0048B8  6BE1               	clrf	(?_SetStatus+2)^(__Lparam& (0+65280)),b
  1985  0048BA  0E83               	movlw	131
  1986  0048BC  D54B               	goto	L18
  1987                           ;print.c: 765: }
  1988  0048BE                     __end_of_PrintCW:
  1989                           ;print.c: 772: void PrintVER(const unsigned char
      +                           board, const unsigned char ver,const unsigned c
      +                          har only)
  1990                           ;print.c: 773: {
  1991  0048BE  00CF               	dw	?_PrintVER
  1992  0048C0                     _PrintVER:
  1993  000000                     
  1994                           ;_board stored from wreg
  1995  0048C0  0100               	movlb	__Lparam shr (0+8)
  1996  0048C2  6FD1               	movwf	?a_PrintVER^(__Lparam& (0+65280)),b
  1997                           ;print.c: 774: SetStatus(&(PWD[4].St2),0b0010000
      +                          000000000|0b1000000000000000,0b1111111111111111,
      +                          0,0);
  1998  0048C4  0E8A               	movlw	low (_PWD+74)
  1999  0048C6  6FDF               	movwf	?_SetStatus^(__Lparam& (0+65280)),b
  2000  0048C8  0E01               	movlw	high (_PWD+74)
  2001  0048CA  6FE0               	movwf	(?_SetStatus+1)^(__Lparam& (0+65280)),b
  2002  0048CC  6BE1               	clrf	(?_SetStatus+2)^(__Lparam& (0+65280)),b
  2003  0048CE  0EA0               	movlw	160
  2004  0048D0  6FE2               	movwf	(?_SetStatus+3)^(__Lparam& (0+65280)),b
  2005  0048D2  69E3               	setf	(?_SetStatus+4)^(__Lparam& (0+65280)),b
  2006  0048D4  69E4               	setf	(?_SetStatus+5)^(__Lparam& (0+65280)),b
  2007  0048D6  6BE5               	clrf	(?_SetStatus+6)^(__Lparam& (0+65280)),b
  2008  0048D8  6BE6               	clrf	(?_SetStatus+7)^(__Lparam& (0+65280)),b
  2009  0048DA  ECB1  F01B         	call	_SetStatus	;wreg free
  2010                           ;print.c: 775: SetData(&(PWD[4].Dt2),0,board);
  2011  0048DE  0100               	movlb	__Lparam shr (0+8)
  2012  0048E0  0E88               	movlw	low (_PWD+72)
  2013  0048E2  6FDF               	movwf	?_SetData^(__Lparam& (0+65280)),b
  2014  0048E4  0E01               	movlw	high (_PWD+72)
  2015  0048E6  6FE0               	movwf	(?_SetData+1)^(__Lparam& (0+65280)),b
  2016  0048E8  6BE1               	clrf	(?_SetData+2)^(__Lparam& (0+65280)),b
  2017  0048EA  51D1               	movf	?a_PrintVER^(__Lparam& (0+65280)),w
  2018  0048EC  6FE2               	movwf	(?_SetData+3)^(__Lparam& (0+65280)),b
  2019  0048EE  ECA1  F01B         	call	_SetData	;wreg free
  2020                           ;print.c: 776: SetStatus(&(PWD[4].St),0b01000000
      +                          00000000|0b1000000000000000,0b1111111111111111,0
      +                          ,0);
  2021  0048F2  0100               	movlb	__Lparam shr (0+8)
  2022  0048F4  0E80               	movlw	low (_PWD+64)
  2023  0048F6  6FDF               	movwf	?_SetStatus^(__Lparam& (0+65280)),b
  2024  0048F8  0E01               	movlw	high (_PWD+64)
  2025  0048FA  6FE0               	movwf	(?_SetStatus+1)^(__Lparam& (0+65280)),b
  2026  0048FC  6BE1               	clrf	(?_SetStatus+2)^(__Lparam& (0+65280)),b
  2027  0048FE  0EC0               	movlw	192
  2028  004900  6FE2               	movwf	(?_SetStatus+3)^(__Lparam& (0+65280)),b
  2029  004902  69E3               	setf	(?_SetStatus+4)^(__Lparam& (0+65280)),b
  2030  004904  69E4               	setf	(?_SetStatus+5)^(__Lparam& (0+65280)),b
  2031  004906  6BE5               	clrf	(?_SetStatus+6)^(__Lparam& (0+65280)),b
  2032  004908  6BE6               	clrf	(?_SetStatus+7)^(__Lparam& (0+65280)),b
  2033  00490A  ECB1  F01B         	call	_SetStatus	;wreg free
  2034                           ;print.c: 777: SetData(&(PWD[4].Dt),0,ver);
  2035  00490E  0100               	movlb	__Lparam shr (0+8)
  2036  004910  0E86               	movlw	low (_PWD+70)
  2037  004912  6FDF               	movwf	?_SetData^(__Lparam& (0+65280)),b
  2038  004914  0E01               	movlw	high (_PWD+70)
  2039  004916  6FE0               	movwf	(?_SetData+1)^(__Lparam& (0+65280)),b
  2040  004918  6BE1               	clrf	(?_SetData+2)^(__Lparam& (0+65280)),b
  2041  00491A  51CF               	movf	?_PrintVER^(__Lparam& (0+65280)),w
  2042  00491C  6FE2               	movwf	(?_SetData+3)^(__Lparam& (0+65280)),b
  2043  00491E  ECA1  F01B         	call	_SetData	;wreg free
  2044                           ;print.c: 778: if(!only) SetStatus(&(PWD[4].St),
      +                          0b0000001100000000|0b1000000000000000,0b11111111
      +                          11111111,0,0);
  2045  004922  0100               	movlb	__Lparam shr (0+8)
  2046  004924  51D0               	movf	(?_PrintVER+1)^(__Lparam& (0+65280)),w
  2047  004926  D7C2               	goto	L25
  2048                           ;print.c: 779: }
  2049  004928                     __end_of_PrintVER:
  2050                           ;print.c: 783: void PrintVNT(const unsigned char
      +                           vn,const unsigned char only)
  2051                           ;print.c: 784: {
  2052  004928  00CF               	dw	?_PrintVNT
  2053  00492A                     _PrintVNT:
  2054  000000                     
  2055                           ;_vn stored from wreg
  2056  00492A  0100               	movlb	__Lparam shr (0+8)
  2057  00492C  6FD0               	movwf	?a_PrintVNT^(__Lparam& (0+65280)),b
  2058                           ;print.c: 785: unsigned int fl;
  2059  00492E  51CF               	movf	?_PrintVNT^(__Lparam& (0+65280)),w
  2060  004930  E003               	bz	u756
  2061  004932  0E04               	movlw	4
  2062  004934  6E00               	movwf	btemp,c
  2063  004936  D001               	goto	L14
  2064  004938                     u756:
  2065  004938  6A00               	clrf	btemp,c
  2066  00493A                     L14:
  2067  00493A  6A01               	clrf	btemp+1,c
  2068  00493C  C000  FFF3         	movff	btemp,prodl
  2069  004940  C001  FFF4         	movff	btemp+1,prodh
  2070                           ;print.c: 791: SetStatus(&(PWD[4].St2),fl|0b0100
      +                          000000000000|0b0000000000010000|0b10000000000000
      +                          00,0b1111111111111111,0,0b0000000000100000);
  2071  004944  0E8A               	movlw	low (_PWD+74)
  2072  004946  6FDF               	movwf	?_SetStatus^(__Lparam& (0+65280)),b
  2073  004948  0E01               	movlw	high (_PWD+74)
  2074  00494A  6FE0               	movwf	(?_SetStatus+1)^(__Lparam& (0+65280)),b
  2075  00494C  0E10               	movlw	16
  2076  00494E  10F3               	iorwf	prodl,w,c
  2077  004950  6FE1               	movwf	(?_SetStatus+2)^(__Lparam& (0+65280)),b
  2078  004952  0EC0               	movlw	192
  2079  004954  10F4               	iorwf	prodh,w,c
  2080  004956  6FE2               	movwf	(?_SetStatus+3)^(__Lparam& (0+65280)),b
  2081  004958  69E3               	setf	(?_SetStatus+4)^(__Lparam& (0+65280)),b
  2082  00495A  69E4               	setf	(?_SetStatus+5)^(__Lparam& (0+65280)),b
  2083  00495C  6BE5               	clrf	(?_SetStatus+6)^(__Lparam& (0+65280)),b
  2084  00495E  0E20               	movlw	32
  2085  004960  6FE6               	movwf	(?_SetStatus+7)^(__Lparam& (0+65280)),b
  2086  004962  ECB1  F01B         	call	_SetStatus	;wreg free
  2087                           ;print.c: 792: SetData(&(PWD[4].Dt2),0,vn);
  2088  004966  0100               	movlb	__Lparam shr (0+8)
  2089  004968  0E88               	movlw	low (_PWD+72)
  2090  00496A  6FDF               	movwf	?_SetData^(__Lparam& (0+65280)),b
  2091  00496C  0E01               	movlw	high (_PWD+72)
  2092  00496E  6FE0               	movwf	(?_SetData+1)^(__Lparam& (0+65280)),b
  2093  004970  6BE1               	clrf	(?_SetData+2)^(__Lparam& (0+65280)),b
  2094  004972  51D0               	movf	?a_PrintVNT^(__Lparam& (0+65280)),w
  2095  004974  6FE2               	movwf	(?_SetData+3)^(__Lparam& (0+65280)),b
  2096  004976  ECA1  F01B         	call	_SetData	;wreg free
  2097                           ;print.c: 793: if(!only) SetStatus(&(PWD[4].St),
      +                          0b0000001100000000|0b1000000000000000,0b11111111
      +                          11111111,0,0);
  2098  00497A  0100               	movlb	__Lparam shr (0+8)
  2099  00497C  51CF               	movf	?_PrintVNT^(__Lparam& (0+65280)),w
  2100  00497E  D796               	goto	L25
  2101                           ;print.c: 796: }
  2102  004980                     __end_of_PrintVNT:
  2103                           ;print.c: 801: void PrintCO(const unsigned char 
      +                          tm,const unsigned char only, const unsigned char
      +                           l3)
  2104                           ;print.c: 802: {
  2105  004980  00CF               	dw	?_PrintCO
  2106  004982                     _PrintCO:
  2107  000000                     
  2108                           ;_tm stored from wreg
  2109  004982  0100               	movlb	__Lparam shr (0+8)
  2110  004984  6FD1               	movwf	?a_PrintCO^(__Lparam& (0+65280)),b
  2111                           ;print.c: 803: unsigned int fl;
  2112  004986  51CF               	movf	?_PrintCO^(__Lparam& (0+65280)),w
  2113  004988  E003               	bz	u786
  2114  00498A  0E04               	movlw	4
  2115  00498C  6E00               	movwf	btemp,c
  2116  00498E  D001               	goto	L15
  2117  004990                     u786:
  2118  004990  6A00               	clrf	btemp,c
  2119  004992                     L15:
  2120  004992  6A01               	clrf	btemp+1,c
  2121  004994  C000  FFF3         	movff	btemp,prodl
  2122  004998  C001  FFF4         	movff	btemp+1,prodh
  2123                           ;print.c: 805: if(!l3)
  2124  00499C  51D0               	movf	(?_PrintCO+1)^(__Lparam& (0+65280)),w
  2125  00499E  E124               	bnz	l76
  2126                           ;print.c: 806: {
  2127  0049A0  0E80               	movlw	low (_PWD+64)
  2128  0049A2  6FDF               	movwf	?_SetStatus^(__Lparam& (0+65280)),b
  2129  0049A4  0E01               	movlw	high (_PWD+64)
  2130  0049A6  6FE0               	movwf	(?_SetStatus+1)^(__Lparam& (0+65280)),b
  2131  0049A8  0E30               	movlw	48
  2132  0049AA  10F3               	iorwf	prodl,w,c
  2133  0049AC  6FE1               	movwf	(?_SetStatus+2)^(__Lparam& (0+65280)),b
  2134  0049AE  0EC0               	movlw	192
  2135  0049B0  10F4               	iorwf	prodh,w,c
  2136  0049B2  6FE2               	movwf	(?_SetStatus+3)^(__Lparam& (0+65280)),b
  2137  0049B4  69E3               	setf	(?_SetStatus+4)^(__Lparam& (0+65280)),b
  2138  0049B6  69E4               	setf	(?_SetStatus+5)^(__Lparam& (0+65280)),b
  2139  0049B8  0E10               	movlw	16
  2140  0049BA  6FE5               	movwf	(?_SetStatus+6)^(__Lparam& (0+65280)),b
  2141  0049BC  0E40               	movlw	64
  2142  0049BE  6FE6               	movwf	(?_SetStatus+7)^(__Lparam& (0+65280)),b
  2143  0049C0  ECB1  F01B         	call	_SetStatus	;wreg free
  2144                           ;print.c: 812: SetData(&(PWD[4].Dt),0,tm);
  2145  0049C4  0100               	movlb	__Lparam shr (0+8)
  2146  0049C6  0E86               	movlw	low (_PWD+70)
  2147  0049C8  6FDF               	movwf	?_SetData^(__Lparam& (0+65280)),b
  2148  0049CA  0E01               	movlw	high (_PWD+70)
  2149  0049CC  6FE0               	movwf	(?_SetData+1)^(__Lparam& (0+65280)),b
  2150  0049CE  6BE1               	clrf	(?_SetData+2)^(__Lparam& (0+65280)),b
  2151  0049D0  51D1               	movf	?a_PrintCO^(__Lparam& (0+65280)),w
  2152  0049D2  6FE2               	movwf	(?_SetData+3)^(__Lparam& (0+65280)),b
  2153  0049D4  ECA1  F01B         	call	_SetData	;wreg free
  2154  0049D8                     L27:
  2155                           ;print.c: 824: if(!only) SetStatus(&(PWD[4].St2)
      +                          ,0b0000001100000000|0b1000000000000000,0b1111111
      +                          111111111,0,0);
  2156  0049D8  0100               	movlb	__Lparam shr (0+8)
  2157  0049DA  51CF               	movf	?_PrintCO^(__Lparam& (0+65280)),w
  2158                           ;print.c: 813: if(!only) SetStatus(&(PWD[4].St2)
      +                          ,0b0000001100000000|0b1000000000000000,0b1111111
      +                          111111111,0,0);
  2159  0049DC                     L26:
  2160  0049DC  A4D8               	btfss	status,2,c
  2161  0049DE  0012               	return	
  2162  0049E0  0E8A               	movlw	low (_PWD+74)
  2163  0049E2  6FDF               	movwf	?_SetStatus^(__Lparam& (0+65280)),b
  2164  0049E4  0E01               	movlw	high (_PWD+74)
  2165  0049E6  D767               	goto	L24
  2166                           ;print.c: 815: }
  2167  0049E8                     l76:
  2168                           ;print.c: 816: else
  2169  0049E8  0100               	movlb	__Lparam shr (0+8)
  2170  0049EA  0E80               	movlw	low (_PWD+64)
  2171  0049EC  6FDF               	movwf	?_SetStatus^(__Lparam& (0+65280)),b
  2172  0049EE  0E01               	movlw	high (_PWD+64)
  2173  0049F0  6FE0               	movwf	(?_SetStatus+1)^(__Lparam& (0+65280)),b
  2174  0049F2  0E10               	movlw	16
  2175  0049F4  10F3               	iorwf	prodl,w,c
  2176  0049F6  6FE1               	movwf	(?_SetStatus+2)^(__Lparam& (0+65280)),b
  2177  0049F8  0E80               	movlw	128
  2178  0049FA  10F4               	iorwf	prodh,w,c
  2179  0049FC  6FE2               	movwf	(?_SetStatus+3)^(__Lparam& (0+65280)),b
  2180  0049FE  69E3               	setf	(?_SetStatus+4)^(__Lparam& (0+65280)),b
  2181  004A00  69E4               	setf	(?_SetStatus+5)^(__Lparam& (0+65280)),b
  2182  004A02  6BE5               	clrf	(?_SetStatus+6)^(__Lparam& (0+65280)),b
  2183  004A04  0E50               	movlw	80
  2184  004A06  6FE6               	movwf	(?_SetStatus+7)^(__Lparam& (0+65280)),b
  2185  004A08  ECB1  F01B         	call	_SetStatus	;wreg free
  2186                           ;print.c: 823: SetData(&(PWD[4].Dt),0b00111000,0
      +                          b01001111);
  2187  004A0C  0100               	movlb	__Lparam shr (0+8)
  2188  004A0E  0E86               	movlw	low (_PWD+70)
  2189  004A10  6FDF               	movwf	?_SetData^(__Lparam& (0+65280)),b
  2190  004A12  0E01               	movlw	high (_PWD+70)
  2191  004A14  6FE0               	movwf	(?_SetData+1)^(__Lparam& (0+65280)),b
  2192  004A16  0E38               	movlw	56
  2193  004A18  6FE1               	movwf	(?_SetData+2)^(__Lparam& (0+65280)),b
  2194  004A1A  0E4F               	movlw	79
  2195  004A1C  6FE2               	movwf	(?_SetData+3)^(__Lparam& (0+65280)),b
  2196  004A1E  ECA1  F01B         	call	_SetData	;wreg free
  2197  004A22  D7DA               	goto	L27
  2198                           ;print.c: 826: }
  2199  004A24                     __end_of_PrintCO:
  2200                           ;print.c: 832: void PrintIN(const unsigned char 
      +                          tm)
  2201                           ;print.c: 833: {
  2202  004A24                     _PrintIN:
  2203  000000                     
  2204                           ;_tm stored from wreg
  2205  004A24  0100               	movlb	__Lparam shr (0+8)
  2206  004A26  6FCF               	movwf	?a_PrintIN^(__Lparam& (0+65280)),b
  2207                           ;print.c: 838: SetStatus(&(PWD[4].St2),0b0000000
      +                          000000000|0b0000000000010000|0b1000000000000000,
      +                          0b1111111111111111,0,0b0000000000100000);
  2208  004A28  0E8A               	movlw	low (_PWD+74)
  2209  004A2A  6FDF               	movwf	?_SetStatus^(__Lparam& (0+65280)),b
  2210  004A2C  0E01               	movlw	high (_PWD+74)
  2211  004A2E  6FE0               	movwf	(?_SetStatus+1)^(__Lparam& (0+65280)),b
  2212  004A30  0E10               	movlw	16
  2213  004A32  6FE1               	movwf	(?_SetStatus+2)^(__Lparam& (0+65280)),b
  2214  004A34  0E80               	movlw	128
  2215  004A36  6FE2               	movwf	(?_SetStatus+3)^(__Lparam& (0+65280)),b
  2216  004A38  69E3               	setf	(?_SetStatus+4)^(__Lparam& (0+65280)),b
  2217  004A3A  69E4               	setf	(?_SetStatus+5)^(__Lparam& (0+65280)),b
  2218  004A3C  6BE5               	clrf	(?_SetStatus+6)^(__Lparam& (0+65280)),b
  2219  004A3E  0E20               	movlw	32
  2220  004A40  6FE6               	movwf	(?_SetStatus+7)^(__Lparam& (0+65280)),b
  2221  004A42  ECB1  F01B         	call	_SetStatus	;wreg free
  2222                           ;print.c: 839: SetData(&(PWD[4].Dt2),0b00110000,
      +                          0b01010100);
  2223  004A46  0100               	movlb	__Lparam shr (0+8)
  2224  004A48  0E88               	movlw	low (_PWD+72)
  2225  004A4A  6FDF               	movwf	?_SetData^(__Lparam& (0+65280)),b
  2226  004A4C  0E01               	movlw	high (_PWD+72)
  2227  004A4E  6FE0               	movwf	(?_SetData+1)^(__Lparam& (0+65280)),b
  2228  004A50  0E30               	movlw	48
  2229  004A52  6FE1               	movwf	(?_SetData+2)^(__Lparam& (0+65280)),b
  2230  004A54  0E54               	movlw	84
  2231  004A56  6FE2               	movwf	(?_SetData+3)^(__Lparam& (0+65280)),b
  2232  004A58  ECA1  F01B         	call	_SetData	;wreg free
  2233                           ;print.c: 840: SetStatus(&(PWD[4].St),0b01000000
      +                          00000000|0b0000000000100000|0b0000000000010000|0
      +                          b1000000000000000,0b1111111111111111,0b000000000
      +                          0010000,0b0000000001000000);
  2234  004A5C  0100               	movlb	__Lparam shr (0+8)
  2235  004A5E  0E80               	movlw	low (_PWD+64)
  2236  004A60  6FDF               	movwf	?_SetStatus^(__Lparam& (0+65280)),b
  2237  004A62  0E01               	movlw	high (_PWD+64)
  2238  004A64  6FE0               	movwf	(?_SetStatus+1)^(__Lparam& (0+65280)),b
  2239  004A66  0E30               	movlw	48
  2240  004A68  6FE1               	movwf	(?_SetStatus+2)^(__Lparam& (0+65280)),b
  2241  004A6A  0EC0               	movlw	192
  2242  004A6C  6FE2               	movwf	(?_SetStatus+3)^(__Lparam& (0+65280)),b
  2243  004A6E  69E3               	setf	(?_SetStatus+4)^(__Lparam& (0+65280)),b
  2244  004A70  69E4               	setf	(?_SetStatus+5)^(__Lparam& (0+65280)),b
  2245  004A72  0E10               	movlw	16
  2246  004A74  6FE5               	movwf	(?_SetStatus+6)^(__Lparam& (0+65280)),b
  2247  004A76  0E40               	movlw	64
  2248  004A78  6FE6               	movwf	(?_SetStatus+7)^(__Lparam& (0+65280)),b
  2249  004A7A  ECB1  F01B         	call	_SetStatus	;wreg free
  2250                           ;print.c: 841: SetData(&(PWD[4].Dt),0,tm);
  2251  004A7E  0100               	movlb	__Lparam shr (0+8)
  2252  004A80  0E86               	movlw	low (_PWD+70)
  2253  004A82  6FDF               	movwf	?_SetData^(__Lparam& (0+65280)),b
  2254  004A84  0E01               	movlw	high (_PWD+70)
  2255  004A86  6FE0               	movwf	(?_SetData+1)^(__Lparam& (0+65280)),b
  2256  004A88  6BE1               	clrf	(?_SetData+2)^(__Lparam& (0+65280)),b
  2257  004A8A  51CF               	movf	?a_PrintIN^(__Lparam& (0+65280)),w
  2258  004A8C  D146               	goto	L22
  2259                           ;print.c: 843: }
  2260  004A8E                     __end_of_PrintIN:
  2261                           ;print.c: 847: void PrintPP(unsigned char pp)
  2262                           ;print.c: 848: {
  2263  004A8E                     _PrintPP:
  2264  000000                     
  2265                           ;_pp stored from wreg
  2266  004A8E  0100               	movlb	__Lparam shr (0+8)
  2267  004A90  6FCF               	movwf	?a_PrintPP^(__Lparam& (0+65280)),b
  2268                           ;print.c: 849: if(pp>99) pp=99;
  2269  004A92  0E63               	movlw	99
  2270  004A94  65CF               	cpfsgt	?a_PrintPP^(__Lparam& (0+65280)),b
  2271  004A96  D001               	goto	l82
  2272  004A98  6FCF               	movwf	?a_PrintPP^(__Lparam& (0+65280)),b
  2273  004A9A                     l82:
  2274                           ;print.c: 854: SetStatus(&(PWD[4].St2),0b0000000
      +                          000000000|0b0000000000010000|0b1000000000000000,
      +                          0b1111111111111111,0,0b0000000000100000);
  2275  004A9A  0100               	movlb	__Lparam shr (0+8)
  2276  004A9C  0E8A               	movlw	low (_PWD+74)
  2277  004A9E  6FDF               	movwf	?_SetStatus^(__Lparam& (0+65280)),b
  2278  004AA0  0E01               	movlw	high (_PWD+74)
  2279  004AA2  6FE0               	movwf	(?_SetStatus+1)^(__Lparam& (0+65280)),b
  2280  004AA4  0E10               	movlw	16
  2281  004AA6  6FE1               	movwf	(?_SetStatus+2)^(__Lparam& (0+65280)),b
  2282  004AA8  0E80               	movlw	128
  2283  004AAA  6FE2               	movwf	(?_SetStatus+3)^(__Lparam& (0+65280)),b
  2284  004AAC  69E3               	setf	(?_SetStatus+4)^(__Lparam& (0+65280)),b
  2285  004AAE  69E4               	setf	(?_SetStatus+5)^(__Lparam& (0+65280)),b
  2286  004AB0  6BE5               	clrf	(?_SetStatus+6)^(__Lparam& (0+65280)),b
  2287  004AB2  0E20               	movlw	32
  2288  004AB4  6FE6               	movwf	(?_SetStatus+7)^(__Lparam& (0+65280)),b
  2289  004AB6  ECB1  F01B         	call	_SetStatus	;wreg free
  2290                           ;print.c: 855: SetData(&(PWD[4].Dt2),0b01110011,
      +                          0b01010000);
  2291  004ABA  0100               	movlb	__Lparam shr (0+8)
  2292  004ABC  0E88               	movlw	low (_PWD+72)
  2293  004ABE  6FDF               	movwf	?_SetData^(__Lparam& (0+65280)),b
  2294  004AC0  0E01               	movlw	high (_PWD+72)
  2295  004AC2  6FE0               	movwf	(?_SetData+1)^(__Lparam& (0+65280)),b
  2296  004AC4  0E73               	movlw	115
  2297  004AC6  6FE1               	movwf	(?_SetData+2)^(__Lparam& (0+65280)),b
  2298  004AC8  0E50               	movlw	80
  2299  004ACA  6FE2               	movwf	(?_SetData+3)^(__Lparam& (0+65280)),b
  2300  004ACC  ECA1  F01B         	call	_SetData	;wreg free
  2301                           ;print.c: 856: SetStatus(&(PWD[4].St),0b01000000
      +                          00000000|0b0000000000010000|0b1000000000000000,0
      +                          b1111111111111111,0,0b0000000001000000|0b0000000
      +                          000010000);
  2302  004AD0  0100               	movlb	__Lparam shr (0+8)
  2303  004AD2  0E80               	movlw	low (_PWD+64)
  2304  004AD4  6FDF               	movwf	?_SetStatus^(__Lparam& (0+65280)),b
  2305  004AD6  0E01               	movlw	high (_PWD+64)
  2306  004AD8  6FE0               	movwf	(?_SetStatus+1)^(__Lparam& (0+65280)),b
  2307  004ADA  0E10               	movlw	16
  2308  004ADC  6FE1               	movwf	(?_SetStatus+2)^(__Lparam& (0+65280)),b
  2309  004ADE  0EC0               	movlw	192
  2310  004AE0  6FE2               	movwf	(?_SetStatus+3)^(__Lparam& (0+65280)),b
  2311  004AE2  69E3               	setf	(?_SetStatus+4)^(__Lparam& (0+65280)),b
  2312  004AE4  69E4               	setf	(?_SetStatus+5)^(__Lparam& (0+65280)),b
  2313  004AE6  6BE5               	clrf	(?_SetStatus+6)^(__Lparam& (0+65280)),b
  2314  004AE8  0E50               	movlw	80
  2315  004AEA  6FE6               	movwf	(?_SetStatus+7)^(__Lparam& (0+65280)),b
  2316  004AEC  ECB1  F01B         	call	_SetStatus	;wreg free
  2317                           ;print.c: 857: SetData(&(PWD[4].Dt),0,pp);
  2318  004AF0  0100               	movlb	__Lparam shr (0+8)
  2319  004AF2  0E86               	movlw	low (_PWD+70)
  2320  004AF4  6FDF               	movwf	?_SetData^(__Lparam& (0+65280)),b
  2321  004AF6  0E01               	movlw	high (_PWD+70)
  2322  004AF8  6FE0               	movwf	(?_SetData+1)^(__Lparam& (0+65280)),b
  2323  004AFA  6BE1               	clrf	(?_SetData+2)^(__Lparam& (0+65280)),b
  2324  004AFC  51CF               	movf	?a_PrintPP^(__Lparam& (0+65280)),w
  2325  004AFE  D10D               	goto	L22
  2326                           ;print.c: 859: }
  2327  004B00                     __end_of_PrintPP:
  2328                           ;print.c: 863: void PrintPG(unsigned char pg)
  2329                           ;print.c: 864: {
  2330  004B00                     _PrintPG:
  2331  000000                     
  2332                           ;_pg stored from wreg
  2333  004B00  0100               	movlb	__Lparam shr (0+8)
  2334  004B02  6FCF               	movwf	?a_PrintPG^(__Lparam& (0+65280)),b
  2335                           ;print.c: 865: if(pg>99) pg=99;
  2336  004B04  0E63               	movlw	99
  2337  004B06  65CF               	cpfsgt	?a_PrintPG^(__Lparam& (0+65280)),b
  2338  004B08  D001               	goto	l84
  2339  004B0A  6FCF               	movwf	?a_PrintPG^(__Lparam& (0+65280)),b
  2340  004B0C                     l84:
  2341                           ;print.c: 870: SetStatus(&(PWD[4].St2),0b0000000
      +                          000000000|0b0000000000010000|0b1000000000000000,
      +                          0b1111111111111111,0,0b0000000000100000);
  2342  004B0C  0100               	movlb	__Lparam shr (0+8)
  2343  004B0E  0E8A               	movlw	low (_PWD+74)
  2344  004B10  6FDF               	movwf	?_SetStatus^(__Lparam& (0+65280)),b
  2345  004B12  0E01               	movlw	high (_PWD+74)
  2346  004B14  6FE0               	movwf	(?_SetStatus+1)^(__Lparam& (0+65280)),b
  2347  004B16  0E10               	movlw	16
  2348  004B18  6FE1               	movwf	(?_SetStatus+2)^(__Lparam& (0+65280)),b
  2349  004B1A  0E80               	movlw	128
  2350  004B1C  6FE2               	movwf	(?_SetStatus+3)^(__Lparam& (0+65280)),b
  2351  004B1E  69E3               	setf	(?_SetStatus+4)^(__Lparam& (0+65280)),b
  2352  004B20  69E4               	setf	(?_SetStatus+5)^(__Lparam& (0+65280)),b
  2353  004B22  6BE5               	clrf	(?_SetStatus+6)^(__Lparam& (0+65280)),b
  2354  004B24  0E20               	movlw	32
  2355  004B26  6FE6               	movwf	(?_SetStatus+7)^(__Lparam& (0+65280)),b
  2356  004B28  ECB1  F01B         	call	_SetStatus	;wreg free
  2357                           ;print.c: 871: SetData(&(PWD[4].Dt2),0b01110001,
      +                          0b01010000);
  2358  004B2C  0100               	movlb	__Lparam shr (0+8)
  2359  004B2E  0E88               	movlw	low (_PWD+72)
  2360  004B30  6FDF               	movwf	?_SetData^(__Lparam& (0+65280)),b
  2361  004B32  0E01               	movlw	high (_PWD+72)
  2362  004B34  6FE0               	movwf	(?_SetData+1)^(__Lparam& (0+65280)),b
  2363  004B36  0E71               	movlw	113
  2364  004B38  6FE1               	movwf	(?_SetData+2)^(__Lparam& (0+65280)),b
  2365  004B3A  0E50               	movlw	80
  2366  004B3C  6FE2               	movwf	(?_SetData+3)^(__Lparam& (0+65280)),b
  2367  004B3E  ECA1  F01B         	call	_SetData	;wreg free
  2368                           ;print.c: 872: SetStatus(&(PWD[4].St),0b01000000
      +                          00000000|0b0000000000010000|0b1000000000000000,0
      +                          b1111111111111111,0,0b0000000001000000|0b0000000
      +                          000010000);
  2369  004B42  0100               	movlb	__Lparam shr (0+8)
  2370  004B44  0E80               	movlw	low (_PWD+64)
  2371  004B46  6FDF               	movwf	?_SetStatus^(__Lparam& (0+65280)),b
  2372  004B48  0E01               	movlw	high (_PWD+64)
  2373  004B4A  6FE0               	movwf	(?_SetStatus+1)^(__Lparam& (0+65280)),b
  2374  004B4C  0E10               	movlw	16
  2375  004B4E  6FE1               	movwf	(?_SetStatus+2)^(__Lparam& (0+65280)),b
  2376  004B50  0EC0               	movlw	192
  2377  004B52  6FE2               	movwf	(?_SetStatus+3)^(__Lparam& (0+65280)),b
  2378  004B54  69E3               	setf	(?_SetStatus+4)^(__Lparam& (0+65280)),b
  2379  004B56  69E4               	setf	(?_SetStatus+5)^(__Lparam& (0+65280)),b
  2380  004B58  6BE5               	clrf	(?_SetStatus+6)^(__Lparam& (0+65280)),b
  2381  004B5A  0E50               	movlw	80
  2382  004B5C  6FE6               	movwf	(?_SetStatus+7)^(__Lparam& (0+65280)),b
  2383  004B5E  ECB1  F01B         	call	_SetStatus	;wreg free
  2384                           ;print.c: 873: SetData(&(PWD[4].Dt),0,pg);
  2385  004B62  0100               	movlb	__Lparam shr (0+8)
  2386  004B64  0E86               	movlw	low (_PWD+70)
  2387  004B66  6FDF               	movwf	?_SetData^(__Lparam& (0+65280)),b
  2388  004B68  0E01               	movlw	high (_PWD+70)
  2389  004B6A  6FE0               	movwf	(?_SetData+1)^(__Lparam& (0+65280)),b
  2390  004B6C  6BE1               	clrf	(?_SetData+2)^(__Lparam& (0+65280)),b
  2391  004B6E  51CF               	movf	?a_PrintPG^(__Lparam& (0+65280)),w
  2392  004B70  D0D4               	goto	L22
  2393                           ;print.c: 875: }
  2394  004B72                     __end_of_PrintPG:
  2395                           ;print.c: 934: void ClrDig(const unsigned char d
      +                          high, const unsigned char dlow, const unsigned c
      +                          har krs)
  2396                           ;print.c: 935: {
  2397  004B72  00CF               	dw	?_ClrDig
  2398  004B74                     _ClrDig:
  2399  000000                     
  2400                           ;_dhigh stored from wreg
  2401  004B74  0100               	movlb	__Lparam shr (0+8)
  2402  004B76  6FD1               	movwf	?a_ClrDig^(__Lparam& (0+65280)),b
  2403                           ;print.c: 947: if(dlow)
  2404  004B78  51CF               	movf	?_ClrDig^(__Lparam& (0+65280)),w
  2405  004B7A  E02C               	bz	l86
  2406                           ;print.c: 948: {
  2407  004B7C  51D0               	movf	(?_ClrDig+1)^(__Lparam& (0+65280)),w
  2408  004B7E  E110               	bnz	l87
  2409  004B80  0E80               	movlw	low (_PWD+64)
  2410  004B82  6FDF               	movwf	?_SetStatus^(__Lparam& (0+65280)),b
  2411  004B84  0E01               	movlw	high (_PWD+64)
  2412  004B86  6FE0               	movwf	(?_SetStatus+1)^(__Lparam& (0+65280)),b
  2413  004B88  0E10               	movlw	16
  2414  004B8A  6FE1               	movwf	(?_SetStatus+2)^(__Lparam& (0+65280)),b
  2415  004B8C  0E83               	movlw	131
  2416  004B8E  6FE2               	movwf	(?_SetStatus+3)^(__Lparam& (0+65280)),b
  2417  004B90  69E3               	setf	(?_SetStatus+4)^(__Lparam& (0+65280)),b
  2418  004B92  69E4               	setf	(?_SetStatus+5)^(__Lparam& (0+65280)),b
  2419  004B94  6BE5               	clrf	(?_SetStatus+6)^(__Lparam& (0+65280)),b
  2420  004B96  0E50               	movlw	80
  2421  004B98  6FE6               	movwf	(?_SetStatus+7)^(__Lparam& (0+65280)),b
  2422  004B9A  ECB1  F01B         	call	_SetStatus	;wreg free
  2423  004B9E  D01A               	goto	l86
  2424  004BA0                     l87:
  2425                           ;print.c: 950: else
  2426  004BA0  0100               	movlb	__Lparam shr (0+8)
  2427  004BA2  0E86               	movlw	low (_PWD+70)
  2428  004BA4  6FDF               	movwf	?_SetData^(__Lparam& (0+65280)),b
  2429  004BA6  0E01               	movlw	high (_PWD+70)
  2430  004BA8  6FE0               	movwf	(?_SetData+1)^(__Lparam& (0+65280)),b
  2431  004BAA  0E40               	movlw	64
  2432  004BAC  6FE1               	movwf	(?_SetData+2)^(__Lparam& (0+65280)),b
  2433  004BAE  6FE2               	movwf	(?_SetData+3)^(__Lparam& (0+65280)),b
  2434  004BB0  ECA1  F01B         	call	_SetData	;wreg free
  2435                           ;print.c: 953: SetStatus(&(PWD[4].St),0b00000000
      +                          00000000|0b0000000000010000|0b1000000000000000,0
      +                          b1111111111111111,0,0b0000000000010000|0b0000000
      +                          001000000);
  2436  004BB4  0100               	movlb	__Lparam shr (0+8)
  2437  004BB6  0E80               	movlw	low (_PWD+64)
  2438  004BB8  6FDF               	movwf	?_SetStatus^(__Lparam& (0+65280)),b
  2439  004BBA  0E01               	movlw	high (_PWD+64)
  2440  004BBC  6FE0               	movwf	(?_SetStatus+1)^(__Lparam& (0+65280)),b
  2441  004BBE  0E10               	movlw	16
  2442  004BC0  6FE1               	movwf	(?_SetStatus+2)^(__Lparam& (0+65280)),b
  2443  004BC2  0E80               	movlw	128
  2444  004BC4  6FE2               	movwf	(?_SetStatus+3)^(__Lparam& (0+65280)),b
  2445  004BC6  69E3               	setf	(?_SetStatus+4)^(__Lparam& (0+65280)),b
  2446  004BC8  69E4               	setf	(?_SetStatus+5)^(__Lparam& (0+65280)),b
  2447  004BCA  6BE5               	clrf	(?_SetStatus+6)^(__Lparam& (0+65280)),b
  2448  004BCC  0E50               	movlw	80
  2449  004BCE  6FE6               	movwf	(?_SetStatus+7)^(__Lparam& (0+65280)),b
  2450  004BD0  ECB1  F01B         	call	_SetStatus	;wreg free
  2451  004BD4                     l86:
  2452                           ;print.c: 954: }
  2453  004BD4  0100               	movlb	__Lparam shr (0+8)
  2454  004BD6  51D1               	movf	?a_ClrDig^(__Lparam& (0+65280)),w
  2455  004BD8  B4D8               	btfsc	status,2,c
  2456  004BDA  0012               	return	
  2457                           ;print.c: 957: {
  2458  004BDC  51D0               	movf	(?_ClrDig+1)^(__Lparam& (0+65280)),w
  2459  004BDE  E108               	bnz	l90
  2460  004BE0  0E8A               	movlw	low (_PWD+74)
  2461  004BE2  6FDF               	movwf	?_SetStatus^(__Lparam& (0+65280)),b
  2462  004BE4  0E01               	movlw	high (_PWD+74)
  2463  004BE6  6FE0               	movwf	(?_SetStatus+1)^(__Lparam& (0+65280)),b
  2464  004BE8  0E10               	movlw	16
  2465  004BEA  6FE1               	movwf	(?_SetStatus+2)^(__Lparam& (0+65280)),b
  2466  004BEC  0E83               	movlw	131
  2467  004BEE  D012               	goto	L23
  2468  004BF0                     l90:
  2469                           ;print.c: 959: else
  2470  004BF0  0100               	movlb	__Lparam shr (0+8)
  2471  004BF2  0E88               	movlw	low (_PWD+72)
  2472  004BF4  6FDF               	movwf	?_SetData^(__Lparam& (0+65280)),b
  2473  004BF6  0E01               	movlw	high (_PWD+72)
  2474  004BF8  6FE0               	movwf	(?_SetData+1)^(__Lparam& (0+65280)),b
  2475  004BFA  0E40               	movlw	64
  2476  004BFC  6FE1               	movwf	(?_SetData+2)^(__Lparam& (0+65280)),b
  2477  004BFE  6FE2               	movwf	(?_SetData+3)^(__Lparam& (0+65280)),b
  2478  004C00  ECA1  F01B         	call	_SetData	;wreg free
  2479                           ;print.c: 962: SetStatus(&(PWD[4].St2),0b0000000
      +                          000000000|0b0000000000010000|0b1000000000000000,
      +                          0b1111111111111111,0,0b0000000000100000);
  2480  004C04  0100               	movlb	__Lparam shr (0+8)
  2481  004C06  0E8A               	movlw	low (_PWD+74)
  2482  004C08  6FDF               	movwf	?_SetStatus^(__Lparam& (0+65280)),b
  2483  004C0A  0E01               	movlw	high (_PWD+74)
  2484  004C0C  6FE0               	movwf	(?_SetStatus+1)^(__Lparam& (0+65280)),b
  2485  004C0E  0E10               	movlw	16
  2486  004C10  6FE1               	movwf	(?_SetStatus+2)^(__Lparam& (0+65280)),b
  2487  004C12  0E80               	movlw	128
  2488  004C14                     L23:
  2489  004C14  6FE2               	movwf	(?_SetStatus+3)^(__Lparam& (0+65280)),b
  2490  004C16  69E3               	setf	(?_SetStatus+4)^(__Lparam& (0+65280)),b
  2491  004C18  69E4               	setf	(?_SetStatus+5)^(__Lparam& (0+65280)),b
  2492  004C1A  6BE5               	clrf	(?_SetStatus+6)^(__Lparam& (0+65280)),b
  2493  004C1C  0E20               	movlw	32
  2494  004C1E  6FE6               	movwf	(?_SetStatus+7)^(__Lparam& (0+65280)),b
  2495  004C20  EFB1  F01B         	goto	_SetStatus	;wreg free
  2496                           ;print.c: 963: }
  2497  004C24                     __end_of_ClrDig:
  2498                           ;print.c: 981: void TestScr(void)
  2499                           ;print.c: 982: {
  2500  004C24                     _TestScr:
  2501  000000                     
  2502                           ;print.c: 983: SetStatus(&(PWD[4].St),0b00000000
      +                          00000000|0b0000010000000000|0b0000100000000000,0
      +                          b1111111111111111,0,0);
  2503  004C24  0100               	movlb	__Lparam shr (0+8)
  2504  004C26  0E80               	movlw	low (_PWD+64)
  2505  004C28  6FDF               	movwf	?_SetStatus^(__Lparam& (0+65280)),b
  2506  004C2A  0E01               	movlw	high (_PWD+64)
  2507  004C2C  6FE0               	movwf	(?_SetStatus+1)^(__Lparam& (0+65280)),b
  2508  004C2E  6BE1               	clrf	(?_SetStatus+2)^(__Lparam& (0+65280)),b
  2509  004C30  0E0C               	movlw	12
  2510  004C32  6FE2               	movwf	(?_SetStatus+3)^(__Lparam& (0+65280)),b
  2511  004C34  69E3               	setf	(?_SetStatus+4)^(__Lparam& (0+65280)),b
  2512  004C36  69E4               	setf	(?_SetStatus+5)^(__Lparam& (0+65280)),b
  2513  004C38  6BE5               	clrf	(?_SetStatus+6)^(__Lparam& (0+65280)),b
  2514  004C3A  6BE6               	clrf	(?_SetStatus+7)^(__Lparam& (0+65280)),b
  2515  004C3C  ECB1  F01B         	call	_SetStatus	;wreg free
  2516                           ;print.c: 984: SetData(&(PWD[4].Dt),0b11111111,0
      +                          b11111111);
  2517  004C40  0100               	movlb	__Lparam shr (0+8)
  2518  004C42  0E86               	movlw	low (_PWD+70)
  2519  004C44  6FDF               	movwf	?_SetData^(__Lparam& (0+65280)),b
  2520  004C46  0E01               	movlw	high (_PWD+70)
  2521  004C48  6FE0               	movwf	(?_SetData+1)^(__Lparam& (0+65280)),b
  2522  004C4A  69E1               	setf	(?_SetData+2)^(__Lparam& (0+65280)),b
  2523  004C4C  69E2               	setf	(?_SetData+3)^(__Lparam& (0+65280)),b
  2524  004C4E  ECA1  F01B         	call	_SetData	;wreg free
  2525                           ;print.c: 986: SetStatus(&(PWD[4].St2),0b0000000
      +                          000000000|0b0000010000000000|0b0000100000000000,
      +                          0b1111111111111111,0,0);
  2526  004C52  0100               	movlb	__Lparam shr (0+8)
  2527  004C54  0E8A               	movlw	low (_PWD+74)
  2528  004C56  6FDF               	movwf	?_SetStatus^(__Lparam& (0+65280)),b
  2529  004C58  0E01               	movlw	high (_PWD+74)
  2530  004C5A  6FE0               	movwf	(?_SetStatus+1)^(__Lparam& (0+65280)),b
  2531  004C5C  6BE1               	clrf	(?_SetStatus+2)^(__Lparam& (0+65280)),b
  2532  004C5E  0E0C               	movlw	12
  2533  004C60  6FE2               	movwf	(?_SetStatus+3)^(__Lparam& (0+65280)),b
  2534  004C62  69E3               	setf	(?_SetStatus+4)^(__Lparam& (0+65280)),b
  2535  004C64  69E4               	setf	(?_SetStatus+5)^(__Lparam& (0+65280)),b
  2536  004C66  6BE5               	clrf	(?_SetStatus+6)^(__Lparam& (0+65280)),b
  2537  004C68  6BE6               	clrf	(?_SetStatus+7)^(__Lparam& (0+65280)),b
  2538  004C6A  ECB1  F01B         	call	_SetStatus	;wreg free
  2539                           ;print.c: 987: SetData(&(PWD[4].Dt2),0b11111111,
      +                          0b11111111);
  2540  004C6E  0100               	movlb	__Lparam shr (0+8)
  2541  004C70  0E88               	movlw	low (_PWD+72)
  2542  004C72  6FDF               	movwf	?_SetData^(__Lparam& (0+65280)),b
  2543  004C74  0E01               	movlw	high (_PWD+72)
  2544  004C76  6FE0               	movwf	(?_SetData+1)^(__Lparam& (0+65280)),b
  2545  004C78  69E1               	setf	(?_SetData+2)^(__Lparam& (0+65280)),b
  2546  004C7A  69E2               	setf	(?_SetData+3)^(__Lparam& (0+65280)),b
  2547  004C7C  ECA1  F01B         	call	_SetData	;wreg free
  2548                           ;print.c: 989: SetWSW(1);
  2549  004C80  0E01               	movlw	1
  2550  004C82  EF55  F012         	goto	_SetWSW
  2551                           ;print.c: 991: }
  2552  004C86                     __end_of_TestScr:
  2553                           ;print.c: 992: void EndTestScr(void)
  2554                           ;print.c: 993: {
  2555  004C86                     _EndTestScr:
  2556  000000                     
  2557                           ;print.c: 994: SetStatus(&(PWD[4].St),0b01000000
      +                          00000000|0b0000001100000000,0b1111111111111111,0
      +                          ,0);
  2558  004C86  0100               	movlb	__Lparam shr (0+8)
  2559  004C88  0E80               	movlw	low (_PWD+64)
  2560  004C8A  6FDF               	movwf	?_SetStatus^(__Lparam& (0+65280)),b
  2561  004C8C  0E01               	movlw	high (_PWD+64)
  2562  004C8E  6FE0               	movwf	(?_SetStatus+1)^(__Lparam& (0+65280)),b
  2563  004C90  6BE1               	clrf	(?_SetStatus+2)^(__Lparam& (0+65280)),b
  2564  004C92  0E43               	movlw	67
  2565  004C94  6FE2               	movwf	(?_SetStatus+3)^(__Lparam& (0+65280)),b
  2566  004C96  69E3               	setf	(?_SetStatus+4)^(__Lparam& (0+65280)),b
  2567  004C98  69E4               	setf	(?_SetStatus+5)^(__Lparam& (0+65280)),b
  2568  004C9A  6BE5               	clrf	(?_SetStatus+6)^(__Lparam& (0+65280)),b
  2569  004C9C  6BE6               	clrf	(?_SetStatus+7)^(__Lparam& (0+65280)),b
  2570  004C9E  ECB1  F01B         	call	_SetStatus	;wreg free
  2571                           ;print.c: 995: SetData(&(PWD[4].Dt),0,0);
  2572  004CA2  0100               	movlb	__Lparam shr (0+8)
  2573  004CA4  0E86               	movlw	low (_PWD+70)
  2574  004CA6  6FDF               	movwf	?_SetData^(__Lparam& (0+65280)),b
  2575  004CA8  0E01               	movlw	high (_PWD+70)
  2576  004CAA  6FE0               	movwf	(?_SetData+1)^(__Lparam& (0+65280)),b
  2577  004CAC  6BE1               	clrf	(?_SetData+2)^(__Lparam& (0+65280)),b
  2578  004CAE  6BE2               	clrf	(?_SetData+3)^(__Lparam& (0+65280)),b
  2579  004CB0  ECA1  F01B         	call	_SetData	;wreg free
  2580                           ;print.c: 997: SetStatus(&(PWD[4].St2),0b0100000
      +                          000000000|0b0000001100000000,0b1111111111111111,
      +                          0,0);
  2581  004CB4  0100               	movlb	__Lparam shr (0+8)
  2582  004CB6  0E8A               	movlw	low (_PWD+74)
  2583  004CB8  6FDF               	movwf	?_SetStatus^(__Lparam& (0+65280)),b
  2584  004CBA  0E01               	movlw	high (_PWD+74)
  2585  004CBC  6FE0               	movwf	(?_SetStatus+1)^(__Lparam& (0+65280)),b
  2586  004CBE  6BE1               	clrf	(?_SetStatus+2)^(__Lparam& (0+65280)),b
  2587  004CC0  0E43               	movlw	67
  2588  004CC2  6FE2               	movwf	(?_SetStatus+3)^(__Lparam& (0+65280)),b
  2589  004CC4  69E3               	setf	(?_SetStatus+4)^(__Lparam& (0+65280)),b
  2590  004CC6  69E4               	setf	(?_SetStatus+5)^(__Lparam& (0+65280)),b
  2591  004CC8  6BE5               	clrf	(?_SetStatus+6)^(__Lparam& (0+65280)),b
  2592  004CCA  6BE6               	clrf	(?_SetStatus+7)^(__Lparam& (0+65280)),b
  2593  004CCC  ECB1  F01B         	call	_SetStatus	;wreg free
  2594                           ;print.c: 998: SetData(&(PWD[4].Dt2),0,0);
  2595  004CD0  0100               	movlb	__Lparam shr (0+8)
  2596  004CD2  0E88               	movlw	low (_PWD+72)
  2597  004CD4  6FDF               	movwf	?_SetData^(__Lparam& (0+65280)),b
  2598  004CD6  0E01               	movlw	high (_PWD+72)
  2599  004CD8  6FE0               	movwf	(?_SetData+1)^(__Lparam& (0+65280)),b
  2600  004CDA  6BE1               	clrf	(?_SetData+2)^(__Lparam& (0+65280)),b
  2601  004CDC  6BE2               	clrf	(?_SetData+3)^(__Lparam& (0+65280)),b
  2602  004CDE  ECA1  F01B         	call	_SetData	;wreg free
  2603                           ;print.c: 1000: SetWSW(0);
  2604  004CE2  0E00               	movlw	0
  2605  004CE4  EF55  F012         	goto	_SetWSW
  2606                           ;print.c: 1002: }
  2607  004CE8                     __end_of_EndTestScr:
  2608                           ;print.c: 1043: void PrintGrafH(const unsigned c
      +                          har lkod2,const unsigned char lkod1)
  2609                           ;print.c: 1044: {
  2610  004CE8  00CF               	dw	?_PrintGrafH
  2611  004CEA                     _PrintGrafH:
  2612  000000                     
  2613                           ;_lkod2 stored from wreg
  2614  004CEA  0100               	movlb	__Lparam shr (0+8)
  2615  004CEC  6FCF               	movwf	?a_PrintGrafH^(__Lparam& (0+65280)),b
  2616                           ;print.c: 1045: SetStatus(&(PWD[4].St2),0b000000
      +                          0000000000|0b0000000000100000|0b1000000000000000
      +                          ,0b1111111111111111,0,0);
  2617  004CEE  0E8A               	movlw	low (_PWD+74)
  2618  004CF0  6FDF               	movwf	?_SetStatus^(__Lparam& (0+65280)),b
  2619  004CF2  0E01               	movlw	high (_PWD+74)
  2620  004CF4  6FE0               	movwf	(?_SetStatus+1)^(__Lparam& (0+65280)),b
  2621  004CF6  0E20               	movlw	32
  2622  004CF8  6FE1               	movwf	(?_SetStatus+2)^(__Lparam& (0+65280)),b
  2623  004CFA  0E80               	movlw	128
  2624  004CFC  6FE2               	movwf	(?_SetStatus+3)^(__Lparam& (0+65280)),b
  2625  004CFE  69E3               	setf	(?_SetStatus+4)^(__Lparam& (0+65280)),b
  2626  004D00  69E4               	setf	(?_SetStatus+5)^(__Lparam& (0+65280)),b
  2627  004D02  6BE5               	clrf	(?_SetStatus+6)^(__Lparam& (0+65280)),b
  2628  004D04  6BE6               	clrf	(?_SetStatus+7)^(__Lparam& (0+65280)),b
  2629  004D06  ECB1  F01B         	call	_SetStatus	;wreg free
  2630                           ;print.c: 1046: SetData(&(PWD[4].Dt2),lkod2,lkod
      +                          1);
  2631  004D0A  0100               	movlb	__Lparam shr (0+8)
  2632  004D0C  0E88               	movlw	low (_PWD+72)
  2633  004D0E  6FDF               	movwf	?_SetData^(__Lparam& (0+65280)),b
  2634  004D10  0E01               	movlw	high (_PWD+72)
  2635  004D12  6FE0               	movwf	(?_SetData+1)^(__Lparam& (0+65280)),b
  2636  004D14  51CF               	movf	?a_PrintGrafH^(__Lparam& (0+65280)),w
  2637  004D16  6FE1               	movwf	(?_SetData+2)^(__Lparam& (0+65280)),b
  2638  004D18  51CF               	movf	?_PrintGrafH^(__Lparam& (0+65280)),w
  2639  004D1A                     L22:
  2640  004D1A  6FE2               	movwf	(?_SetData+3)^(__Lparam& (0+65280)),b
  2641  004D1C  EFA1  F01B         	goto	_SetData	;wreg free
  2642                           ;print.c: 1049: }
  2643  004D20                     __end_of_PrintGrafH:
  2644  000000                     
  2645  000000                     
  2646  000000                     
  2647  000000                     
  2648  000000                     
  2649  000000                     
  2650  000000                     
  2651  000000                     
  2652  000000                     
  2653  000000                     
  2654  000000                     
  2655  000000                     
  2656  000000                     
  2657  000000                     
  2658  000000                     
  2659  000000                     
  2660  000000                     
  2661  000000                     
  2662  000000                     
  2663  000000                     
  2664  000000                     
  2665  000000                     
  2666  000000                     
  2667  000000                     
  2668  000000                     
  2669  000000                     
  2670  000000                     
  2671  000000                     
  2672  000000                     
  2673  000000                     
  2674  000000                     
  2675  000000                     
  2676  000000                     
  2677  000000                     
  2678  000000                     
  2679  000000                     
  2680  000000                     
  2681  000000                     
  2682  000000                     
  2683  000000                     
  2684  000000                     
  2685  000000                     
  2686  000000                     
  2687  000000                     
  2688  000000                     
  2689  000000                     
  2690  000000                     
  2691  000000                     
  2692  000000                     
  2693  000000                     
  2694  000000                     
  2695  000000                     
  2696  000000                     
  2697  000000                     
  2698  000000                     
  2699  000000                     
  2700  000000                     
  2701  000000                     
  2702  000000                     
  2703  000000                     
  2704  000000                     
  2705  000000                     
  2706  000000                     
  2707  000000                     
  2708  000000                     
  2709  000000                     
  2710  000000                     
  2711  000000                     
  2712  000000                     
  2713  000000                     
  2714  000000                     
  2715  000000                     
  2716  000000                     
  2717  000000                     
  2718  000000                     
  2719  000000                     
  2720  000000                     
  2721  000000                     
  2722  000000                     
  2723  000000                     
  2724  000000                     
  2725  000000                     
  2726  000000                     
  2727  000000                     
  2728  000000                     
  2729  000000                     
  2730  000000                     
  2731  000000                     
  2732  000000                     
  2733  000000                     
  2734  000000                     
  2735  000000                     
  2736  000000                     
  2737  000000                     
  2738  000000                     
  2739  000000                     
  2740  000000                     
  2741  000000                     
  2742  000000                     
  2743  000000                     
  2744  000000                     
  2745  000000                     
  2746  000000                     
  2747  000000                     
  2748  000000                     
  2749  000000                     
  2750  000000                     
  2751  000000                     
  2752  000000                     
  2753  000000                     
  2754  000000                     
  2755  000000                     
  2756  000000                     
  2757  000000                     
  2758  000000                     
  2759  000000                     
  2760  000000                     
  2761  000000                     
  2762  000000                     
  2763  000000                     
  2764  000000                     
  2765  000000                     
  2766  000000                     
  2767  000000                     
  2768  000000                     
  2769  000000                     
  2770  000000                     
  2771  000000                     
  2772  000000                     
  2773  000000                     
  2774  000000                     
  2775  000000                     
  2776  000000                     
  2777  000000                     
  2778  000000                     
  2779  000000                     
  2780  000000                     
  2781  000000                     
  2782  000000                     
  2783  000000                     
  2784  000000                     
  2785  000000                     
  2786  000000                     
  2787  000000                     
  2788  000000                     
  2789  000000                     
  2790  000000                     
  2791  000000                     
  2792  000000                     
  2793  000000                     
  2794  000000                     
  2795  000000                     
  2796  000000                     
  2797  000000                     
  2798  000000                     
  2799  000000                     
  2800  000000                     
  2801  000000                     
  2802  000000                     
  2803  000000                     
  2804  000000                     
  2805  000000                     
  2806  000000                     
  2807  000000                     
  2808  000000                     
  2809  000000                     
  2810  000000                     
  2811  000000                     
  2812  000000                     
  2813  000000                     
  2814  000000                     
  2815  000000                     
  2816  000000                     
  2817  000000                     
  2818  000000                     
  2819  000000                     
  2820  000000                     
  2821  000000                     
  2822  000000                     
  2823  000000                     
  2824  000000                     
  2825  000000                     
  2826  000000                     
  2827  000000                     
  2828  000000                     
  2829  000000                     
  2830  000000                     
  2831  000000                     
  2832  000000                     
  2833  000000                     
  2834  000000                     
  2835  000000                     
  2836  000000                     
  2837  000000                     
  2838  000000                     
  2839  000000                     
  2840  000000                     
  2841  000000                     
  2842  000000                     
  2843  000000                     
  2844  000000                     
  2845  000000                     
  2846  000000                     
  2847  000000                     
  2848  000000                     
  2849  000000                     
  2850  000000                     
  2851  000000                     
  2852  000000                     
  2853  000000                     
  2854  000000                     
  2855  000000                     
  2856  000000                     
  2857  000000                     
  2858  000000                     
  2859  000000                     
  2860  000000                     
  2861  000000                     
  2862  000000                     
  2863  000000                     
  2864  000000                     
  2865  000000                     
  2866  000000                     
  2867  000000                     
  2868  000000                     
  2869  000000                     
  2870  000000                     
  2871  000000                     
  2872  000000                     
  2873  000000                     
  2874  000000                     
  2875  000000                     
  2876  000000                     
  2877  000000                     
  2878  000000                     
  2879  000000                     
  2880  000000                     
  2881  000000                     
  2882  000000                     
  2883  000000                     
  2884  000000                     
  2885  000000                     
  2886  000000                     
  2887  000000                     
  2888  000000                     
  2889  000000                     
  2890  000000                     
  2891  000000                     
  2892  000000                     
  2893  000000                     
  2894  000000                     
  2895  000000                     
  2896  000000                     
  2897  000000                     
  2898  000000                     
  2899  000000                     
  2900  000000                     
  2901  000000                     
  2902  000000                     
  2903  000000                     
  2904  000000                     
  2905  000000                     
  2906  000000                     
  2907  000000                     
  2908  000000                     
  2909  000000                     
  2910  000000                     
  2911  000000                     
  2912  000000                     
  2913  000000                     
  2914  000000                     
  2915  000000                     
  2916  000000                     
  2917  000000                     
  2918  000000                     
  2919  000000                     
  2920  000000                     
  2921  000000                     
  2922  000000                     
  2923  000000                     
  2924  000000                     
  2925  000000                     
  2926  000000                     
  2927  000000                     
  2928  000000                     
  2929  000000                     
  2930  000000                     
  2931  000000                     
  2932  000000                     
  2933  000000                     
  2934  000000                     
  2935  000000                     
  2936  000000                     
  2937  000000                     
  2938  000000                     
  2939  000000                     
  2940  000000                     
  2941  000000                     
  2942  000000                     
  2943  000000                     
  2944  000000                     
  2945  000000                     
  2946  000000                     
  2947  000000                     
  2948  000000                     
  2949  000000                     
  2950  000000                     
  2951  000000                     
  2952  000000                     
  2953  000000                     
  2954  000000                     
  2955  000000                     
  2956  000000                     
  2957  000000                     
  2958  000000                     
  2959  000000                     
  2960  000000                     
  2961  000000                     
  2962  000000                     
  2963  000000                     
  2964  000000                     
  2965  000000                     
  2966  000000                     
  2967  000000                     
  2968  000000                     
  2969  000000                     
  2970  000000                     
  2971  000000                     
  2972  000000                     
  2973  000000                     
  2974  000000                     
  2975  000000                     
  2976  000000                     
  2977  000000                     
  2978  000000                     
  2979  000000                     
  2980  000000                     
  2981  000000                     
  2982  000000                     
  2983  000000                     
  2984  000000                     
  2985  000000                     
  2986  000000                     
  2987  000000                     
  2988  000000                     
  2989  000000                     
  2990  000000                     
  2991  000000                     
  2992  000000                     
  2993  000000                     
  2994  000000                     
  2995  000000                     
  2996  000000                     
  2997  000000                     
  2998  000000                     
  2999  000000                     
  3000  000000                     
  3001  000000                     
  3002  000000                     
  3003  000000                     
  3004  000000                     
  3005  000000                     
  3006  000000                     
  3007  000000                     
  3008  000000                     
  3009  000000                     
  3010  000000                     
  3011  000000                     
  3012  000000                     
  3013  000000                     
  3014  000000                     
  3015  000000                     
  3016  000000                     
  3017  000000                     
  3018  000000                     
  3019  000000                     
  3020  000000                     
  3021  000000                     
  3022  000000                     
  3023  000000                     
  3024  000000                     
  3025  000000                     
  3026  000000                     
  3027  000000                     
  3028  000000                     
  3029  000000                     
  3030  000000                     
  3031  000000                     
  3032  000000                     
  3033  000000                     
  3034  000000                     
  3035  000000                     
  3036  000000                     
  3037  000000                     
  3038  000000                     
  3039  000000                     
  3040  000000                     
  3041  000000                     
  3042  000000                     
  3043  000000                     
  3044  000000                     
  3045  000000                     
  3046  000000                     
  3047  000000                     
  3048  000000                     
  3049  000000                     
  3050  000000                     
  3051  000000                     
  3052  000000                     
  3053  000000                     
  3054  000000                     
  3055  000000                     
  3056  000000                     
  3057  000000                     
  3058  000000                     
  3059  000000                     
  3060  000000                     
  3061  000000                     
  3062  000000                     
  3063  000000                     
  3064  000000                     
  3065  000000                     
  3066  000000                     
  3067  000000                     
  3068  000000                     
  3069  000000                     
  3070  000000                     
  3071  000000                     
  3072  000000                     
  3073  000000                     
  3074  000000                     
  3075  000000                     
  3076  000000                     
  3077  000000                     
  3078  000000                     
  3079  000000                     
  3080  000000                     
  3081  000000                     
  3082  000000                     
  3083  000000                     
  3084  000000                     
  3085  000000                     
  3086  000000                     
  3087  000000                     
  3088  000000                     
  3089  000000                     
  3090  000000                     
  3091  000000                     
  3092  000000                     
  3093  000000                     
  3094  000000                     
  3095  000000                     
  3096  000000                     
  3097  000000                     
  3098  000000                     
  3099  000000                     
  3100  000000                     
  3101  000000                     
  3102  000000                     
  3103  000000                     
  3104  000000                     
  3105  000000                     
  3106  000000                     
  3107  000000                     
  3108  000000                     
  3109  000000                     
  3110  000000                     
  3111  000000                     
  3112  000000                     
  3113  000000                     
  3114  000000                     
  3115  000000                     
  3116  000000                     
  3117  000000                     
  3118  000000                     
  3119  000000                     
  3120  000000                     
  3121  000000                     
  3122  000000                     
  3123  000000                     
  3124  000000                     
  3125  000000                     
  3126  000000                     
  3127  000000                     
  3128  000000                     
  3129  000000                     
  3130  000000                     
  3131  000000                     
  3132  000000                     
  3133  000000                     
  3134  000000                     
  3135  000000                     
  3136  000000                     
  3137  000000                     
  3138  000000                     
  3139  000000                     
  3140  000000                     
  3141  000000                     
  3142  000000                     
  3143  000000                     
  3144  000000                     
  3145  000000                     
  3146  000000                     
  3147  000000                     
  3148  000000                     
  3149  000000                     
  3150  000000                     
  3151  000000                     
  3152  000000                     
  3153  000000                     
  3154  000000                     
  3155  000000                     
  3156  000000                     
  3157  000000                     
  3158  000000                     
  3159  000000                     
  3160  000000                     
  3161  000000                     
  3162  000000                     
  3163  000000                     
  3164  000000                     
  3165  000000                     
  3166  000000                     
  3167  000000                     
  3168  000000                     
  3169  000000                     
  3170  000000                     
  3171  000000                     
  3172  000000                     
  3173  000000                     
  3174  000000                     
  3175  000000                     
  3176  000000                     
  3177  000000                     
  3178  000000                     
  3179  000000                     
  3180  000000                     
  3181  000000                     
  3182  000000                     
  3183  000000                     
  3184  000000                     
  3185  000000                     
  3186  000000                     
  3187  000000                     
  3188  000000                     
  3189  000000                     
  3190  000000                     
  3191  000000                     
  3192  000000                     
  3193  000000                     
  3194  000000                     
  3195  000000                     
  3196  000000                     
  3197  000000                     
  3198  000000                     
  3199  000000                     
  3200  000000                     
  3201  000000                     
  3202  000000                     
  3203  000000                     
  3204  000000                     
  3205  000000                     
  3206  000000                     
  3207  000000                     
  3208  000000                     
  3209  000000                     
  3210  000000                     
  3211  000000                     
  3212  000000                     
  3213  000000                     
  3214  000000                     
  3215  000000                     
  3216  000000                     
  3217  000000                     
  3218  000000                     
  3219  000000                     
  3220  000000                     
  3221  000000                     
  3222  000000                     
  3223  000000                     
  3224  000000                     
  3225  000000                     
  3226  000000                     
  3227  000000                     
  3228  000000                     
  3229  000000                     
  3230  000000                     
  3231  000000                     
  3232  000000                     
  3233  000000                     
  3234  000000                     
  3235  000000                     
  3236  000000                     
  3237  000000                     
  3238  000000                     
  3239  000000                     
  3240  000000                     
  3241  000000                     
  3242  000000                     
  3243  000000                     
  3244  000000                     
  3245  000000                     
  3246  000000                     
  3247  000000                     
  3248  000000                     
  3249  000000                     
  3250  000000                     
  3251  000000                     
  3252  000000                     
  3253  000000                     
  3254  000000                     
  3255  000000                     
  3256  000000                     
  3257  000000                     
  3258  000000                     
  3259  000000                     
  3260  000000                     
  3261  000000                     
  3262  000000                     
  3263  000000                     
  3264  000000                     
  3265  000000                     
  3266  000000                     
  3267  000000                     
  3268  000000                     
  3269  000000                     
  3270  000000                     
  3271  000000                     
  3272  000000                     
  3273  000000                     
  3274  000000                     
  3275  000000                     
  3276  000000                     
  3277  000000                     
  3278  000000                     
  3279  000000                     
  3280  000000                     
  3281  000000                     
  3282  000000                     
  3283  000000                     
  3284  000000                     
  3285  000000                     
  3286  000000                     
  3287  000000                     
  3288  000000                     
  3289  000000                     
  3290  000000                     
  3291  000000                     
  3292  000000                     
  3293  000000                     
  3294  000000                     
  3295  000000                     
  3296  000000                     
  3297  000000                     
  3298  000000                     
  3299  000000                     
  3300  000000                     
  3301  000000                     
  3302  000000                     
  3303  000000                     
  3304  000000                     
  3305  000000                     
  3306  000000                     
  3307  000000                     
  3308  000000                     
  3309  000000                     
  3310  000000                     
  3311  000000                     
  3312  000000                     
  3313  000000                     
  3314  000000                     
  3315  000000                     
  3316  000000                     
  3317  000000                     
  3318  000000                     
  3319  000000                     
  3320  000000                     
  3321  000000                     
  3322  000000                     
  3323  000000                     
  3324  000000                     
  3325  000000                     
  3326  000000                     
  3327  000000                     
  3328  000000                     
  3329  000000                     
  3330  000000                     
  3331  000000                     
  3332  000000                     
  3333  000000                     
  3334  000000                     
  3335  000000                     
  3336  000000                     
  3337  000000                     
  3338  000000                     
  3339  000000                     
  3340  000000                     
  3341  000000                     
  3342  000000                     
  3343  000000                     
  3344  000000                     
  3345  000000                     
  3346  000000                     
  3347  000000                     
  3348  000000                     
  3349  000000                     
  3350  000000                     
  3351  000000                     
  3352  000000                     
  3353  000000                     
  3354  000000                     
  3355  000000                     
  3356  000000                     
  3357  000000                     
  3358  000000                     
  3359  000000                     
  3360  000000                     
  3361  000000                     
  3362  000000                     
  3363  000000                     
  3364  000000                     
  3365  000000                     
  3366  000000                     
  3367  000000                     
  3368  000000                     
  3369  000000                     
  3370  000000                     
  3371  000000                     
  3372  000000                     
  3373  000000                     
  3374  000000                     
  3375  000000                     
  3376  000000                     
  3377  000000                     
  3378  000000                     
  3379  000000                     
  3380  000000                     
  3381  000000                     
  3382  000000                     
  3383  000000                     
  3384  000000                     
  3385  000000                     
  3386  000000                     
  3387  000000                     
  3388  000000                     
  3389  000000                     
  3390  000000                     
  3391  000000                     
  3392  000000                     
  3393  000000                     
  3394  000000                     
  3395  000000                     
  3396  000000                     
  3397  000000                     
  3398  000000                     
  3399  000000                     
  3400  000000                     
  3401  000000                     
  3402  000000                     
  3403  000000                     
  3404  000000                     
  3405  000000                     
  3406  000000                     
  3407  000000                     
  3408  000000                     
  3409  000000                     
  3410  000000                     
  3411  000000                     
  3412  000000                     
  3413  000000                     
  3414  000000                     
  3415  000000                     
  3416  000000                     
  3417  000000                     
  3418  000000                     
  3419  000000                     
  3420  000000                     
  3421  000000                     
  3422                           
  3423                           	psect	temp
  3424  000000                     btemp:
  3425  000000                     	ds	2
  3426                           prodh	equ	0xFF4
  3427                           prodl	equ	0xFF3
  3428                           fsr2l	equ	0xFD9
  3429                           status	equ	0xFD8


HI-TECH Software PICC-18 Macro Assembler V9.51PL3
Symbol Table                                           Fri Nov 21 09:58:03 2014

             _ResetKol 3BFC              _SetStatus 3762  
             _PrintVER 48C0               _PrintVNT 492A  
             _PrintWPR 42C8                     l30 40A4  
                   l31 407A                     l23 4146  
                   l32 4050                     l24 3F0A  
                   l33 4008                     l25 3EE0  
                   l34 3FA0                     l26 3E9A  
                   l43 4100                     l60 4586  
                   l52 4280                     l36 3FEC  
                   l45 423C                     l29 3F32  
                   l62 46D2                     l46 41D8  
                   l56 4436                     l49 4256  
                   l90 4BF0                     l82 4A9A  
                   l58 44D0                     l59 4542  
                   l84 4B0C                     l76 49E8  
                   l86 4BD4                     l87 4BA0  
                   u46 3D12                     u86 3D30  
            ?_PrintVER 00CF              ?_PrintVNT 00CF  
            ?_PrintWPR 00D0             ?_SetStatus 00DF  
            ?a_PrintCO 00D1              ?a_PrintCS 00D0  
            ?a_PrintCW 00D0              ?a_PrintIN 00CF  
            ?a_PrintPG 00CF                    _DWD 0190  
            ?a_PrintPP 00CF                    u106 3D48  
                  u230 3E40                    u126 3D5E  
                  u166 3D7A                    u191 3E32  
                  u506 4372                    _PFN 0206  
                  u616 45C6                    u536 4448  
                  u716 4866                    u636 45DE  
                  u656 45F4                    u576 4598  
                  u756 4938                    u596 45B2  
                  u686 480C                    u598 45B6  
                  u786 4990                    _PWD 0140  
           _PrintGrafH 4CEA             _PrintNstCO 458A  
           _PrintNstCW 4364     __end_of_PrintGrafH 4D20  
   __end_of_PrintNstCO 46D4     __end_of_PrintNstCW 4438  
           ?a_PrintVER 00D1             ?a_PrintVNT 00D0  
                 _Mark 47B6                   fsr2l 000FD9  
                 btemp 0000            ?_PrintGrafH 00CF  
                 prodh 000FF4                   prodl 000FF3  
          ?_PrintNstCO 00CF            ?_PrintNstCW 00CF  
              ?_ClrDig 00CF            _RestartKol1 3C44  
              ?_SetPoz 00DF        __end_of_PrintCO 4A24  
      __end_of_PrintCS 4856        __end_of_PrintCW 48BE  
      __end_of_PrintIN 4A8E        __end_of_TestScr 4C86  
      __end_of_PrintPG 4B72        __end_of_PrintPP 4B00  
      __end_of_PrintPR 42C6       _AllKolToFirstPoz 3CA4  
        __end_of_EndPR 4362            _PrintErrMsg 3D02  
                ?_Mark 00DD            _PrintNstECO 46D4  
          _PrintNstCW2 443A    __end_of_PrintErrMsg 426C  
  __end_of_PrintNstECO 47AE    __end_of_PrintNstCW2 4588  
        _MarkMinMaxECO 1230                  _KMark 077C  
                _EndPR 432A             used_btemp0 0001  
           used_btemp1 0001                  _WswOn 373A  
        ?a_PrintErrMsg 00D4          ?a_PrintNstCW2 00D1  
         ?_PrintErrMsg 00CF           ?_PrintNstCW2 00CF  
                status 000FD8                _SetData 3742  
              _SetMark 3990               ?_SetData 00DF  
             ?a_ClrDig 00D1                __Lparam 00CF  
             ?_SetMark 00DE                _PrintCO 4982  
              _PrintCS 47FE                _PrintCW 4858  
              _PrintIN 4A24                _TestScr 4C24  
              _PrintPG 4B00                _PrintPP 4A8E  
              _PrintPR 426E               ?_PrintCO 00CF  
             ?_PrintCS 00CF               ?_PrintCW 00CF  
             ?_PrintPR 00D0       __end_of_PrintVER 4928  
     __end_of_PrintVNT 4980       __end_of_PrintWPR 432A  
              __ramtop 0800         __end_of_ClrDig 4C24  
       __end_of_EndErr 3D00         __end_of_EndNst 47B4  
       __end_of_ClsScr 3CEC             _EndTestScr 4C86  
   __end_of_EndTestScr 4CE8          _ClrMarkMinMax 47DC  
         __end_of_Mark 47DC           ?a_PrintGrafH 00CF  
         ?a_PrintNstCO 00D1           ?a_PrintNstCW 00D0  
__end_of_ClrMarkMinMax 47FC                 _ClrDig 4B74  
               _EndErr 3CF4                 _EndNst 47AE  
               _ClsScr 3CE8                 _SetWSW 24AA  
               _SetPoz 3AB6              _EndClsScr 3CEC  
               _WswOff 3734      __end_of_EndClsScr 3CF4  
           _MarkMinMax 117E            ?_MarkMinMax 00DB  
