

HI-TECH Software PICC-18 Macro Assembler V9.51PL3
                                                       Wed Jun 11 12:30:08 2014


     1                           	processor	18F46K20
     2                           	opt	pw 80
     3                           	psect	text,global,reloc=2,class=CODE,delta=1
     4                           	psect	eeprom_data,global,class=EEDATA,delta=1
     5                           	psect	bigbss,global,class=BIGRAM,space=1,delta=
      +                          1
     6                           	psect	bss,global,class=RAM,space=1,delta=1
     7                           	psect	temp,global,ovrld,common,class=COMRAM,spa
      +                          ce=1,delta=1
     8                           	psect	intsave_regs,global,class=BIGRAM,space=1,
      +                          delta=1
     9  000000                     
    10  000000                     
    11  000000                     
    12  000000                     
    13  000000                     
    14  000000                     
    15  000000                     
    16  000000                     
    17  000000                     
    18  000000                     
    19  000000                     
    20  000000                     
    21  000000                     
    22  000000                     
    23  000000                     
    24  000000                     
    25  000000                     
    26  000000                     
    27  000000                     
    28  000000                     
    29  000000                     
    30  000000                     
    31  000000                     
    32  000000                     
    33  000000                     
    34  000000                     
    35  000000                     
    36  000000                     
    37  000000                     
    38  000000                     
    39  000000                     
    40  000000                     
    41  000000                     
    42  000000                     
    43  000000                     
    44  000000                     
    45  000000                     
    46  000000                     
    47  000000                     
    48  000000                     
    49  000000                     
    50  000000                     
    51  000000                     
    52  000000                     
    53  000000                     
    54  000000                     
    55  000000                     
    56  000000                     
    57  000000                     
    58  000000                     
    59  000000                     
    60  000000                     
    61  000000                     
    62  000000                     
    63  000000                     
    64  000000                     
    65  000000                     
    66  000000                     
    67  000000                     
    68  000000                     
    69  000000                     
    70  000000                     
    71  000000                     
    72  000000                     
    73  000000                     
    74  000000                     
    75  000000                     
    76  000000                     
    77  000000                     
    78  000000                     
    79  000000                     
    80  000000                     
    81  000000                     
    82  000000                     
    83  000000                     
    84  000000                     
    85  000000                     
    86  000000                     
    87  000000                     
    88  000000                     
    89  000000                     
    90  000000                     
    91  000000                     
    92  000000                     
    93  000000                     
    94  000000                     
    95  000000                     
    96  000000                     
    97  000000                     	;#
    98                           
    99                           	psect	text
   100                           ;pic18f45k20.h: 20: static volatile near unsigne
      +                          d char TOSU @ 0xFFF;
   101                           ;pic18f45k20.h: 21: static volatile near unsigne
      +                          d char TOSH @ 0xFFE;
   102                           ;pic18f45k20.h: 22: static volatile near unsigne
      +                          d char TOSL @ 0xFFD;
   103                           ;pic18f45k20.h: 23: static volatile near unsigne
      +                          d char STKPTR @ 0xFFC;
   104                           ;pic18f45k20.h: 24: static volatile near unsigne
      +                          d char PCLATU @ 0xFFB;
   105                           ;pic18f45k20.h: 25: static volatile near unsigne
      +                          d char PCLATH @ 0xFFA;
   106                           ;pic18f45k20.h: 26: static volatile near unsigne
      +                          d char PCL @ 0xFF9;
   107                           ;pic18f45k20.h: 27: static volatile far unsigned
      +                           char * TBLPTR @ 0xFF6;
   108                           ;pic18f45k20.h: 28: static volatile near unsigne
      +                          d char TBLPTRU @ 0xFF8;
   109                           ;pic18f45k20.h: 29: static volatile near unsigne
      +                          d char TBLPTRH @ 0xFF7;
   110                           ;pic18f45k20.h: 30: static volatile near unsigne
      +                          d char TBLPTRL @ 0xFF6;
   111                           ;pic18f45k20.h: 31: static volatile near unsigne
      +                          d char TABLAT @ 0xFF5;
   112                           ;pic18f45k20.h: 32: static volatile near unsigne
      +                          d char PRODH @ 0xFF4;
   113                           ;pic18f45k20.h: 33: static volatile near unsigne
      +                          d char PRODL @ 0xFF3;
   114                           ;pic18f45k20.h: 34: static volatile near unsigne
      +                          d char INTCON @ 0xFF2;
   115                           ;pic18f45k20.h: 35: static near unsigned char IN
      +                          TCON2 @ 0xFF1;
   116                           ;pic18f45k20.h: 36: static volatile near unsigne
      +                          d char INTCON3 @ 0xFF0;
   117                           ;pic18f45k20.h: 37: static volatile near unsigne
      +                          d char INDF0 @ 0xFEF;
   118                           ;pic18f45k20.h: 38: static volatile near unsigne
      +                          d char POSTINC0 @ 0xFEE;
   119                           ;pic18f45k20.h: 39: static volatile near unsigne
      +                          d char POSTDEC0 @ 0xFED;
   120                           ;pic18f45k20.h: 40: static volatile near unsigne
      +                          d char PREINC0 @ 0xFEC;
   121                           ;pic18f45k20.h: 41: static volatile near unsigne
      +                          d char PLUSW0 @ 0xFEB;
   122                           ;pic18f45k20.h: 42: static volatile near unsigne
      +                          d char FSR0H @ 0xFEA;
   123                           ;pic18f45k20.h: 43: static volatile near unsigne
      +                          d char FSR0L @ 0xFE9;
   124                           ;pic18f45k20.h: 44: static volatile near unsigne
      +                          d char WREG @ 0xFE8;
   125                           ;pic18f45k20.h: 45: static volatile near unsigne
      +                          d char INDF1 @ 0xFE7;
   126                           ;pic18f45k20.h: 46: static volatile near unsigne
      +                          d char POSTINC1 @ 0xFE6;
   127                           ;pic18f45k20.h: 47: static volatile near unsigne
      +                          d char POSTDEC1 @ 0xFE5;
   128                           ;pic18f45k20.h: 48: static volatile near unsigne
      +                          d char PREINC1 @ 0xFE4;
   129                           ;pic18f45k20.h: 49: static volatile near unsigne
      +                          d char PLUSW1 @ 0xFE3;
   130                           ;pic18f45k20.h: 50: static volatile near unsigne
      +                          d char FSR1H @ 0xFE2;
   131                           ;pic18f45k20.h: 51: static volatile near unsigne
      +                          d char FSR1L @ 0xFE1;
   132                           ;pic18f45k20.h: 52: static near unsigned char BS
      +                          R @ 0xFE0;
   133                           ;pic18f45k20.h: 53: static volatile near unsigne
      +                          d char INDF2 @ 0xFDF;
   134                           ;pic18f45k20.h: 54: static volatile near unsigne
      +                          d char POSTINC2 @ 0xFDE;
   135                           ;pic18f45k20.h: 55: static volatile near unsigne
      +                          d char POSTDEC2 @ 0xFDD;
   136                           ;pic18f45k20.h: 56: static volatile near unsigne
      +                          d char PREINC2 @ 0xFDC;
   137                           ;pic18f45k20.h: 57: static volatile near unsigne
      +                          d char PLUSW2 @ 0xFDB;
   138                           ;pic18f45k20.h: 58: static volatile near unsigne
      +                          d char FSR2H @ 0xFDA;
   139                           ;pic18f45k20.h: 59: static volatile near unsigne
      +                          d char FSR2L @ 0xFD9;
   140                           ;pic18f45k20.h: 60: static volatile near unsigne
      +                          d char STATUS @ 0xFD8;
   141                           ;pic18f45k20.h: 61: static volatile near unsigne
      +                          d char TMR0H @ 0xFD7;
   142                           ;pic18f45k20.h: 62: static volatile near unsigne
      +                          d char TMR0L @ 0xFD6;
   143                           ;pic18f45k20.h: 64: static volatile near unsigne
      +                          d int TMR0 @ 0xFD6;
   144                           ;pic18f45k20.h: 65: static near unsigned char T0
      +                          CON @ 0xFD5;
   145                           ;pic18f45k20.h: 66: static volatile near unsigne
      +                          d char OSCCON @ 0xFD3;
   146                           ;pic18f45k20.h: 67: static volatile near unsigne
      +                          d char HLVDCON @ 0xFD2;
   147                           ;pic18f45k20.h: 68: static volatile near unsigne
      +                          d char WDTCON @ 0xFD1;
   148                           ;pic18f45k20.h: 69: static volatile near unsigne
      +                          d char RCON @ 0xFD0;
   149                           ;pic18f45k20.h: 70: static volatile near unsigne
      +                          d char TMR1H @ 0xFCF;
   150                           ;pic18f45k20.h: 71: static volatile near unsigne
      +                          d char TMR1L @ 0xFCE;
   151                           ;pic18f45k20.h: 73: static volatile near unsigne
      +                          d int TMR1 @ 0xFCE;
   152                           ;pic18f45k20.h: 74: static near unsigned char T1
      +                          CON @ 0xFCD;
   153                           ;pic18f45k20.h: 75: static volatile near unsigne
      +                          d char TMR2 @ 0xFCC;
   154                           ;pic18f45k20.h: 76: static near unsigned char PR
      +                          2 @ 0xFCB;
   155                           ;pic18f45k20.h: 77: static near unsigned char T2
      +                          CON @ 0xFCA;
   156                           ;pic18f45k20.h: 78: static volatile near unsigne
      +                          d char SSPBUF @ 0xFC9;
   157                           ;pic18f45k20.h: 79: static near unsigned char SS
      +                          PADD @ 0xFC8;
   158                           ;pic18f45k20.h: 80: static volatile near unsigne
      +                          d char SSPSTAT @ 0xFC7;
   159                           ;pic18f45k20.h: 81: static volatile near unsigne
      +                          d char SSPCON1 @ 0xFC6;
   160                           ;pic18f45k20.h: 82: static volatile near unsigne
      +                          d char SSPCON2 @ 0xFC5;
   161                           ;pic18f45k20.h: 83: static volatile near unsigne
      +                          d char ADRESH @ 0xFC4;
   162                           ;pic18f45k20.h: 84: static volatile near unsigne
      +                          d char ADRESL @ 0xFC3;
   163                           ;pic18f45k20.h: 86: static volatile near unsigne
      +                          d int ADRES @ 0xFC3;
   164                           ;pic18f45k20.h: 87: static volatile near unsigne
      +                          d char ADCON0 @ 0xFC2;
   165                           ;pic18f45k20.h: 88: static near unsigned char AD
      +                          CON1 @ 0xFC1;
   166                           ;pic18f45k20.h: 89: static near unsigned char AD
      +                          CON2 @ 0xFC0;
   167                           ;pic18f45k20.h: 90: static volatile near unsigne
      +                          d char CCPR1H @ 0xFBF;
   168                           ;pic18f45k20.h: 91: static volatile near unsigne
      +                          d char CCPR1L @ 0xFBE;
   169                           ;pic18f45k20.h: 93: static volatile near unsigne
      +                          d int CCPR1 @ 0xFBE;
   170                           ;pic18f45k20.h: 94: static volatile near unsigne
      +                          d char CCP1CON @ 0xFBD;
   171                           ;pic18f45k20.h: 95: static volatile near unsigne
      +                          d char CCPR2H @ 0xFBC;
   172                           ;pic18f45k20.h: 96: static volatile near unsigne
      +                          d char CCPR2L @ 0xFBB;
   173                           ;pic18f45k20.h: 98: static volatile near unsigne
      +                          d int CCPR2 @ 0xFBB;
   174                           ;pic18f45k20.h: 99: static volatile near unsigne
      +                          d char CCP2CON @ 0xFBA;
   175                           ;pic18f45k20.h: 100: static near unsigned char P
      +                          STRCON @ 0xFB9;
   176                           ;pic18f45k20.h: 101: static volatile near unsign
      +                          ed char BAUDCTL @ 0xFB8;
   177                           ;pic18f45k20.h: 102: static volatile near unsign
      +                          ed char PWM1CON @ 0xFB7;
   178                           ;pic18f45k20.h: 103: static volatile near unsign
      +                          ed char ECCP1AS @ 0xFB6;
   179                           ;pic18f45k20.h: 104: static volatile near unsign
      +                          ed char CVRCON @ 0xFB5;
   180                           ;pic18f45k20.h: 105: static volatile near unsign
      +                          ed char CVRCON2 @ 0xFB4;
   181                           ;pic18f45k20.h: 106: static volatile near unsign
      +                          ed char TMR3H @ 0xFB3;
   182                           ;pic18f45k20.h: 107: static volatile near unsign
      +                          ed char TMR3L @ 0xFB2;
   183                           ;pic18f45k20.h: 109: static volatile near unsign
      +                          ed int TMR3 @ 0xFB2;
   184                           ;pic18f45k20.h: 110: static near unsigned char T
      +                          3CON @ 0xFB1;
   185                           ;pic18f45k20.h: 111: static near unsigned char S
      +                          PBRGH @ 0xFB0;
   186                           ;pic18f45k20.h: 112: static near unsigned char S
      +                          PBRG @ 0xFAF;
   187                           ;pic18f45k20.h: 114: static near unsigned char S
      +                          PBRG1 @ 0xFAF;
   188                           ;pic18f45k20.h: 115: static volatile near unsign
      +                          ed char RCREG @ 0xFAE;
   189                           ;pic18f45k20.h: 117: static volatile near unsign
      +                          ed char RCREG1 @ 0xFAE;
   190                           ;pic18f45k20.h: 118: static volatile near unsign
      +                          ed char TXREG @ 0xFAD;
   191                           ;pic18f45k20.h: 120: static volatile near unsign
      +                          ed char TXREG1 @ 0xFAD;
   192                           ;pic18f45k20.h: 121: static volatile near unsign
      +                          ed char TXSTA @ 0xFAC;
   193                           ;pic18f45k20.h: 123: static volatile near unsign
      +                          ed char TXSTA1 @ 0xFAC;
   194                           ;pic18f45k20.h: 124: static volatile near unsign
      +                          ed char RCSTA @ 0xFAB;
   195                           ;pic18f45k20.h: 126: static volatile near unsign
      +                          ed char RCSTA1 @ 0xFAB;
   196                           ;pic18f45k20.h: 128: static near unsigned char E
      +                          EADRH @ 0xFAA;
   197                           ;pic18f45k20.h: 130: static near unsigned char E
      +                          EADR @ 0xFA9;
   198                           ;pic18f45k20.h: 131: static volatile near unsign
      +                          ed char EEDATA @ 0xFA8;
   199                           ;pic18f45k20.h: 132: static volatile near unsign
      +                          ed char EECON2 @ 0xFA7;
   200  000000                     	;#
   201                           ;main.h: 36: asm("\tglobal __config" "2"); asm("
      +                          \t__config" "2" " equ " "0xFFFF&0xFFFF&0xFFEF&0x
      +                          FFFF&0xEFFF");
   202  000000                     	;#
   203                           ;main.h: 38: asm("\tglobal __config" "3"); asm("
      +                          \t__config" "3" " equ " "0xFFFF&0x7FFF&0xFDFF");
   204  000000                     	;#
   205                           ;main.h: 39: asm("\tglobal __config" "4"); asm("
      +                          \t__config" "4" " equ " "0xFFFF&0xFFFF&0xFFFB&0x
      +                          FFFF");
   206  000000                     	;#
   207                           ;main.h: 42: asm("\tglobal __config" "5"); asm("
      +                          \t__config" "5" " equ " "0xFFF0");
   208  000000                     	;#
   209                           ;main.h: 43: asm("\tglobal __config" "6"); asm("
      +                          \t__config" "6" " equ " "0xFFF0&0xDFFF");
   210  000000                     	;#
   211                           ;pwm.tp.h: 7: typedef struct {
   212                           ;pwm.tp.h: 8: unsigned _ENPWM:1;
   213                           ;pwm.tp.h: 9: unsigned _ENOSC:1;
   214                           ;pwm.tp.h: 10: unsigned tpGZ:1;
   215                           ;pwm.tp.h: 11: volatile near unsigned char BufPW
      +                          M;
   216                           ;pwm.tp.h: 12: volatile near unsigned char BufOS
      +                          C;
   217                           ;pwm.tp.h: 13: near unsigned char NewOSC;
   218                           ;pwm.tp.h: 14: near unsigned char NewPWM;
   219                           ;pwm.tp.h: 17: unsigned char MDMOD;
   220                           ;pwm.tp.h: 18: unsigned char MGMOD;
   221                           ;pwm.tp.h: 19: unsigned char MAXOSC;
   222                           ;pwm.tp.h: 20: unsigned char MINOSC;
   223                           ;pwm.tp.h: 21: unsigned char MAD_MOD;
   224                           ;pwm.tp.h: 22: unsigned char MAG_MOD;
   225                           ;pwm.tp.h: 23: unsigned char GWMSTART;
   226                           ;pwm.tp.h: 24: unsigned char MDSTART;
   227                           ;pwm.tp.h: 25: unsigned char MGSTART;
   228                           ;pwm.tp.h: 26: unsigned char GWMMAXCO;
   229                           ;pwm.tp.h: 27: unsigned char MDMAXCO;
   230                           ;pwm.tp.h: 28: unsigned char MGMAXCO;
   231                           ;pwm.tp.h: 29: unsigned char GWMMAXCW;
   232                           ;pwm.tp.h: 30: unsigned char MDMAXCW;
   233                           ;pwm.tp.h: 31: unsigned char MGMAXCW;
   234                           ;pwm.tp.h: 32: unsigned char FIRSTPB;
   235                           ;pwm.tp.h: 33: unsigned char PROP1;
   236                           ;pwm.tp.h: 34: unsigned char PROP2;
   237                           ;pwm.tp.h: 35: unsigned char PROP3;
   238                           ;pwm.tp.h: 37: unsigned char MSTART;
   239                           ;pwm.tp.h: 38: unsigned char MMAXCO;
   240                           ;pwm.tp.h: 39: unsigned char MMAXCW;
   241                           ;pwm.tp.h: 40: unsigned char PGD;
   242                           ;pwm.tp.h: 41: unsigned char MAXPWM;
   243                           ;pwm.tp.h: 44: }DtPWM;
   244                           ;pwm.h: 414: void SetOsc(void);
   245                           ;czcw.tp.h: 7: typedef struct {
   246                           ;czcw.tp.h: 8: unsigned _ltrUP:1;
   247                           ;czcw.tp.h: 9: unsigned _ltrDW:1;
   248                           ;czcw.tp.h: 10: unsigned S_CW:1;
   249                           ;czcw.tp.h: 11: unsigned char przCW;
   250                           ;czcw.tp.h: 12: }DataPrCW;
   251                           ;pomiar.tp.h: 7: typedef struct {
   252                           ;pomiar.tp.h: 8: unsigned _err_CO:1;
   253                           ;pomiar.tp.h: 9: unsigned _su_CO:1;
   254                           ;pomiar.tp.h: 10: unsigned _ad_CO:1;
   255                           ;pomiar.tp.h: 11: unsigned _su_SRW_CO:1;
   256                           ;pomiar.tp.h: 12: unsigned _ad_SRW_CO:1;
   257                           ;pomiar.tp.h: 13: unsigned _on_DZ_CO:1;
   258                           ;pomiar.tp.h: 14: unsigned _su_DZ_CO:1;
   259                           ;pomiar.tp.h: 15: unsigned _ad_DZ_CO:1;
   260                           ;pomiar.tp.h: 16: unsigned _ptwp_CO:1;
   261                           ;pomiar.tp.h: 17: unsigned _pz_CO:1;
   262                           ;pomiar.tp.h: 18: unsigned _cold_CO:1;
   263                           ;pomiar.tp.h: 19: unsigned _hot_CO:1;
   264                           ;pomiar.tp.h: 20: unsigned _ldDCO:1;
   265                           ;pomiar.tp.h: 21: unsigned _zroPCO:1;
   266                           ;pomiar.tp.h: 22: unsigned _resPCO:1;
   267                           ;pomiar.tp.h: 23: unsigned _newPCO:1;
   268                           ;pomiar.tp.h: 24: unsigned char CO;
   269                           ;pomiar.tp.h: 25: unsigned char PCO;
   270                           ;pomiar.tp.h: 26: unsigned char PPCO;
   271                           ;pomiar.tp.h: 27: unsigned char minPCO;
   272                           ;pomiar.tp.h: 28: unsigned char maxPCO;
   273                           ;pomiar.tp.h: 29: unsigned char PGDPCO;
   274                           ;pomiar.tp.h: 30: signed char DCO;
   275                           ;pomiar.tp.h: 31: signed char dDCO;
   276                           ;pomiar.tp.h: 32: unsigned char indCO;
   277                           ;pomiar.tp.h: 33: unsigned char SCO;
   278                           ;pomiar.tp.h: 34: unsigned char AC_CO;
   279                           ;pomiar.tp.h: 35: unsigned char MAD_CO;
   280                           ;pomiar.tp.h: 36: unsigned char DAD_CO;
   281                           ;pomiar.tp.h: 37: }DataCO;
   282                           ;pomiar.tp.h: 39: typedef struct {
   283                           ;pomiar.tp.h: 40: unsigned _err_CW:1;
   284                           ;pomiar.tp.h: 41: unsigned _su_CW:1;
   285                           ;pomiar.tp.h: 42: unsigned _ad_CW:1;
   286                           ;pomiar.tp.h: 43: unsigned _wpz_CW:1;
   287                           ;pomiar.tp.h: 44: unsigned _on_DZ_CW:1;
   288                           ;pomiar.tp.h: 45: unsigned _su_DZ_CW:1;
   289                           ;pomiar.tp.h: 46: unsigned _ad_DZ_CW:1;
   290                           ;pomiar.tp.h: 47: unsigned _cold_CW:1;
   291                           ;pomiar.tp.h: 48: unsigned _newPCW:1;
   292                           ;pomiar.tp.h: 49: unsigned _wrtPCW:1;
   293                           ;pomiar.tp.h: 50: unsigned _fpCW:1;
   294                           ;pomiar.tp.h: 51: unsigned char CW;
   295                           ;pomiar.tp.h: 52: unsigned char PCW;
   296                           ;pomiar.tp.h: 53: unsigned char PPCW;
   297                           ;pomiar.tp.h: 54: unsigned char minPCW;
   298                           ;pomiar.tp.h: 55: unsigned char maxPCW;
   299                           ;pomiar.tp.h: 56: signed char DCW;
   300                           ;pomiar.tp.h: 57: signed char dDCW;
   301                           ;pomiar.tp.h: 58: signed char ddDCW;
   302                           ;pomiar.tp.h: 59: unsigned char indCW;
   303                           ;pomiar.tp.h: 60: unsigned char SCW;
   304                           ;pomiar.tp.h: 61: unsigned char AC_CW;
   305                           ;pomiar.tp.h: 62: unsigned char MAD_CW;
   306                           ;pomiar.tp.h: 63: unsigned char DAD_CW;
   307                           ;pomiar.tp.h: 64: }DataCW;
   308                           ;pomiar.tp.h: 66: typedef struct {
   309                           ;pomiar.tp.h: 67: unsigned _on_ZW:1;
   310                           ;pomiar.tp.h: 68: unsigned char AC_ZW;
   311  0057B0                     _main:
   312  000000                     
   313                           ;main.c: 48: InitOsc();
   314  0057B0  ECC9  F04A         	call	_InitOsc	;wreg free
   315                           ;main.c: 49: InitGlobal();
   316  0057B4  ECCF  F032         	call	_InitGlobal	;wreg free
   317                           ;main.c: 50: InitTimer1();
   318  0057B8  EC46  F04A         	call	_InitTimer1	;wreg free
   319                           ;main.c: 51: InitPort();
   320  0057BC  EC96  F040         	call	_InitPort	;wreg free
   321                           ;main.c: 52: InitAC();
   322  0057C0  EC52  F046         	call	_InitAC	;wreg free
   323                           ;main.c: 53: InitWsw();
   324  0057C4  EC38  F021         	call	_InitWsw	;wreg free
   325                           ;main.c: 54: InitPWM();
   326  0057C8  ECF3  F03D         	call	_InitPWM	;wreg free
   327                           ;main.c: 55: InitI2C();
   328  0057CC  ECD3  F032         	call	_InitI2C	;wreg free
   329                           ;main.c: 56: InitDataPmr();
   330  0057D0  EC9B  F037         	call	_InitDataPmr	;wreg free
   331                           ;main.c: 57: ClearData();
   332  0057D4  D89C               	call	_ClearData	;wreg free
   333                           ;main.c: 61: if (!POR||!BOR)
   334  0057D6  A2D0               	btfss	4048,1,c	;volatile
   335  0057D8  D002               	goto	u30
   336  0057DA  B0D0               	btfsc	4048,0,c	;volatile
   337  0057DC  D009               	goto	l27
   338  0057DE                     u30:
   339                           ;main.c: 62: {
   340  0057DE  0101               	movlb	(_M+24) shr (0+8)
   341  0057E0  8F18               	bsf	(_M+24)& (0+255),7,b
   342                           ;main.c: 64: TestScr();
   343  0057E2  EC1A  F043         	call	_TestScr	;wreg free
   344                           ;main.c: 65: PwrOnDelay();
   345  0057E6  EC87  F04A         	call	_PwrOnDelay	;wreg free
   346                           ;main.c: 66: EndTestScr();
   347  0057EA  EC33  F043         	call	_EndTestScr	;wreg free
   348                           ;main.c: 67: }
   349  0057EE  D008               	goto	l28
   350  0057F0                     l27:
   351                           ;main.c: 68: else
   352  0057F0  0101               	movlb	(_M+24) shr (0+8)
   353  0057F2  8D18               	bsf	(_M+24)& (0+255),6,b
   354                           ;main.c: 71: ClsScr();
   355  0057F4  EC9A  F041         	call	_ClsScr	;wreg free
   356                           ;main.c: 72: PwrOnDelay();
   357  0057F8  EC87  F04A         	call	_PwrOnDelay	;wreg free
   358                           ;main.c: 73: EndClsScr();
   359  0057FC  EC9C  F041         	call	_EndClsScr	;wreg free
   360  005800                     l28:
   361                           ;main.c: 74: }
   362  005800  A2D0               	btfss	4048,1,c	;volatile
   363  005802  D002               	goto	u60
   364  005804  B0D0               	btfsc	4048,0,c	;volatile
   365  005806  D004               	goto	l29
   366  005808                     u60:
   367                           ;main.c: 77: {
   368  005808  82D0               	bsf	4048,1,c	;volatile
   369                           ;main.c: 79: BOR=1;
   370  00580A  80D0               	bsf	4048,0,c	;volatile
   371                           ;main.c: 80: EnKonf();
   372  00580C  EC09  F03C         	call	_EnKonf	;wreg free
   373  005810                     l29:
   374                           ;main.c: 81: }
   375  005810  ECAC  F03D         	call	_RdEEParam	;wreg free
   376                           ;main.c: 86: if(M.ERR_BTY=eeprom_read(0x00C0))
   377  005814  0EC0               	movlw	192
   378  005816  0100               	movlb	__Lparam shr (0+8)
   379  005818  6FF5               	movwf	?_eeprom_read^(__Lparam& (0+65280)),b
   380  00581A  6BF6               	clrf	(?_eeprom_read+1)^(__Lparam& (0+65280)),b
   381  00581C  EC95  F04A         	call	_eeprom_read	;wreg free
   382  005820  EE01  F01E         	lfsr	0,_M+30
   383  005824  6EEF               	movwf	indf0,c
   384  005826  50EF               	movf	indf0,w,c
   385  005828  E02A               	bz	l30
   386                           ;main.c: 87: {
   387  00582A  0E00               	movlw	0
   388  00582C  0101               	movlb	(_M+30) shr (0+8)
   389  00582E  651E               	cpfsgt	(_M+30)& (0+255),b
   390  005830  D024               	goto	l31
   391  005832  0E04               	movlw	4
   392  005834  611E               	cpfslt	(_M+30)& (0+255),b
   393  005836  D021               	goto	l31
   394  005838  D015               	goto	l33
   395                           ;main.c: 89: {
   396  00583A                     l34:
   397                           ;main.c: 91: {
   398                           ;main.c: 93: PrintErr(0xE1,1);
   399  00583A  0E01               	movlw	1
   400  00583C  0100               	movlb	__Lparam shr (0+8)
   401  00583E  6FF1               	movwf	?_PrintErr^(__Lparam& (0+65280)),b
   402  005840  0EE1               	movlw	225
   403  005842  ECA1  F041         	call	_PrintErr
   404                           ;main.c: 94: break;
   405  005846  D016               	goto	l32
   406  005848                     l35:
   407                           ;main.c: 95: case 2:
   408                           ;main.c: 96: PrintErr(0xE2,1);
   409  005848  0E01               	movlw	1
   410  00584A  0100               	movlb	__Lparam shr (0+8)
   411  00584C  6FF1               	movwf	?_PrintErr^(__Lparam& (0+65280)),b
   412  00584E  0EE2               	movlw	226
   413  005850  ECA1  F041         	call	_PrintErr
   414                           ;main.c: 97: break;
   415  005854  D00F               	goto	l32
   416  005856                     l36:
   417                           ;main.c: 98: case 3:
   418                           ;main.c: 99: PrintErr(0xE3,1);
   419  005856  0E01               	movlw	1
   420  005858  0100               	movlb	__Lparam shr (0+8)
   421  00585A  6FF1               	movwf	?_PrintErr^(__Lparam& (0+65280)),b
   422  00585C  0EE3               	movlw	227
   423  00585E  ECA1  F041         	call	_PrintErr
   424                           ;main.c: 100: break;
   425  005862  D008               	goto	l32
   426  005864                     l33:
   427  005864  C11E  FFE8         	movff	_M+30,wreg
   428  005868  0A01               	xorlw	1
   429  00586A  E0E7               	bz	l34
   430  00586C  0A03               	xorlw	3
   431  00586E  E0EC               	bz	l35
   432  005870  0A01               	xorlw	1
   433  005872  E0F1               	bz	l36
   434  005874                     l32:
   435                           ;main.c: 102: ErrPTG();
   436  005874  EC90  F032         	call	_ErrPTG	;wreg free
   437                           ;main.c: 103: }
   438  005878  D002               	goto	l30
   439  00587A                     l31:
   440                           ;main.c: 104: else M.ERR_BTY=0;
   441  00587A  0101               	movlb	(_M+30) shr (0+8)
   442  00587C  6B1E               	clrf	(_M+30)& (0+255),b
   443  00587E                     l30:
   444                           ;main.c: 105: }
   445  00587E  EC7B  F039         	call	_PomiarPCW	;wreg free
   446                           ;main.c: 109: DtCW._newPCW=0;
   447  005882  0101               	movlb	(_DtCW+1) shr (0+8)
   448  005884  914D               	bcf	(_DtCW+1)& (0+255),0,b
   449                           ;main.c: 110: DtCW._wrtPCW=0;
   450  005886  934D               	bcf	(_DtCW+1)& (0+255),1,b
   451                           ;main.c: 113: RD3=0;
   452  005888  9683               	bcf	3971,3,c	;volatile
   453                           ;main.c: 114: RD0=0;
   454  00588A  9083               	bcf	3971,0,c	;volatile
   455                           ;main.c: 118: M._TURBO=1;
   456  00588C  0101               	movlb	(_M+25) shr (0+8)
   457  00588E  8119               	bsf	(_M+25)& (0+255),0,b
   458                           ;main.c: 119: RestartFltPrt();
   459  005890  D876               	call	_RestartFltPrt	;wreg free
   460                           ;main.c: 120: StartRTS(10);
   461  005892  0E0A               	movlw	10
   462  005894  EC34  F045         	call	_StartRTS
   463  005898                     l39:
   464                           ;main.c: 124: while(1)
   465                           ;main.c: 125: {
   466  005898  0004               	clrwdt		;#
   467                           ;main.c: 127: M._PRACA=M._ROZRUCH||RD0;
   468  00589A  0101               	movlb	(_M+16) shr (0+8)
   469  00589C  A510               	btfss	(_M+16)& (0+255),2,b
   470  00589E  B083               	btfsc	3971,0,c	;volatile
   471  0058A0  D001               	goto	u131
   472  0058A2  D002               	goto	u130
   473  0058A4                     u131:
   474  0058A4  0E01               	movlw	1
   475  0058A6  D001               	goto	u140
   476  0058A8                     u130:
   477  0058A8  0E00               	movlw	0
   478  0058AA                     u140:
   479  0058AA  6E00               	movwf	btemp,c
   480  0058AC  EE01  F019         	lfsr	0,_M+25
   481  0058B0  3600               	rlcf	btemp,f,c
   482  0058B2  50EF               	movf	indf0,w,c
   483  0058B4  1800               	xorwf	btemp,w,c
   484  0058B6  0BFD               	andlw	-3
   485  0058B8  1800               	xorwf	btemp,w,c
   486  0058BA  6EEF               	movwf	indf0,c
   487                           ;main.c: 129: MKonfiguracja();
   488  0058BC  EC2A  F03C         	call	_MKonfiguracja	;wreg free
   489                           ;main.c: 131: PomiarPCW();
   490  0058C0  EC7B  F039         	call	_PomiarPCW	;wreg free
   491                           ;main.c: 132: PomiarCW();
   492  0058C4  EC1A  F039         	call	_PomiarCW	;wreg free
   493                           ;main.c: 133: WritePCW();
   494  0058C8  EC64  F039         	call	_WritePCW	;wreg free
   495                           ;main.c: 134: FiltrPomiarowyCW();
   496  0058CC  EC05  F039         	call	_FiltrPomiarowyCW	;wreg free
   497                           ;main.c: 136: DecWSW();
   498  0058D0  D883               	call	_DecWSW	;wreg free
   499                           ;main.c: 137: DecERR();
   500  0058D2  D8A4               	call	_DecERR	;wreg free
   501                           ;main.c: 139: DecSTR();
   502  0058D4  D9A7               	call	_DecSTR	;wreg free
   503                           ;main.c: 140: DecRozruch();
   504  0058D6  D9FA               	call	_DecRozruch	;wreg free
   505                           ;main.c: 141: DecWylacz();
   506  0058D8  DA1C               	call	_DecWylacz	;wreg free
   507                           ;main.c: 143: FunkcjaSerwisowa();
   508  0058DA  DA56               	call	_FunkcjaSerwisowa	;wreg free
   509                           ;main.c: 145: KolejkaPobudzen();
   510  0058DC  D855               	call	_KolejkaPobudzen	;wreg free
   511                           ;main.c: 148: if(M._ROZRUCH) Rozruch();
   512  0058DE  0101               	movlb	(_M+16) shr (0+8)
   513  0058E0  B510               	btfsc	(_M+16)& (0+255),2,b
   514  0058E2  DAE9               	call	_Rozruch	;wreg free
   515                           ;main.c: 149: if(M._VWYBIEG) VWybieg();
   516  0058E4  0101               	movlb	(_M+16) shr (0+8)
   517  0058E6  BB10               	btfsc	(_M+16)& (0+255),5,b
   518  0058E8  ECA4  F030         	call	_VWybieg	;wreg free
   519                           ;main.c: 150: ReloadPlomien();
   520  0058EC  EC25  F031         	call	_ReloadPlomien	;wreg free
   521                           ;main.c: 151: if(M._RUSZ_PLOMIEN) RuszPlomien();
   522  0058F0  0101               	movlb	(_M+16) shr (0+8)
   523  0058F2  BF10               	btfsc	(_M+16)& (0+255),7,b
   524  0058F4  ECF4  F030         	call	_RuszPlomien	;wreg free
   525                           ;main.c: 152: ReloadCiag();
   526  0058F8  ECFF  F031         	call	_ReloadCiag	;wreg free
   527                           ;main.c: 153: if(M._RUSZ_CIAG) RuszCiag();
   528  0058FC  0101               	movlb	(_M+16) shr (0+8)
   529  0058FE  BD10               	btfsc	(_M+16)& (0+255),6,b
   530  005900  EC38  F031         	call	_RuszCiag	;wreg free
   531                           ;main.c: 154: if(M._MODULUJ) Moduluj();
   532  005904  0101               	movlb	(_M+17) shr (0+8)
   533  005906  B911               	btfsc	(_M+17)& (0+255),4,b
   534  005908  EC62  F008         	call	_Moduluj	;wreg free
   535  00590C  D7C5               	goto	l39
   536  00590E                     __end_of_main:
   537                           ;main.c: 161: void ClearData(void)
   538                           ;main.c: 162: {
   539  00590E                     _ClearData:
   540  000000                     
   541                           ;main.c: 163: DtKNF.enknf=0;
   542  00590E  0101               	movlb	_DtKNF shr (0+8)
   543  005910  915B               	bcf	_DtKNF& (0+255),0,b
   544                           ;main.c: 164: M._pob_KCW=0;
   545  005912  EE01  F002         	lfsr	0,_M+2
   546  005916  6AEE               	clrf	postinc0,c
   547  005918  6AEE               	clrf	postinc0,c
   548                           ;main.c: 165: M._pob_SRW=0;
   549  00591A  EE01  F006         	lfsr	0,_M+6
   550  00591E  6AEE               	clrf	postinc0,c
   551  005920  6AEE               	clrf	postinc0,c
   552                           ;main.c: 166: M._pob_CW=0;
   553  005922  EE01  F008         	lfsr	0,_M+8
   554  005926  6AEE               	clrf	postinc0,c
   555  005928  6AEE               	clrf	postinc0,c
   556                           ;main.c: 168: M._WYLACZ=0;
   557  00592A  0101               	movlb	(_M+16) shr (0+8)
   558  00592C  9110               	bcf	(_M+16)& (0+255),0,b
   559                           ;main.c: 169: M._ROZRUCH=0;
   560  00592E  9510               	bcf	(_M+16)& (0+255),2,b
   561                           ;main.c: 170: M._VWYBIEG=0;
   562  005930  9B10               	bcf	(_M+16)& (0+255),5,b
   563                           ;main.c: 171: M._MODULUJ=0;
   564  005932  9911               	bcf	(_M+17)& (0+255),4,b
   565                           ;main.c: 172: M._RUSZ_CIAG=0;
   566  005934  9D10               	bcf	(_M+16)& (0+255),6,b
   567                           ;main.c: 173: M._RUSZ_PLOMIEN=0;
   568  005936  9F10               	bcf	(_M+16)& (0+255),7,b
   569                           ;main.c: 174: M._RUSZ_RPLM=0;
   570  005938  9111               	bcf	(_M+17)& (0+255),0,b
   571                           ;main.c: 175: M._MODULUJ=0;
   572  00593A  9911               	bcf	(_M+17)& (0+255),4,b
   573                           ;main.c: 177: M._AKTYWNE_KNF=0;
   574  00593C  EE01  F016         	lfsr	0,_M+22
   575  005940  6AEE               	clrf	postinc0,c
   576  005942  6AEE               	clrf	postinc0,c
   577                           ;main.c: 178: M._AKTYWNE_SRW=0;
   578  005944  EE01  F012         	lfsr	0,_M+18
   579  005948  6AEE               	clrf	postinc0,c
   580  00594A  6AEE               	clrf	postinc0,c
   581                           ;main.c: 179: M._RUSZ_NTC_CW=0;
   582  00594C  9318               	bcf	(_M+24)& (0+255),1,b
   583                           ;main.c: 180: M._RUSZ_STB=0;
   584  00594E  9518               	bcf	(_M+24)& (0+255),2,b
   585                           ;main.c: 181: M._RUSZ_MOD=0;
   586  005950  9718               	bcf	(_M+24)& (0+255),3,b
   587                           ;main.c: 183: M._PW_START=0;
   588  005952  9F18               	bcf	(_M+24)& (0+255),7,b
   589                           ;main.c: 184: M._RS_START=0;
   590  005954  9D18               	bcf	(_M+24)& (0+255),6,b
   591                           ;main.c: 185: M._TURBO=0;
   592  005956  9119               	bcf	(_M+25)& (0+255),0,b
   593                           ;main.c: 186: M._PRACA=0;
   594  005958  9319               	bcf	(_M+25)& (0+255),1,b
   595                           ;main.c: 187: M._OST_PL=0;
   596  00595A  9519               	bcf	(_M+25)& (0+255),2,b
   597                           ;main.c: 188: M._RUN_MNMOD=0;
   598  00595C  9719               	bcf	(_M+25)& (0+255),3,b
   599                           ;main.c: 189: M._DE_VNT=0;
   600  00595E  9B19               	bcf	(_M+25)& (0+255),5,b
   601                           ;main.c: 191: M.ERR_BTY=0;
   602  005960  6B1E               	clrf	(_M+30)& (0+255),b
   603                           ;main.c: 192: M.ROZ=0;
   604  005962  6B1F               	clrf	(_M+31)& (0+255),b
   605                           ;main.c: 193: M.WYL=0;
   606  005964  6B23               	clrf	(_M+35)& (0+255),b
   607                           ;main.c: 194: M.RPL=0;
   608  005966  6B25               	clrf	(_M+37)& (0+255),b
   609                           ;main.c: 195: M.RCI=0;
   610  005968  6B26               	clrf	(_M+38)& (0+255),b
   611                           ;main.c: 196: M.MNM=0;
   612  00596A  6B27               	clrf	(_M+39)& (0+255),b
   613                           ;main.c: 197: M.VWB=0;
   614  00596C  6B29               	clrf	(_M+41)& (0+255),b
   615                           ;main.c: 198: M.KRS=0;
   616  00596E  6B2B               	clrf	(_M+43)& (0+255),b
   617                           ;main.c: 199: M.LICZNIK_PL=0;
   618  005970  6B1A               	clrf	(_M+26)& (0+255),b
   619                           ;main.c: 200: M.LICZNIK_CIG=0;
   620  005972  6B1B               	clrf	(_M+27)& (0+255),b
   621                           ;main.c: 201: M.LICZNIK_CIG2=0;
   622  005974  6B1C               	clrf	(_M+28)& (0+255),b
   623                           ;main.c: 202: M.LICZNIK_CIG3=0;
   624  005976  6B1D               	clrf	(_M+29)& (0+255),b
   625                           ;main.c: 204: RD3=0;
   626  005978  9683               	bcf	3971,3,c	;volatile
   627                           ;main.c: 205: RD0=0;
   628  00597A  9083               	bcf	3971,0,c	;volatile
   629                           ;main.c: 206: }
   630  00597C  0012               	return	
   631  00597E                     __end_of_ClearData:
   632                           ;main.c: 207: void RestartFltPrt(void)
   633                           ;main.c: 208: {
   634  00597E                     _RestartFltPrt:
   635  000000                     
   636                           ;main.c: 209: SetPrt(6,0);
   637  00597E  0100               	movlb	__Lparam shr (0+8)
   638  005980  6BF0               	clrf	?_SetPrt^(__Lparam& (0+65280)),b
   639  005982  0E06               	movlw	6
   640  005984  EF58  F041         	goto	_SetPrt
   641                           ;main.c: 210: }
   642  005988                     __end_of_RestartFltPrt:
   643                           ;main.c: 214: void KolejkaPobudzen(void)
   644                           ;main.c: 215: {
   645  005988                     _KolejkaPobudzen:
   646  000000                     
   647                           ;main.c: 216: unsigned char wr=0;
   648  005988  6AD9               	clrf	fsr2l,c
   649                           ;main.c: 219: if(M._AKTYWNE_KNF)
   650  00598A  0101               	movlb	(_M+22) shr (0+8)
   651  00598C  5116               	movf	(_M+22)& (0+255),w,b
   652  00598E  1117               	iorwf	(_M+23)& (0+255),w,b
   653  005990  E011               	bz	l49
   654                           ;main.c: 220: {
   655  005992  EE01  F008         	lfsr	0,_M+8
   656  005996  6AEE               	clrf	postinc0,c
   657  005998  6AEE               	clrf	postinc0,c
   658                           ;main.c: 222: if(DtKNF.wymCW) M._pob_KCW=1;
   659  00599A  0101               	movlb	_DtKNF shr (0+8)
   660  00599C  A55B               	btfss	_DtKNF& (0+255),2,b
   661  00599E  D005               	goto	l50
   662  0059A0  0101               	movlb	(_M+2) shr (0+8)
   663  0059A2  0E01               	movlw	1
   664  0059A4  6F02               	movwf	(_M+2)& (0+255),b
   665  0059A6  6B03               	clrf	(_M+3)& (0+255),b
   666  0059A8  0C00               	retlw	0
   667  0059AA                     l50:
   668                           ;main.c: 223: else M._pob_KCW=0;
   669  0059AA  EE01  F002         	lfsr	0,_M+2
   670  0059AE  6AEE               	clrf	postinc0,c
   671  0059B0  6AEE               	clrf	postinc0,c
   672                           ;main.c: 224: }
   673  0059B2  0012               	return	
   674  0059B4                     l49:
   675                           ;main.c: 225: else
   676  0059B4  EE01  F002         	lfsr	0,_M+2
   677  0059B8  6AEE               	clrf	postinc0,c
   678  0059BA  6AEE               	clrf	postinc0,c
   679                           ;main.c: 229: if(RdPrt(6))
   680  0059BC  0E06               	movlw	6
   681  0059BE  EC47  F041         	call	_RdPrt
   682  0059C2  E305               	bnc	l53
   683                           ;main.c: 230: {
   684  0059C4  0101               	movlb	(_M+8) shr (0+8)
   685  0059C6  0E01               	movlw	1
   686  0059C8  6F08               	movwf	(_M+8)& (0+255),b
   687  0059CA  6B09               	clrf	(_M+9)& (0+255),b
   688                           ;main.c: 232: }
   689  0059CC  0C00               	retlw	0
   690  0059CE                     l53:
   691                           ;main.c: 233: else M._pob_CW=0;
   692  0059CE  EE01  F008         	lfsr	0,_M+8
   693  0059D2  6AEE               	clrf	postinc0,c
   694  0059D4  6AEE               	clrf	postinc0,c
   695                           ;main.c: 234: }
   696  0059D6  0012               	return	
   697  0059D8                     __end_of_KolejkaPobudzen:
   698                           ;main.c: 239: void DecWSW(void)
   699                           ;main.c: 240: {
   700  0059D8                     _DecWSW:
   701  000000                     
   702                           ;main.c: 250: if(!RD0) PrintOFF();
   703  0059D8  B083               	btfsc	3971,0,c	;volatile
   704  0059DA  D003               	goto	l56
   705  0059DC  ECB3  F042         	call	_PrintOFF	;wreg free
   706  0059E0  D00E               	goto	l57
   707  0059E2                     l56:
   708                           ;main.c: 251: else
   709  0059E2  0101               	movlb	(_M+18) shr (0+8)
   710  0059E4  5112               	movf	(_M+18)& (0+255),w,b
   711  0059E6  1113               	iorwf	(_M+19)& (0+255),w,b
   712  0059E8  0E00               	movlw	0
   713  0059EA  A4D8               	btfss	status,2,c
   714  0059EC  0E01               	movlw	1
   715  0059EE  0100               	movlb	__Lparam shr (0+8)
   716  0059F0  6FF0               	movwf	?_PrintCW^(__Lparam& (0+65280)),b
   717  0059F2  C157  FFE8         	movff	_DtCW+11,wreg
   718  0059F6  ECD3  F042         	call	_PrintCW
   719                           ;main.c: 254: EndOFF();
   720  0059FA  ECC9  F042         	call	_EndOFF	;wreg free
   721  0059FE                     l57:
   722                           ;main.c: 255: }
   723  0059FE  0101               	movlb	(_DtCW+1) shr (0+8)
   724  005A00  A14D               	btfss	(_DtCW+1)& (0+255),0,b
   725  005A02  0012               	return	
   726  005A04  0101               	movlb	(_M+18) shr (0+8)
   727  005A06  5112               	movf	(_M+18)& (0+255),w,b
   728  005A08  1113               	iorwf	(_M+19)& (0+255),w,b
   729  005A0A  0E00               	movlw	0
   730  005A0C  A4D8               	btfss	status,2,c
   731  005A0E                     L14:
   732  005A0E  0E01               	movlw	1
   733  005A10  0100               	movlb	__Lparam shr (0+8)
   734  005A12  6FF0               	movwf	?_PrintNstCW^(__Lparam& (0+65280)),b
   735  005A14  C14F  FFE8         	movff	_DtCW+3,wreg
   736  005A18  EF73  F042         	goto	_PrintNstCW
   737                           ;main.c: 258: }
   738  005A1C                     __end_of_DecWSW:
   739                           ;main.c: 262: void DecERR(void)
   740                           ;main.c: 263: {
   741  005A1C                     _DecERR:
   742  000000                     
   743                           ;	_KnfDisErr assigned to ?a_DecERR+0
   744  000000                     _DecERR$KnfDisErr	set	?a_DecERR
   745                           ;main.c: 264: unsigned char KnfDisErr=0;
   746  005A1C  6AD9               	clrf	fsr2l,c
   747                           ;main.c: 265: unsigned char w;
   748  005A1E  0101               	movlb	(_M+22) shr (0+8)
   749  005A20  5116               	movf	(_M+22)& (0+255),w,b
   750  005A22  1117               	iorwf	(_M+23)& (0+255),w,b
   751  005A24  E00E               	bz	u310
   752  005A26  C15D  F000         	movff	_DtKNF+2,btemp
   753  005A2A  0400               	decf	btemp,w,c
   754  005A2C  E008               	bz	u311
   755  005A2E  C15D  FFE8         	movff	_DtKNF+2,wreg
   756  005A32  0A02               	xorlw	2
   757  005A34  E106               	bnz	u310
   758  005A36  C15C  FFE8         	movff	_DtKNF+1,wreg
   759  005A3A  0A03               	xorlw	3
   760  005A3C  E102               	bnz	u310
   761  005A3E                     u311:
   762  005A3E  0E01               	movlw	1
   763  005A40  D001               	goto	u320
   764  005A42                     u310:
   765  005A42  0E00               	movlw	0
   766  005A44                     u320:
   767  005A44  0100               	movlb	__Lparam shr (0+8)
   768  005A46  6FF0               	movwf	?a_DecERR^(__Lparam& (0+65280)),b
   769                           ;main.c: 272: if(!RdPrt(4))
   770  005A48  0E04               	movlw	4
   771  005A4A  EC47  F041         	call	_RdPrt
   772  005A4E  E20B               	bc	l60
   773                           ;main.c: 273: {
   774  005A50  0E02               	movlw	2
   775  005A52  CFE8 F11E          	movff	wreg,_M+30
   776                           ;main.c: 275: PrintErr(0xE2,1);
   777  005A56  0E01               	movlw	1
   778  005A58  0100               	movlb	__Lparam shr (0+8)
   779  005A5A  6FF1               	movwf	?_PrintErr^(__Lparam& (0+65280)),b
   780  005A5C  0EE2               	movlw	226
   781  005A5E  ECA1  F041         	call	_PrintErr
   782                           ;main.c: 276: ErrPTG();
   783  005A62  EC90  F032         	call	_ErrPTG	;wreg free
   784  005A66                     l60:
   785                           ;main.c: 277: }
   786  005A66  0101               	movlb	(_M+16) shr (0+8)
   787  005A68  AF10               	btfss	(_M+16)& (0+255),7,b
   788  005A6A  D00F               	goto	l61
   789                           ;main.c: 280: {
   790  005A6C  6B1E               	clrf	(_M+30)& (0+255),b
   791                           ;main.c: 282: if(KnfDisErr) EndErr();
   792  005A6E  0100               	movlb	__Lparam shr (0+8)
   793  005A70  51F0               	movf	?a_DecERR^(__Lparam& (0+65280)),w
   794  005A72  E003               	bz	l62
   795  005A74  EC06  F042         	call	_EndErr	;wreg free
   796  005A78  D005               	goto	l63
   797  005A7A                     l62:
   798                           ;main.c: 283: else PrintErr(0xE1,0);
   799  005A7A  0100               	movlb	__Lparam shr (0+8)
   800  005A7C  6BF1               	clrf	?_PrintErr^(__Lparam& (0+65280)),b
   801  005A7E  0EE1               	movlw	225
   802  005A80  ECA1  F041         	call	_PrintErr
   803  005A84                     l63:
   804                           ;main.c: 284: M._RUSZ_NTC_CW=0;
   805  005A84  0101               	movlb	(_M+24) shr (0+8)
   806  005A86  9318               	bcf	(_M+24)& (0+255),1,b
   807                           ;main.c: 285: }
   808  005A88  D046               	goto	l64
   809  005A8A                     l61:
   810                           ;main.c: 286: else
   811  005A8A  0101               	movlb	(_M+16) shr (0+8)
   812  005A8C  AD10               	btfss	(_M+16)& (0+255),6,b
   813  005A8E  D012               	goto	l65
   814                           ;main.c: 288: {
   815  005A90  6B1E               	clrf	(_M+30)& (0+255),b
   816                           ;main.c: 290: if(KnfDisErr) EndErr();
   817  005A92  0100               	movlb	__Lparam shr (0+8)
   818  005A94  51F0               	movf	?a_DecERR^(__Lparam& (0+65280)),w
   819  005A96  E003               	bz	l66
   820  005A98  EC06  F042         	call	_EndErr	;wreg free
   821  005A9C  D008               	goto	l67
   822  005A9E                     l66:
   823                           ;main.c: 291: else
   824  005A9E  0101               	movlb	(_M+25) shr (0+8)
   825  005AA0  AD19               	btfss	(_M+25)& (0+255),6,b
   826  005AA2  D005               	goto	l67
   827                           ;main.c: 294: {
   828  005AA4  0100               	movlb	__Lparam shr (0+8)
   829  005AA6  6BF1               	clrf	?_PrintErr^(__Lparam& (0+65280)),b
   830  005AA8  0EE3               	movlw	227
   831  005AAA  ECA1  F041         	call	_PrintErr
   832  005AAE                     l67:
   833                           ;main.c: 296: }
   834  005AAE  0101               	movlb	(_M+24) shr (0+8)
   835  005AB0  9318               	bcf	(_M+24)& (0+255),1,b
   836  005AB2  D030               	goto	L4
   837                           ;main.c: 299: M._RUSZ_MOD=0;
   838                           ;main.c: 300: }
   839  005AB4                     l65:
   840                           ;main.c: 301: else
   841  005AB4  EE01  F04C         	lfsr	0,_DtCW
   842  005AB8  50EF               	movf	indf0,w,c
   843  005ABA  0B01               	andlw	1
   844  005ABC  6ED9               	movwf	fsr2l,c
   845                           ;main.c: 305: if(w)
   846  005ABE  50D9               	movf	fsr2l,w,c
   847  005AC0  E011               	bz	l70
   848                           ;main.c: 306: {
   849  005AC2  0E04               	movlw	4
   850  005AC4  CFE8 F11E          	movff	wreg,_M+30
   851                           ;main.c: 308: if(KnfDisErr) EndErr();
   852  005AC8  0100               	movlb	__Lparam shr (0+8)
   853  005ACA  51F0               	movf	?a_DecERR^(__Lparam& (0+65280)),w
   854  005ACC  E003               	bz	l71
   855  005ACE  EC06  F042         	call	_EndErr	;wreg free
   856  005AD2  D005               	goto	l72
   857  005AD4                     l71:
   858                           ;main.c: 309: else PrintErr(0xE4,0);
   859  005AD4  0100               	movlb	__Lparam shr (0+8)
   860  005AD6  6BF1               	clrf	?_PrintErr^(__Lparam& (0+65280)),b
   861  005AD8  0EE4               	movlw	228
   862  005ADA  ECA1  F041         	call	_PrintErr
   863  005ADE                     l72:
   864                           ;main.c: 310: M._RUSZ_NTC_CW=1;
   865  005ADE  0101               	movlb	(_M+24) shr (0+8)
   866  005AE0  8318               	bsf	(_M+24)& (0+255),1,b
   867  005AE2  D018               	goto	L4
   868                           ;main.c: 311: M._RUSZ_MOD=0;
   869                           ;main.c: 312: }
   870  005AE4                     l70:
   871                           ;main.c: 313: else
   872  005AE4  0101               	movlb	(_M+24) shr (0+8)
   873  005AE6  9318               	bcf	(_M+24)& (0+255),1,b
   874                           ;main.c: 317: if(!RdPrt(8))
   875  005AE8  0E08               	movlw	8
   876  005AEA  EC47  F041         	call	_RdPrt
   877  005AEE  E211               	bc	l74
   878                           ;main.c: 318: {
   879  005AF0  0E07               	movlw	7
   880  005AF2  CFE8 F11E          	movff	wreg,_M+30
   881                           ;main.c: 320: if(KnfDisErr) EndErr();
   882  005AF6  0100               	movlb	__Lparam shr (0+8)
   883  005AF8  51F0               	movf	?a_DecERR^(__Lparam& (0+65280)),w
   884  005AFA  E003               	bz	l75
   885  005AFC  EC06  F042         	call	_EndErr	;wreg free
   886  005B00  D005               	goto	l76
   887  005B02                     l75:
   888                           ;main.c: 321: else PrintErr(0xE7,0);
   889  005B02  0100               	movlb	__Lparam shr (0+8)
   890  005B04  6BF1               	clrf	?_PrintErr^(__Lparam& (0+65280)),b
   891  005B06  0EE7               	movlw	231
   892  005B08  ECA1  F041         	call	_PrintErr
   893  005B0C                     l76:
   894                           ;main.c: 322: M._RUSZ_MOD=1;
   895  005B0C  0101               	movlb	(_M+24) shr (0+8)
   896  005B0E  8718               	bsf	(_M+24)& (0+255),3,b
   897                           ;main.c: 323: }
   898  005B10  D002               	goto	l64
   899  005B12                     l74:
   900                           ;main.c: 324: else
   901  005B12  0101               	movlb	(_M+24) shr (0+8)
   902  005B14                     L4:
   903  005B14  9718               	bcf	(_M+24)& (0+255),3,b
   904  005B16                     l64:
   905                           ;main.c: 327: }
   906  005B16  0101               	movlb	(_M+16) shr (0+8)
   907  005B18  BF10               	btfsc	(_M+16)& (0+255),7,b
   908  005B1A  D024               	goto	l78
   909  005B1C  0E05               	movlw	5
   910  005B1E  EC47  F041         	call	_RdPrt
   911  005B22  E220               	bc	l78
   912  005B24  0101               	movlb	(_M+16) shr (0+8)
   913  005B26  A510               	btfss	(_M+16)& (0+255),2,b
   914  005B28  A083               	btfss	3971,0,c	;volatile
   915  005B2A  D01C               	goto	l78
   916                           ;main.c: 334: {
   917  005B2C  0101               	movlb	(_M+25) shr (0+8)
   918  005B2E  A119               	btfss	(_M+25)& (0+255),0,b
   919  005B30  D00E               	goto	l79
   920                           ;main.c: 336: {
   921  005B32  A683               	btfss	3971,3,c	;volatile
   922  005B34  D008               	goto	l80
   923                           ;main.c: 338: {
   924  005B36  0E03               	movlw	3
   925  005B38  EC47  F041         	call	_RdPrt
   926  005B3C  E313               	bnc	l78
   927  005B3E  0E04               	movlw	4
   928  005B40  EC47  F041         	call	_RdPrt
   929  005B44  D00B               	goto	L11
   930                           ;main.c: 340: {
   931                           ;main.c: 342: M._RUSZ_PLOMIEN=1;
   932                           ;main.c: 343: }
   933  005B46                     l80:
   934                           ;main.c: 345: else
   935  005B46  0E04               	movlw	4
   936  005B48  EC47  F041         	call	_RdPrt
   937  005B4C  D007               	goto	L11
   938                           ;main.c: 348: {
   939                           ;main.c: 350: M._RUSZ_PLOMIEN=1;
   940                           ;main.c: 351: }
   941  005B4E                     l79:
   942                           ;main.c: 354: else
   943  005B4E  0E02               	movlw	2
   944  005B50  EC47  F041         	call	_RdPrt
   945  005B54  E307               	bnc	l78
   946  005B56  0E04               	movlw	4
   947  005B58  EC47  F041         	call	_RdPrt
   948  005B5C                     L11:
   949  005B5C  E303               	bnc	l78
   950                           ;main.c: 357: {
   951  005B5E  0101               	movlb	(_M+37) shr (0+8)
   952  005B60  6B25               	clrf	(_M+37)& (0+255),b
   953                           ;main.c: 359: M._RUSZ_PLOMIEN=1;
   954  005B62  8F10               	bsf	(_M+16)& (0+255),7,b
   955  005B64                     l78:
   956                           ;main.c: 360: }
   957  005B64  0101               	movlb	(_M+25) shr (0+8)
   958  005B66  B119               	btfsc	(_M+25)& (0+255),0,b
   959  005B68  D011               	goto	l86
   960                           ;main.c: 365: {
   961  005B6A  BD10               	btfsc	(_M+16)& (0+255),6,b
   962  005B6C  D04F               	goto	l88
   963  005B6E  0E02               	movlw	2
   964  005B70  EC47  F041         	call	_RdPrt
   965  005B74  E24B               	bc	l88
   966  005B76  0E04               	movlw	4
   967  005B78  EC47  F041         	call	_RdPrt
   968  005B7C  E347               	bnc	l88
   969  005B7E  0101               	movlb	(_M+25) shr (0+8)
   970  005B80  A319               	btfss	(_M+25)& (0+255),1,b
   971  005B82  D044               	goto	l88
   972                           ;main.c: 367: {
   973  005B84  0101               	movlb	(_M+38) shr (0+8)
   974  005B86  6B26               	clrf	(_M+38)& (0+255),b
   975                           ;main.c: 369: M._RUSZ_CIAG=1;
   976  005B88  8D10               	bsf	(_M+16)& (0+255),6,b
   977                           ;main.c: 381: }
   978  005B8A  D040               	goto	l88
   979  005B8C                     l86:
   980                           ;main.c: 383: else
   981  005B8C  0101               	movlb	(_M+16) shr (0+8)
   982  005B8E  AD10               	btfss	(_M+16)& (0+255),6,b
   983  005B90  B510               	btfsc	(_M+16)& (0+255),2,b
   984  005B92  D03C               	goto	l88
   985  005B94  0101               	movlb	(_M+25) shr (0+8)
   986  005B96  BB19               	btfsc	(_M+25)& (0+255),5,b
   987  005B98  D039               	goto	l88
   988  005B9A  0E03               	movlw	3
   989  005B9C  EC47  F041         	call	_RdPrt
   990  005BA0  A0D8               	btfss	status,0,c
   991  005BA2  A683               	btfss	3971,3,c	;volatile
   992  005BA4  D001               	goto	u741
   993  005BA6  D006               	goto	u790
   994  005BA8                     u741:
   995  005BA8  0E03               	movlw	3
   996  005BAA  EC47  F041         	call	_RdPrt
   997  005BAE  B0D8               	btfsc	status,0,c
   998  005BB0  B683               	btfsc	3971,3,c	;volatile
   999  005BB2  D02C               	goto	l88
  1000  005BB4                     u790:
  1001                           ;main.c: 387: {
  1002  005BB4  0101               	movlb	(_M+38) shr (0+8)
  1003  005BB6  6B26               	clrf	(_M+38)& (0+255),b
  1004                           ;main.c: 389: M._RUSZ_CIAG=1;
  1005  005BB8  8D10               	bsf	(_M+16)& (0+255),6,b
  1006                           ;main.c: 390: if(!M.LICZNIK_CIG) StartRTS(11);
  1007  005BBA  EE01  F01B         	lfsr	0,_M+27
  1008  005BBE  50EF               	movf	indf0,w,c
  1009  005BC0  E103               	bnz	l90
  1010  005BC2  0E0B               	movlw	11
  1011  005BC4  EC34  F045         	call	_StartRTS
  1012  005BC8                     l90:
  1013                           ;main.c: 391: M.LICZNIK_CIG++;
  1014  005BC8  0101               	movlb	(_M+27) shr (0+8)
  1015  005BCA  2B1B               	incf	(_M+27)& (0+255),f,b
  1016                           ;main.c: 392: if((M.LICZNIK_CIG>=5)||((M.LICZNIK
      +                          _CIG3+M.LICZNIK_CIG)>=10))
  1017  005BCC  0E04               	movlw	4
  1018  005BCE  651B               	cpfsgt	(_M+27)& (0+255),b
  1019  005BD0  D001               	goto	u811
  1020  005BD2  D00F               	goto	u830
  1021  005BD4                     u811:
  1022  005BD4  C11B  FFE8         	movff	_M+27,wreg
  1023  005BD8  C11D  F000         	movff	_M+29,btemp
  1024  005BDC  6A01               	clrf	btemp+1,c
  1025  005BDE  2600               	addwf	btemp,f,c
  1026  005BE0  0E00               	movlw	0
  1027  005BE2  2201               	addwfc	btemp+1,f,c
  1028  005BE4  5001               	movf	btemp+1,w,c
  1029  005BE6  0A80               	xorlw	128
  1030  005BE8  0F80               	addlw	-128
  1031  005BEA  0E0A               	movlw	10
  1032  005BEC  B4D8               	btfsc	status,2,c
  1033  005BEE  5C00               	subwf	btemp,w,c
  1034  005BF0  E30D               	bnc	l88
  1035  005BF2                     u830:
  1036                           ;main.c: 393: {
  1037  005BF2  0101               	movlb	(_M+27) shr (0+8)
  1038  005BF4  6B1B               	clrf	(_M+27)& (0+255),b
  1039                           ;main.c: 395: M.ERR_BTY=0x03;
  1040  005BF6  0E03               	movlw	3
  1041  005BF8  CFE8 F11E          	movff	wreg,_M+30
  1042                           ;main.c: 396: PrintErr(0xE3,1);
  1043  005BFC  0E01               	movlw	1
  1044  005BFE  0100               	movlb	__Lparam shr (0+8)
  1045  005C00  6FF1               	movwf	?_PrintErr^(__Lparam& (0+65280)),b
  1046  005C02  0EE3               	movlw	227
  1047  005C04  ECA1  F041         	call	_PrintErr
  1048                           ;main.c: 397: ErrPTG();
  1049  005C08  EC90  F032         	call	_ErrPTG	;wreg free
  1050  005C0C                     l88:
  1051                           ;main.c: 398: }
  1052  005C0C  0101               	movlb	(_M+16) shr (0+8)
  1053  005C0E  AF10               	btfss	(_M+16)& (0+255),7,b
  1054  005C10  BD10               	btfsc	(_M+16)& (0+255),6,b
  1055  005C12  0012               	return	
  1056  005C14  0101               	movlb	(_M+24) shr (0+8)
  1057  005C16  A318               	btfss	(_M+24)& (0+255),1,b
  1058  005C18  B718               	btfsc	(_M+24)& (0+255),3,b
  1059  005C1A  0012               	return	
  1060                           ;main.c: 406: {
  1061  005C1C  0101               	movlb	(_M+30) shr (0+8)
  1062  005C1E  6B1E               	clrf	(_M+30)& (0+255),b
  1063                           ;main.c: 408: EndErr();
  1064  005C20  EF06  F042         	goto	_EndErr	;wreg free
  1065                           ;main.c: 409: }
  1066  005C24                     __end_of_DecERR:
  1067                           ;main.c: 414: void DecSTR(void)
  1068                           ;main.c: 415: {
  1069  005C24                     _DecSTR:
  1070  000000                     
  1071                           ;main.c: 417: if(RTS(10)>=3)
  1072  005C24  0E0A               	movlw	10
  1073  005C26  EC46  F045         	call	_RTS
  1074  005C2A  6E00               	movwf	btemp,c
  1075  005C2C  0E03               	movlw	3
  1076  005C2E  5C00               	subwf	btemp,w,c
  1077  005C30  E303               	bnc	l94
  1078                           ;main.c: 418: {
  1079  005C32  0101               	movlb	(_M+24) shr (0+8)
  1080  005C34  9F18               	bcf	(_M+24)& (0+255),7,b
  1081                           ;main.c: 420: M._RS_START=0;
  1082  005C36  9D18               	bcf	(_M+24)& (0+255),6,b
  1083  005C38                     l94:
  1084                           ;main.c: 421: }
  1085  005C38  0101               	movlb	(_M+8) shr (0+8)
  1086  005C3A  5108               	movf	(_M+8)& (0+255),w,b
  1087  005C3C  1109               	iorwf	(_M+9)& (0+255),w,b
  1088  005C3E  E00E               	bz	l95
  1089                           ;main.c: 431: {
  1090  005C40  5112               	movf	(_M+18)& (0+255),w,b
  1091  005C42  1113               	iorwf	(_M+19)& (0+255),w,b
  1092  005C44  E10C               	bnz	L5
  1093                           ;main.c: 433: else
  1094  005C46  0101               	movlb	(_M+16) shr (0+8)
  1095  005C48  A510               	btfss	(_M+16)& (0+255),2,b
  1096  005C4A  A083               	btfss	3971,0,c	;volatile
  1097  005C4C  D007               	goto	l95
  1098                           ;main.c: 435: {
  1099  005C4E  0101               	movlb	(_M+17) shr (0+8)
  1100  005C50  B911               	btfsc	(_M+17)& (0+255),4,b
  1101  005C52  D006               	goto	l101
  1102                           ;main.c: 437: {
  1103  005C54  8911               	bsf	(_M+17)& (0+255),4,b
  1104                           ;main.c: 439: RestartMod();
  1105  005C56  EC29  F021         	call	_RestartMod	;wreg free
  1106                           ;main.c: 441: }
  1107  005C5A  D002               	goto	l101
  1108                           ;main.c: 443: else M._MODULUJ=0;
  1109                           ;main.c: 444: }
  1110  005C5C                     l95:
  1111                           ;main.c: 445: else M._MODULUJ=0;
  1112  005C5C  0101               	movlb	(_M+17) shr (0+8)
  1113  005C5E                     L5:
  1114  005C5E  9911               	bcf	(_M+17)& (0+255),4,b
  1115  005C60                     l101:
  1116                           ;main.c: 447: if(!M._PRACA||!RdPrt(8)||M._RUN_MN
      +                          MOD)
  1117  005C60  0101               	movlb	(_M+25) shr (0+8)
  1118  005C62  A319               	btfss	(_M+25)& (0+255),1,b
  1119  005C64  D007               	goto	u1010
  1120  005C66  0E08               	movlw	8
  1121  005C68  EC47  F041         	call	_RdPrt
  1122  005C6C  E303               	bnc	u1010
  1123  005C6E  0101               	movlb	(_M+25) shr (0+8)
  1124  005C70  A719               	btfss	(_M+25)& (0+255),3,b
  1125  005C72  D010               	goto	l102
  1126  005C74                     u1010:
  1127                           ;main.c: 448: {
  1128  005C74  0101               	movlb	(_M+17) shr (0+8)
  1129  005C76  9911               	bcf	(_M+17)& (0+255),4,b
  1130                           ;main.c: 450: if(!M._PRACA||!RdPrt(8)) WritePWM(
      +                          0);
  1131  005C78  A319               	btfss	(_M+25)& (0+255),1,b
  1132  005C7A  D004               	goto	u1050
  1133  005C7C  0E08               	movlw	8
  1134  005C7E  EC47  F041         	call	_RdPrt
  1135  005C82  E204               	bc	l103
  1136  005C84                     u1050:
  1137  005C84  0E00               	movlw	0
  1138  005C86  EC8E  F03E         	call	_WritePWM
  1139  005C8A  D004               	goto	l102
  1140  005C8C                     l103:
  1141                           ;main.c: 451: else WritePWM(PWM.MDMOD);
  1142  005C8C  C061  FFE8         	movff	_PWM+5,wreg
  1143  005C90  EC8E  F03E         	call	_WritePWM
  1144  005C94                     l102:
  1145                           ;main.c: 452: }
  1146  005C94  0101               	movlb	(_M+2) shr (0+8)
  1147  005C96  5102               	movf	(_M+2)& (0+255),w,b
  1148  005C98  1103               	iorwf	(_M+3)& (0+255),w,b
  1149  005C9A  A4D8               	btfss	status,2,c
  1150  005C9C  B510               	btfsc	(_M+16)& (0+255),2,b
  1151  005C9E  D006               	goto	l105
  1152  005CA0  A083               	btfss	3971,0,c	;volatile
  1153  005CA2  D004               	goto	l105
  1154  005CA4  C076  FFE8         	movff	_PWM+26,wreg
  1155  005CA8  EC8E  F03E         	call	_WritePWM
  1156  005CAC                     l105:
  1157                           ;main.c: 460: if(M._AKTYWNE_SRW&&!M._ROZRUCH&&RD
      +                          0) WritePWM(0xF0);
  1158  005CAC  0101               	movlb	(_M+18) shr (0+8)
  1159  005CAE  5112               	movf	(_M+18)& (0+255),w,b
  1160  005CB0  1113               	iorwf	(_M+19)& (0+255),w,b
  1161  005CB2  A4D8               	btfss	status,2,c
  1162  005CB4  B510               	btfsc	(_M+16)& (0+255),2,b
  1163  005CB6  0012               	return	
  1164  005CB8  A083               	btfss	3971,0,c	;volatile
  1165  005CBA  0012               	return	
  1166  005CBC  0EF0               	movlw	240
  1167  005CBE  EF8E  F03E         	goto	_WritePWM
  1168                           ;main.c: 462: }
  1169  005CC2                     __end_of_DecSTR:
  1170                           ;main.c: 464: void SetLoMod(void)
  1171                           ;main.c: 465: {
  1172  005CC2                     _SetLoMod:
  1173  000000                     
  1174                           ;main.c: 466: M._MODULUJ=0;
  1175  005CC2  0101               	movlb	(_M+17) shr (0+8)
  1176  005CC4  9911               	bcf	(_M+17)& (0+255),4,b
  1177                           ;main.c: 467: WritePWM(0);
  1178  005CC6  0E00               	movlw	0
  1179  005CC8  EF8E  F03E         	goto	_WritePWM
  1180                           ;main.c: 468: }
  1181  005CCC                     __end_of_SetLoMod:
  1182                           ;main.c: 472: void DecRozruch(void)
  1183                           ;main.c: 473: {
  1184  005CCC                     _DecRozruch:
  1185  000000                     
  1186                           ;main.c: 474: if(!M._ROZRUCH&&!RD0)
  1187  005CCC  0101               	movlb	(_M+16) shr (0+8)
  1188  005CCE  A510               	btfss	(_M+16)& (0+255),2,b
  1189  005CD0  B083               	btfsc	3971,0,c	;volatile
  1190  005CD2  0012               	return	
  1191                           ;main.c: 475: if(!M._RUSZ_PLOMIEN&&!M._RUSZ_CIAG
      +                          &&!M._RUSZ_STB&&!M._RUSZ_NTC_CW)
  1192  005CD4  AF10               	btfss	(_M+16)& (0+255),7,b
  1193  005CD6  BD10               	btfsc	(_M+16)& (0+255),6,b
  1194  005CD8  0012               	return	
  1195  005CDA  0101               	movlb	(_M+24) shr (0+8)
  1196  005CDC  A518               	btfss	(_M+24)& (0+255),2,b
  1197  005CDE  B318               	btfsc	(_M+24)& (0+255),1,b
  1198  005CE0  0012               	return	
  1199                           ;main.c: 476: {
  1200  005CE2  0101               	movlb	(_M+2) shr (0+8)
  1201  005CE4  5102               	movf	(_M+2)& (0+255),w,b
  1202  005CE6  1103               	iorwf	(_M+3)& (0+255),w,b
  1203  005CE8  E004               	bz	l111
  1204                           ;main.c: 478: {
  1205  005CEA  0101               	movlb	_DtCW shr (0+8)
  1206  005CEC  B34C               	btfsc	_DtCW& (0+255),1,b
  1207                           ;main.c: 480: {
  1208  005CEE  D80A               	call	_SetRozruch	;wreg free
  1209                           ;main.c: 482: }
  1210  005CF0  0012               	return	
  1211  005CF2                     l111:
  1212                           ;main.c: 484: else
  1213  005CF2  0101               	movlb	(_M+8) shr (0+8)
  1214  005CF4  5108               	movf	(_M+8)& (0+255),w,b
  1215  005CF6  1109               	iorwf	(_M+9)& (0+255),w,b
  1216  005CF8  B4D8               	btfsc	status,2,c
  1217  005CFA  0012               	return	
  1218                           ;main.c: 486: {
  1219  005CFC  0101               	movlb	_DtCW shr (0+8)
  1220  005CFE  B34C               	btfsc	_DtCW& (0+255),1,b
  1221                           ;main.c: 488: {
  1222  005D00  D801               	call	_SetRozruch	;wreg free
  1223                           ;main.c: 490: }
  1224  005D02  0012               	return	
  1225  005D04                     __end_of_DecRozruch:
  1226                           ;main.c: 495: void SetRozruch(void)
  1227                           ;main.c: 496: {
  1228  005D04                     _SetRozruch:
  1229  000000                     
  1230                           ;main.c: 497: M._VWYBIEG=0;
  1231  005D04  0101               	movlb	(_M+16) shr (0+8)
  1232  005D06  9B10               	bcf	(_M+16)& (0+255),5,b
  1233                           ;main.c: 498: M._DE_VNT=0;
  1234  005D08  9B19               	bcf	(_M+25)& (0+255),5,b
  1235                           ;main.c: 499: M.VWB=0;
  1236  005D0A  6B29               	clrf	(_M+41)& (0+255),b
  1237                           ;main.c: 501: M._ROZRUCH=1;
  1238  005D0C  8510               	bsf	(_M+16)& (0+255),2,b
  1239                           ;main.c: 502: M.ROZ=0;
  1240  005D0E  6B1F               	clrf	(_M+31)& (0+255),b
  1241                           ;main.c: 503: }
  1242  005D10  0012               	return	
  1243  005D12                     __end_of_SetRozruch:
  1244                           ;main.c: 507: void DecWylacz(void)
  1245                           ;main.c: 508: {
  1246  005D12                     _DecWylacz:
  1247  000000                     
  1248                           ;main.c: 509: if(!M._WYLACZ)
  1249  005D12  0101               	movlb	(_M+16) shr (0+8)
  1250  005D14  B110               	btfsc	(_M+16)& (0+255),0,b
  1251  005D16  0012               	return	
  1252                           ;main.c: 510: if(M._ROZRUCH||RD0)
  1253  005D18  B510               	btfsc	(_M+16)& (0+255),2,b
  1254  005D1A  D002               	goto	u1330
  1255  005D1C  A083               	btfss	3971,0,c	;volatile
  1256  005D1E  0012               	return	
  1257  005D20                     u1330:
  1258                           ;main.c: 511: {
  1259  005D20  0101               	movlb	(_M+2) shr (0+8)
  1260  005D22  5102               	movf	(_M+2)& (0+255),w,b
  1261  005D24  1103               	iorwf	(_M+3)& (0+255),w,b
  1262  005D26  E104               	bnz	l120
  1263  005D28  5108               	movf	(_M+8)& (0+255),w,b
  1264  005D2A  1109               	iorwf	(_M+9)& (0+255),w,b
  1265  005D2C  E101               	bnz	l120
  1266  005D2E  D01B               	goto	_SetWylacz	;wreg free
  1267  005D30                     l120:
  1268                           ;main.c: 513: else
  1269  005D30  0101               	movlb	(_M+16) shr (0+8)
  1270  005D32  AF10               	btfss	(_M+16)& (0+255),7,b
  1271  005D34  BD10               	btfsc	(_M+16)& (0+255),6,b
  1272  005D36  D017               	goto	_SetWylacz
  1273  005D38  0101               	movlb	(_M+24) shr (0+8)
  1274  005D3A  B518               	btfsc	(_M+24)& (0+255),2,b
  1275  005D3C  D014               	goto	_SetWylacz
  1276  005D3E  0101               	movlb	(_M+24) shr (0+8)
  1277  005D40  B318               	btfsc	(_M+24)& (0+255),1,b
  1278  005D42  D011               	goto	_SetWylacz	;wreg free
  1279                           ;main.c: 515: else
  1280  005D44  0101               	movlb	(_M+2) shr (0+8)
  1281  005D46  5102               	movf	(_M+2)& (0+255),w,b
  1282  005D48  1103               	iorwf	(_M+3)& (0+255),w,b
  1283  005D4A  E004               	bz	l124
  1284                           ;main.c: 517: {
  1285  005D4C  0101               	movlb	_DtCW shr (0+8)
  1286  005D4E  B54C               	btfsc	_DtCW& (0+255),2,b
  1287  005D50  D80A               	call	_SetWylacz	;wreg free
  1288                           ;main.c: 519: }
  1289  005D52  0012               	return	
  1290  005D54                     l124:
  1291                           ;main.c: 520: else
  1292  005D54  0101               	movlb	(_M+8) shr (0+8)
  1293  005D56  5108               	movf	(_M+8)& (0+255),w,b
  1294  005D58  1109               	iorwf	(_M+9)& (0+255),w,b
  1295  005D5A  B4D8               	btfsc	status,2,c
  1296  005D5C  0012               	return	
  1297                           ;main.c: 522: {
  1298  005D5E  0101               	movlb	_DtCW shr (0+8)
  1299  005D60  B54C               	btfsc	_DtCW& (0+255),2,b
  1300  005D62  D801               	call	_SetWylacz	;wreg free
  1301                           ;main.c: 524: }
  1302  005D64  0012               	return	
  1303  005D66                     __end_of_DecWylacz:
  1304                           ;main.c: 528: void SetWylacz(void)
  1305                           ;main.c: 529: {
  1306  005D66                     _SetWylacz:
  1307  000000                     
  1308                           ;main.c: 530: GrzejOFF();
  1309  005D66  D897               	call	_GrzejOFF	;wreg free
  1310                           ;main.c: 531: if(M._TURBO&&RD3) M._VWYBIEG=1;
  1311  005D68  0101               	movlb	(_M+25) shr (0+8)
  1312  005D6A  B119               	btfsc	(_M+25)& (0+255),0,b
  1313  005D6C  A683               	btfss	3971,3,c	;volatile
  1314  005D6E  D002               	goto	l130
  1315  005D70  0101               	movlb	(_M+16) shr (0+8)
  1316  005D72  8B10               	bsf	(_M+16)& (0+255),5,b
  1317  005D74                     l130:
  1318                           ;main.c: 532: M.ROZ=0;
  1319  005D74  0101               	movlb	(_M+31) shr (0+8)
  1320  005D76  6B1F               	clrf	(_M+31)& (0+255),b
  1321                           ;main.c: 533: M.MNM=0;
  1322  005D78  6B27               	clrf	(_M+39)& (0+255),b
  1323                           ;main.c: 534: M._ROZRUCH=0;
  1324  005D7A  9510               	bcf	(_M+16)& (0+255),2,b
  1325                           ;main.c: 535: M._RUN_MNMOD=0;
  1326  005D7C  9719               	bcf	(_M+25)& (0+255),3,b
  1327                           ;main.c: 536: M._AKTYWNE_SRW=0;
  1328  005D7E  EE01  F012         	lfsr	0,_M+18
  1329  005D82  6AEE               	clrf	postinc0,c
  1330  005D84  6AEE               	clrf	postinc0,c
  1331                           ;main.c: 537: }
  1332  005D86  0012               	return	
  1333  005D88                     __end_of_SetWylacz:
  1334                           ;main.c: 540: void FunkcjaSerwisowa(void)
  1335                           ;main.c: 541: {
  1336  005D88                     _FunkcjaSerwisowa:
  1337  000000                     
  1338                           ;main.c: 543: if(M._AKTYWNE_KNF||!M._PRACA)
  1339  005D88  0101               	movlb	(_M+22) shr (0+8)
  1340  005D8A  5116               	movf	(_M+22)& (0+255),w,b
  1341  005D8C  1117               	iorwf	(_M+23)& (0+255),w,b
  1342  005D8E  E102               	bnz	u1530
  1343  005D90  B319               	btfsc	(_M+25)& (0+255),1,b
  1344  005D92  D007               	goto	l132
  1345  005D94                     u1530:
  1346                           ;main.c: 544: {
  1347  005D94  0101               	movlb	(_M+42) shr (0+8)
  1348  005D96  6B2A               	clrf	(_M+42)& (0+255),b
  1349                           ;main.c: 546: M._AKTYWNE_SRW=0;
  1350  005D98  EE01  F012         	lfsr	0,_M+18
  1351  005D9C  6AEE               	clrf	postinc0,c
  1352  005D9E  6AEE               	clrf	postinc0,c
  1353                           ;main.c: 547: return;
  1354  005DA0  0012               	return	
  1355  005DA2                     l132:
  1356                           ;main.c: 548: }
  1357  005DA2  0101               	movlb	(_M+18) shr (0+8)
  1358  005DA4  5112               	movf	(_M+18)& (0+255),w,b
  1359  005DA6  1113               	iorwf	(_M+19)& (0+255),w,b
  1360  005DA8  E060               	bz	l135
  1361  005DAA  0E00               	movlw	0
  1362  005DAC  EC47  F041         	call	_RdPrt
  1363  005DB0  E35C               	bnc	l135
  1364  005DB2  0E03               	movlw	3
  1365  005DB4  CFE8 F12A          	movff	wreg,_M+42
  1366                           ;main.c: 550: switch(M.SRV)
  1367  005DB8  D058               	goto	l135
  1368  005DBA                     l136:
  1369                           ;main.c: 551: {
  1370                           ;main.c: 553: {
  1371  005DBA  0E01               	movlw	1
  1372  005DBC  EC47  F041         	call	_RdPrt
  1373  005DC0  A0D8               	btfss	status,0,c
  1374  005DC2  0012               	return	
  1375  005DC4  C14F  FFE8         	movff	_DtCW+3,wreg
  1376  005DC8  0A3C               	xorlw	60
  1377  005DCA  A4D8               	btfss	status,2,c
  1378  005DCC  0012               	return	
  1379                           ;main.c: 555: {
  1380  005DCE  0E01               	movlw	1
  1381  005DD0  CFE8 F12A          	movff	wreg,_M+42
  1382                           ;main.c: 557: StartRTS(8);
  1383  005DD4  0E08               	movlw	8
  1384  005DD6  EF34  F045         	goto	_StartRTS
  1385                           ;main.c: 558: }
  1386  005DDA                     l138:
  1387                           ;main.c: 560: }
  1388                           ;main.c: 562: {
  1389  005DDA  0E01               	movlw	1
  1390  005DDC  EC47  F041         	call	_RdPrt
  1391  005DE0  E319               	bnc	l139
  1392  005DE2  C14F  FFE8         	movff	_DtCW+3,wreg
  1393  005DE6  0A3C               	xorlw	60
  1394  005DE8  E115               	bnz	l139
  1395                           ;main.c: 564: {
  1396  005DEA  0E08               	movlw	8
  1397  005DEC  EC46  F045         	call	_RTS
  1398  005DF0  6E00               	movwf	btemp,c
  1399  005DF2  0E05               	movlw	5
  1400  005DF4  5C00               	subwf	btemp,w,c
  1401  005DF6  A0D8               	btfss	status,0,c
  1402  005DF8  0012               	return	
  1403                           ;main.c: 566: M.SRV=2;
  1404  005DFA  0E02               	movlw	2
  1405  005DFC  CFE8 F12A          	movff	wreg,_M+42
  1406                           ;main.c: 567: M._AKTYWNE_SRW=1;
  1407  005E00  0101               	movlb	(_M+18) shr (0+8)
  1408  005E02  0E01               	movlw	1
  1409  005E04  6F12               	movwf	(_M+18)& (0+255),b
  1410  005E06  6B13               	clrf	(_M+19)& (0+255),b
  1411                           ;main.c: 568: StartRTM(1);
  1412  005E08  EC52  F045         	call	_StartRTM
  1413                           ;main.c: 569: StartRTS(8);
  1414  005E0C  0E08               	movlw	8
  1415  005E0E  EC34  F045         	call	_StartRTS
  1416  005E12  D5FD               	goto	L14
  1417                           ;main.c: 570: PrintNstCW(DtCW.PCW,1);
  1418                           ;main.c: 571: }
  1419  005E14                     l139:
  1420                           ;main.c: 572: else
  1421  005E14  0101               	movlb	(_M+42) shr (0+8)
  1422  005E16  6B2A               	clrf	(_M+42)& (0+255),b
  1423                           ;main.c: 575: }
  1424  005E18  0012               	return	
  1425  005E1A                     l142:
  1426                           ;main.c: 577: }
  1427                           ;main.c: 579: {
  1428  005E1A  0E01               	movlw	1
  1429  005E1C  EC64  F045         	call	_RTM
  1430  005E20  6E00               	movwf	btemp,c
  1431  005E22  0E0F               	movlw	15
  1432  005E24  5C00               	subwf	btemp,w,c
  1433  005E26  E20E               	bc	l143
  1434                           ;main.c: 581: {
  1435  005E28  0E08               	movlw	8
  1436  005E2A  EC46  F045         	call	_RTS
  1437  005E2E  6E00               	movwf	btemp,c
  1438  005E30  0E05               	movlw	5
  1439  005E32  5C00               	subwf	btemp,w,c
  1440  005E34  A0D8               	btfss	status,0,c
  1441  005E36  0012               	return	
  1442  005E38  0E01               	movlw	1
  1443  005E3A  EC47  F041         	call	_RdPrt
  1444  005E3E  A0D8               	btfss	status,0,c
  1445  005E40  0012               	return	
  1446  005E42  D5E5               	goto	L14
  1447                           ;main.c: 583: return;
  1448  005E44                     l143:
  1449                           ;main.c: 585: else
  1450  005E44  0101               	movlb	(_M+42) shr (0+8)
  1451  005E46  6B2A               	clrf	(_M+42)& (0+255),b
  1452                           ;main.c: 588: M._AKTYWNE_SRW=0;
  1453  005E48  EE01  F012         	lfsr	0,_M+18
  1454  005E4C  6AEE               	clrf	postinc0,c
  1455  005E4E  6AEE               	clrf	postinc0,c
  1456                           ;main.c: 589: }
  1457  005E50  0012               	return	
  1458  005E52                     l146:
  1459                           ;main.c: 591: }
  1460                           ;main.c: 593: {
  1461  005E52  0E00               	movlw	0
  1462  005E54  EC47  F041         	call	_RdPrt
  1463  005E58  B0D8               	btfsc	status,0,c
  1464  005E5A  0012               	return	
  1465                           ;main.c: 595: {
  1466  005E5C  0101               	movlb	(_M+42) shr (0+8)
  1467  005E5E  6B2A               	clrf	(_M+42)& (0+255),b
  1468                           ;main.c: 597: M._AKTYWNE_SRW=0;
  1469  005E60  EE01  F012         	lfsr	0,_M+18
  1470  005E64  6AEE               	clrf	postinc0,c
  1471  005E66  6AEE               	clrf	postinc0,c
  1472                           ;main.c: 598: }
  1473  005E68  0012               	return	
  1474  005E6A                     l135:
  1475  005E6A  C12A  FFE8         	movff	_M+42,wreg
  1476  005E6E  0A00               	xorlw	0
  1477  005E70  E0A4               	bz	l136
  1478  005E72  0A01               	xorlw	1
  1479  005E74  E0B2               	bz	l138
  1480  005E76  0A03               	xorlw	3
  1481  005E78  E0D0               	bz	l142
  1482  005E7A  0A01               	xorlw	1
  1483  005E7C  E0EA               	bz	l146
  1484  005E7E  0012               	return	
  1485                           ;main.c: 602: }
  1486  005E80                     __end_of_FunkcjaSerwisowa:
  1487                           ;main.c: 606: void GrzejON(void)
  1488                           ;main.c: 607: {
  1489  005E80                     _GrzejON:
  1490  000000                     
  1491                           ;main.c: 608: RD0=1;
  1492  005E80  8083               	bsf	3971,0,c	;volatile
  1493                           ;main.c: 609: asm("nop");
  1494  005E82  F000               	nop		;#
  1495                           ;main.c: 610: asm("nop");
  1496  005E84  F000               	nop		;#
  1497                           ;main.c: 611: asm("nop");
  1498  005E86  F000               	nop		;#
  1499                           ;main.c: 612: asm("nop");
  1500  005E88  F000               	nop		;#
  1501                           ;main.c: 613: asm("nop");
  1502  005E8A  F000               	nop		;#
  1503                           ;main.c: 614: asm("nop");
  1504  005E8C  F000               	nop		;#
  1505                           ;main.c: 615: asm("nop");
  1506  005E8E  F000               	nop		;#
  1507                           ;main.c: 616: asm("nop");
  1508  005E90  F000               	nop		;#
  1509                           ;main.c: 617: RD3=1;
  1510  005E92  8683               	bsf	3971,3,c	;volatile
  1511                           ;main.c: 618: }
  1512  005E94  0012               	return	
  1513  005E96                     __end_of_GrzejON:
  1514                           ;main.c: 622: void GrzejOFF(void)
  1515                           ;main.c: 623: {
  1516  005E96                     _GrzejOFF:
  1517  000000                     
  1518                           ;main.c: 624: if(!M._TURBO)
  1519  005E96  0101               	movlb	(_M+25) shr (0+8)
  1520  005E98  B119               	btfsc	(_M+25)& (0+255),0,b
  1521  005E9A  D00B               	goto	l150
  1522                           ;main.c: 625: {
  1523  005E9C  9683               	bcf	3971,3,c	;volatile
  1524                           ;main.c: 627: asm("nop");
  1525  005E9E  F000               	nop		;#
  1526                           ;main.c: 628: asm("nop");
  1527  005EA0  F000               	nop		;#
  1528                           ;main.c: 629: asm("nop");
  1529  005EA2  F000               	nop		;#
  1530                           ;main.c: 630: asm("nop");
  1531  005EA4  F000               	nop		;#
  1532                           ;main.c: 631: asm("nop");
  1533  005EA6  F000               	nop		;#
  1534                           ;main.c: 632: asm("nop");
  1535  005EA8  F000               	nop		;#
  1536                           ;main.c: 633: asm("nop");
  1537  005EAA  F000               	nop		;#
  1538                           ;main.c: 634: asm("nop");
  1539  005EAC  F000               	nop		;#
  1540                           ;main.c: 635: RD0=0;
  1541  005EAE  9083               	bcf	3971,0,c	;volatile
  1542                           ;main.c: 636: }
  1543  005EB0  0012               	return	
  1544  005EB2                     l150:
  1545                           ;main.c: 637: else
  1546  005EB2  9083               	bcf	3971,0,c	;volatile
  1547                           ;main.c: 640: }
  1548  005EB4  0012               	return	
  1549  005EB6                     __end_of_GrzejOFF:
  1550                           ;main.c: 645: void Rozruch(void)
  1551                           ;main.c: 646: {
  1552  005EB6                     _Rozruch:
  1553  000000                     
  1554                           ;main.c: 647: switch(M.ROZ)
  1555  005EB6  D0CA               	goto	l154
  1556  005EB8                     l155:
  1557                           ;main.c: 648: {
  1558                           ;main.c: 650: {
  1559  005EB8  0101               	movlb	(_M+17) shr (0+8)
  1560  005EBA  9B11               	bcf	(_M+17)& (0+255),5,b
  1561                           ;main.c: 652: WritePWM(PWM.MDMOD);
  1562  005EBC  C061  FFE8         	movff	_PWM+5,wreg
  1563  005EC0  EC8E  F03E         	call	_WritePWM
  1564                           ;main.c: 653: M.ROZ=1;
  1565  005EC4  0E01               	movlw	1
  1566  005EC6  CFE8 F11F          	movff	wreg,_M+31
  1567                           ;main.c: 654: StartRTS(2);
  1568  005ECA  0E02               	movlw	2
  1569  005ECC  EC34  F045         	call	_StartRTS
  1570  005ED0                     l156:
  1571                           ;main.c: 655: }
  1572                           ;main.c: 658: {
  1573  005ED0  0101               	movlb	(_M+25) shr (0+8)
  1574  005ED2  A119               	btfss	(_M+25)& (0+255),0,b
  1575  005ED4  D013               	goto	l157
  1576                           ;main.c: 660: {
  1577  005ED6  0E03               	movlw	3
  1578  005ED8  EC47  F041         	call	_RdPrt
  1579  005EDC  B0D8               	btfsc	status,0,c
  1580  005EDE  B683               	btfsc	3971,3,c	;volatile
  1581  005EE0  D00C               	goto	l158
  1582                           ;main.c: 662: {
  1583  005EE2  0E02               	movlw	2
  1584  005EE4  EC46  F045         	call	_RTS
  1585  005EE8  6E00               	movwf	btemp,c
  1586  005EEA  0E05               	movlw	5
  1587  005EEC  5C00               	subwf	btemp,w,c
  1588  005EEE  A0D8               	btfss	status,0,c
  1589  005EF0  0012               	return	
  1590                           ;main.c: 664: M.RCI=0;
  1591  005EF2  0101               	movlb	(_M+38) shr (0+8)
  1592  005EF4  6B26               	clrf	(_M+38)& (0+255),b
  1593                           ;main.c: 665: M._RUSZ_CIAG=1;
  1594  005EF6  8D10               	bsf	(_M+16)& (0+255),6,b
  1595                           ;main.c: 666: return;
  1596  005EF8  0012               	return	
  1597  005EFA                     l158:
  1598                           ;main.c: 667: }
  1599  005EFA  8683               	bsf	3971,3,c	;volatile
  1600  005EFC                     l157:
  1601                           ;main.c: 669: }
  1602  005EFC  0E02               	movlw	2
  1603  005EFE  CFE8 F11F          	movff	wreg,_M+31
  1604                           ;main.c: 671: StartRTS(2);
  1605  005F02  EC34  F045         	call	_StartRTS
  1606  005F06                     l160:
  1607                           ;main.c: 672: }
  1608                           ;main.c: 675: {
  1609  005F06  0101               	movlb	(_M+25) shr (0+8)
  1610  005F08  A119               	btfss	(_M+25)& (0+255),0,b
  1611  005F0A  D012               	goto	l161
  1612                           ;main.c: 677: {
  1613  005F0C  0E09               	movlw	9
  1614  005F0E  EC47  F041         	call	_RdPrt
  1615  005F12  A0D8               	btfss	status,0,c
  1616  005F14  A683               	btfss	3971,3,c	;volatile
  1617  005F16  D00C               	goto	l161
  1618                           ;main.c: 679: {
  1619  005F18  0E02               	movlw	2
  1620  005F1A  EC46  F045         	call	_RTS
  1621  005F1E  6E00               	movwf	btemp,c
  1622  005F20  0E05               	movlw	5
  1623  005F22  5C00               	subwf	btemp,w,c
  1624  005F24  A0D8               	btfss	status,0,c
  1625  005F26  0012               	return	
  1626                           ;main.c: 681: M.RCI=0;
  1627  005F28  0101               	movlb	(_M+38) shr (0+8)
  1628  005F2A  6B26               	clrf	(_M+38)& (0+255),b
  1629                           ;main.c: 682: M._RUSZ_CIAG=1;
  1630  005F2C  8D10               	bsf	(_M+16)& (0+255),6,b
  1631                           ;main.c: 683: return;
  1632  005F2E  0012               	return	
  1633  005F30                     l161:
  1634                           ;main.c: 684: }
  1635  005F30  0E03               	movlw	3
  1636  005F32  CFE8 F11F          	movff	wreg,_M+31
  1637                           ;main.c: 687: StartRTS(2);
  1638  005F36  0E02               	movlw	2
  1639  005F38  EC34  F045         	call	_StartRTS
  1640  005F3C                     l164:
  1641                           ;main.c: 688: }
  1642                           ;main.c: 691: {
  1643  005F3C  0101               	movlb	(_M+25) shr (0+8)
  1644  005F3E  A119               	btfss	(_M+25)& (0+255),0,b
  1645  005F40  D008               	goto	l165
  1646  005F42  0E09               	movlw	9
  1647  005F44  EC47  F041         	call	_RdPrt
  1648  005F48  E204               	bc	l165
  1649                           ;main.c: 693: {
  1650  005F4A  0101               	movlb	(_M+38) shr (0+8)
  1651  005F4C  6B26               	clrf	(_M+38)& (0+255),b
  1652                           ;main.c: 695: M._RUSZ_CIAG=1;
  1653  005F4E  8D10               	bsf	(_M+16)& (0+255),6,b
  1654                           ;main.c: 696: return;
  1655  005F50  0012               	return	
  1656  005F52                     l165:
  1657                           ;main.c: 697: }
  1658  005F52  0E05               	movlw	5
  1659  005F54  EC47  F041         	call	_RdPrt
  1660  005F58  B0D8               	btfsc	status,0,c
  1661  005F5A  B083               	btfsc	3971,0,c	;volatile
  1662  005F5C  D012               	goto	l166
  1663                           ;main.c: 699: {
  1664  005F5E  0E02               	movlw	2
  1665  005F60  EC46  F045         	call	_RTS
  1666  005F64  6E00               	movwf	btemp,c
  1667  005F66  0E05               	movlw	5
  1668  005F68  5C00               	subwf	btemp,w,c
  1669  005F6A  A0D8               	btfss	status,0,c
  1670  005F6C  0012               	return	
  1671                           ;main.c: 701: M.ERR_BTY=0x06;
  1672  005F6E  0E06               	movlw	6
  1673  005F70  CFE8 F11E          	movff	wreg,_M+30
  1674                           ;main.c: 702: PrintErr(0xE6,1);
  1675  005F74  0E01               	movlw	1
  1676  005F76  0100               	movlb	__Lparam shr (0+8)
  1677  005F78  6FF1               	movwf	?_PrintErr^(__Lparam& (0+65280)),b
  1678  005F7A  0EE6               	movlw	230
  1679  005F7C  ECA1  F041         	call	_PrintErr
  1680                           ;main.c: 703: ErrPTG();
  1681  005F80  DACF               	call	_ErrPTG	;wreg free
  1682  005F82                     l166:
  1683                           ;main.c: 704: }
  1684  005F82  0100               	movlb	__Lparam shr (0+8)
  1685  005F84  6BF0               	clrf	?_PrintNstCW^(__Lparam& (0+65280)),b
  1686  005F86  C14F  FFE8         	movff	_DtCW+3,wreg
  1687  005F8A  EC73  F042         	call	_PrintNstCW
  1688                           ;main.c: 706: GrzejON();
  1689  005F8E  DF78               	call	_GrzejON	;wreg free
  1690                           ;main.c: 707: M.ROZ=4;
  1691  005F90  0E04               	movlw	4
  1692  005F92  CFE8 F11F          	movff	wreg,_M+31
  1693                           ;main.c: 708: StartRTS(2);
  1694  005F96  0E02               	movlw	2
  1695  005F98  EC34  F045         	call	_StartRTS
  1696  005F9C                     l168:
  1697                           ;main.c: 709: }
  1698                           ;main.c: 712: {
  1699  005F9C  0101               	movlb	(_M+25) shr (0+8)
  1700  005F9E  A119               	btfss	(_M+25)& (0+255),0,b
  1701  005FA0  D008               	goto	l169
  1702  005FA2  0E09               	movlw	9
  1703  005FA4  EC47  F041         	call	_RdPrt
  1704  005FA8  E204               	bc	l169
  1705                           ;main.c: 714: {
  1706  005FAA  0101               	movlb	(_M+38) shr (0+8)
  1707  005FAC  6B26               	clrf	(_M+38)& (0+255),b
  1708                           ;main.c: 716: M._RUSZ_CIAG=1;
  1709  005FAE  8D10               	bsf	(_M+16)& (0+255),6,b
  1710                           ;main.c: 717: return;
  1711  005FB0  0012               	return	
  1712  005FB2                     l169:
  1713                           ;main.c: 718: }
  1714  005FB2  0E08               	movlw	8
  1715  005FB4  EC47  F041         	call	_RdPrt
  1716  005FB8  E305               	bnc	l170
  1717  005FBA  C074  FFE8         	movff	_PWM+24,wreg
  1718  005FBE  EC8E  F03E         	call	_WritePWM
  1719  005FC2  D004               	goto	l171
  1720  005FC4                     l170:
  1721                           ;main.c: 720: else WritePWM(PWM.MDMOD);
  1722  005FC4  C061  FFE8         	movff	_PWM+5,wreg
  1723  005FC8  EC8E  F03E         	call	_WritePWM
  1724  005FCC                     l171:
  1725                           ;main.c: 722: if(RTS(2)<2) return;
  1726  005FCC  0E02               	movlw	2
  1727  005FCE  EC46  F045         	call	_RTS
  1728  005FD2  6E00               	movwf	btemp,c
  1729  005FD4  0E02               	movlw	2
  1730  005FD6  5C00               	subwf	btemp,w,c
  1731  005FD8  A0D8               	btfss	status,0,c
  1732  005FDA  0012               	return	
  1733                           ;main.c: 724: if(RTS(2)<7)
  1734  005FDC  0E02               	movlw	2
  1735  005FDE  EC46  F045         	call	_RTS
  1736  005FE2  6E00               	movwf	btemp,c
  1737  005FE4  0E07               	movlw	7
  1738  005FE6  5C00               	subwf	btemp,w,c
  1739  005FE8  E20B               	bc	l173
  1740                           ;main.c: 725: {
  1741  005FEA  0E05               	movlw	5
  1742  005FEC  EC47  F041         	call	_RdPrt
  1743  005FF0  A0D8               	btfss	status,0,c
  1744  005FF2  0012               	return	
  1745                           ;main.c: 727: {
  1746  005FF4  0E05               	movlw	5
  1747  005FF6  CFE8 F11F          	movff	wreg,_M+31
  1748                           ;main.c: 729: StartRTS(2);
  1749  005FFA  0E02               	movlw	2
  1750  005FFC  EF34  F045         	goto	_StartRTS
  1751                           ;main.c: 730: }
  1752  006000                     l173:
  1753                           ;main.c: 733: else
  1754  006000  D038               	goto	_DecyzjaPLM	;wreg free
  1755                           ;main.c: 736: return;
  1756  006002                     l176:
  1757                           ;main.c: 737: }
  1758                           ;main.c: 741: {
  1759  006002  0101               	movlb	(_M+25) shr (0+8)
  1760  006004  A119               	btfss	(_M+25)& (0+255),0,b
  1761  006006  D008               	goto	l177
  1762  006008  0E09               	movlw	9
  1763  00600A  EC47  F041         	call	_RdPrt
  1764  00600E  E204               	bc	l177
  1765                           ;main.c: 750: {
  1766  006010  0101               	movlb	(_M+38) shr (0+8)
  1767  006012  6B26               	clrf	(_M+38)& (0+255),b
  1768                           ;main.c: 752: M._RUSZ_CIAG=1;
  1769  006014  8D10               	bsf	(_M+16)& (0+255),6,b
  1770                           ;main.c: 753: return;
  1771  006016  0012               	return	
  1772  006018                     l177:
  1773                           ;main.c: 754: }
  1774  006018  0E05               	movlw	5
  1775  00601A  EC47  F041         	call	_RdPrt
  1776  00601E  A0D8               	btfss	status,0,c
  1777                           ;main.c: 756: {
  1778  006020  D83E               	call	_DecyzjaPLM2	;wreg free
  1779                           ;main.c: 759: }
  1780  006022  0101               	movlb	(_M+22) shr (0+8)
  1781  006024  5116               	movf	(_M+22)& (0+255),w,b
  1782  006026  1117               	iorwf	(_M+23)& (0+255),w,b
  1783  006028  E104               	bnz	l179
  1784                           ;main.c: 761: {
  1785  00602A  EC7F  F011         	call	_FirstPCW4	;wreg free
  1786  00602E  EC8E  F03E         	call	_WritePWM
  1787  006032                     l179:
  1788                           ;main.c: 763: }
  1789  006032  0E02               	movlw	2
  1790  006034  EC46  F045         	call	_RTS
  1791  006038  6E00               	movwf	btemp,c
  1792  00603A  0E02               	movlw	2
  1793  00603C  5C00               	subwf	btemp,w,c
  1794  00603E  A0D8               	btfss	status,0,c
  1795  006040  0012               	return	
  1796                           ;main.c: 765: M._ZAPLON=1;
  1797  006042  0101               	movlb	(_M+17) shr (0+8)
  1798  006044  8B11               	bsf	(_M+17)& (0+255),5,b
  1799                           ;main.c: 766: M._ROZRUCH=0;
  1800  006046  9510               	bcf	(_M+16)& (0+255),2,b
  1801                           ;main.c: 767: M.ROZ=0;
  1802  006048  6B1F               	clrf	(_M+31)& (0+255),b
  1803                           ;main.c: 768: }
  1804  00604A  0012               	return	
  1805  00604C                     l154:
  1806  00604C  C11F  FFE8         	movff	_M+31,wreg
  1807  006050  0A00               	xorlw	0
  1808  006052  E101 D731          	bz	l155
  1809  006056  0A01               	xorlw	1
  1810  006058  E101 D73A          	bz	l156
  1811  00605C  0A03               	xorlw	3
  1812  00605E  E101 D752          	bz	l160
  1813  006062  0A01               	xorlw	1
  1814  006064  E101 D76A          	bz	l164
  1815  006068  0A07               	xorlw	7
  1816  00606A  E098               	bz	l168
  1817  00606C  0A01               	xorlw	1
  1818  00606E  E0C9               	bz	l176
  1819  006070  0012               	return	
  1820                           ;main.c: 770: }
  1821  006072                     __end_of_Rozruch:
  1822                           ;main.c: 771: void DecyzjaPLM(void)
  1823                           ;main.c: 772: {
  1824  006072                     _DecyzjaPLM:
  1825  000000                     
  1826                           ;main.c: 773: if(M._OST_PL)
  1827  006072  0101               	movlb	(_M+25) shr (0+8)
  1828  006074  A519               	btfss	(_M+25)& (0+255),2,b
  1829  006076  D009               	goto	l182
  1830                           ;main.c: 774: {
  1831  006078  0E01               	movlw	1
  1832  00607A  CFE8 F11E          	movff	wreg,_M+30
  1833                           ;main.c: 776: PrintErr(0xE1,1);
  1834  00607E  0100               	movlb	__Lparam shr (0+8)
  1835  006080  6FF1               	movwf	?_PrintErr^(__Lparam& (0+65280)),b
  1836  006082  0EE1               	movlw	225
  1837  006084  ECA1  F041         	call	_PrintErr
  1838                           ;main.c: 777: ErrPTG();
  1839  006088  D24B               	goto	_ErrPTG	;wreg free
  1840                           ;main.c: 778: }
  1841  00608A                     l182:
  1842                           ;main.c: 779: else
  1843  00608A  0101               	movlb	(_M+16) shr (0+8)
  1844  00608C  8F10               	bsf	(_M+16)& (0+255),7,b
  1845                           ;main.c: 782: if(!M.LICZNIK_PL) M._RUSZ_RPLM=1;
  1846  00608E  EE01  F01A         	lfsr	0,_M+26
  1847  006092  50EF               	movf	indf0,w,c
  1848  006094  B4D8               	btfsc	status,2,c
  1849  006096  8111               	bsf	(_M+17)& (0+255),0,b
  1850                           ;main.c: 783: M._ROZRUCH=0;
  1851  006098  9510               	bcf	(_M+16)& (0+255),2,b
  1852                           ;main.c: 784: M.ROZ=0;
  1853  00609A  6B1F               	clrf	(_M+31)& (0+255),b
  1854                           ;main.c: 785: }
  1855  00609C  0012               	return	
  1856  00609E                     __end_of_DecyzjaPLM:
  1857                           ;main.c: 787: void DecyzjaPLM2(void)
  1858                           ;main.c: 788: {
  1859  00609E                     _DecyzjaPLM2:
  1860  000000                     
  1861                           ;main.c: 789: if(M._TURBO)
  1862  00609E  0101               	movlb	(_M+25) shr (0+8)
  1863  0060A0  A119               	btfss	(_M+25)& (0+255),0,b
  1864  0060A2  D038               	goto	l186
  1865                           ;main.c: 790: {
  1866  0060A4  A683               	btfss	3971,3,c	;volatile
  1867  0060A6  D01A               	goto	l187
  1868                           ;main.c: 792: {
  1869  0060A8  BC80               	btfsc	3968,6,c	;volatile
  1870  0060AA  AE80               	btfss	3968,7,c	;volatile
  1871  0060AC  0012               	return	
  1872                           ;main.c: 795: {
  1873  0060AE  0101               	movlb	(_M+25) shr (0+8)
  1874  0060B0  A519               	btfss	(_M+25)& (0+255),2,b
  1875  0060B2  D008               	goto	l189
  1876                           ;main.c: 797: {
  1877  0060B4  0E01               	movlw	1
  1878  0060B6  CFE8 F11E          	movff	wreg,_M+30
  1879                           ;main.c: 799: PrintErr(0x01,1);
  1880  0060BA  0100               	movlb	__Lparam shr (0+8)
  1881  0060BC  6FF1               	movwf	?_PrintErr^(__Lparam& (0+65280)),b
  1882  0060BE  ECA1  F041         	call	_PrintErr
  1883                           ;main.c: 800: ErrPTG();
  1884  0060C2  D22E               	goto	_ErrPTG	;wreg free
  1885                           ;main.c: 801: }
  1886  0060C4                     l189:
  1887                           ;main.c: 802: else
  1888  0060C4  0101               	movlb	(_M+37) shr (0+8)
  1889  0060C6  6B25               	clrf	(_M+37)& (0+255),b
  1890                           ;main.c: 805: M._RUSZ_PLOMIEN=1;
  1891  0060C8  8F10               	bsf	(_M+16)& (0+255),7,b
  1892                           ;main.c: 806: if(!M.LICZNIK_PL) M._RUSZ_RPLM=1;
  1893  0060CA  EE01  F01A         	lfsr	0,_M+26
  1894  0060CE  50EF               	movf	indf0,w,c
  1895  0060D0  B4D8               	btfsc	status,2,c
  1896  0060D2  8111               	bsf	(_M+17)& (0+255),0,b
  1897                           ;main.c: 807: M._ROZRUCH=0;
  1898  0060D4  0101               	movlb	(_M+16) shr (0+8)
  1899  0060D6  9510               	bcf	(_M+16)& (0+255),2,b
  1900                           ;main.c: 808: M.ROZ=0;
  1901  0060D8  6B1F               	clrf	(_M+31)& (0+255),b
  1902                           ;main.c: 809: }
  1903  0060DA  0012               	return	
  1904  0060DC                     l187:
  1905                           ;main.c: 812: else
  1906  0060DC  0E04               	movlw	4
  1907  0060DE  EC47  F041         	call	_RdPrt
  1908  0060E2  A0D8               	btfss	status,0,c
  1909  0060E4  0012               	return	
  1910                           ;main.c: 815: {
  1911  0060E6  0101               	movlb	(_M+25) shr (0+8)
  1912  0060E8  A519               	btfss	(_M+25)& (0+255),2,b
  1913  0060EA  D008               	goto	l194
  1914                           ;main.c: 817: {
  1915  0060EC  0E01               	movlw	1
  1916  0060EE  CFE8 F11E          	movff	wreg,_M+30
  1917                           ;main.c: 819: PrintErr(0x01,1);
  1918  0060F2  0100               	movlb	__Lparam shr (0+8)
  1919  0060F4  6FF1               	movwf	?_PrintErr^(__Lparam& (0+65280)),b
  1920  0060F6  ECA1  F041         	call	_PrintErr
  1921                           ;main.c: 820: ErrPTG();
  1922  0060FA  D212               	goto	_ErrPTG	;wreg free
  1923                           ;main.c: 821: }
  1924  0060FC                     l194:
  1925                           ;main.c: 822: else
  1926  0060FC  0101               	movlb	(_M+37) shr (0+8)
  1927  0060FE  6B25               	clrf	(_M+37)& (0+255),b
  1928                           ;main.c: 825: M._RUSZ_PLOMIEN=1;
  1929  006100  8F10               	bsf	(_M+16)& (0+255),7,b
  1930                           ;main.c: 826: if(!M.LICZNIK_PL) M._RUSZ_RPLM=1;
  1931  006102  EE01  F01A         	lfsr	0,_M+26
  1932  006106  50EF               	movf	indf0,w,c
  1933  006108  B4D8               	btfsc	status,2,c
  1934  00610A  8111               	bsf	(_M+17)& (0+255),0,b
  1935                           ;main.c: 827: M._ROZRUCH=0;
  1936  00610C  0101               	movlb	(_M+16) shr (0+8)
  1937  00610E  9510               	bcf	(_M+16)& (0+255),2,b
  1938                           ;main.c: 828: M.ROZ=0;
  1939  006110  6B1F               	clrf	(_M+31)& (0+255),b
  1940                           ;main.c: 829: }
  1941  006112  0012               	return	
  1942  006114                     l186:
  1943                           ;main.c: 833: else
  1944  006114  B082               	btfsc	3970,0,c	;volatile
  1945  006116  AE80               	btfss	3968,7,c	;volatile
  1946  006118  0012               	return	
  1947                           ;main.c: 837: {
  1948  00611A  0101               	movlb	(_M+25) shr (0+8)
  1949  00611C  A519               	btfss	(_M+25)& (0+255),2,b
  1950  00611E  D008               	goto	l199
  1951                           ;main.c: 839: {
  1952  006120  0E01               	movlw	1
  1953  006122  CFE8 F11E          	movff	wreg,_M+30
  1954                           ;main.c: 841: PrintErr(0x01,1);
  1955  006126  0100               	movlb	__Lparam shr (0+8)
  1956  006128  6FF1               	movwf	?_PrintErr^(__Lparam& (0+65280)),b
  1957  00612A  ECA1  F041         	call	_PrintErr
  1958                           ;main.c: 842: ErrPTG();
  1959  00612E  D1F8               	goto	_ErrPTG	;wreg free
  1960                           ;main.c: 843: }
  1961  006130                     l199:
  1962                           ;main.c: 844: else
  1963  006130  0101               	movlb	(_M+37) shr (0+8)
  1964  006132  6B25               	clrf	(_M+37)& (0+255),b
  1965                           ;main.c: 847: M._RUSZ_PLOMIEN=1;
  1966  006134  8F10               	bsf	(_M+16)& (0+255),7,b
  1967                           ;main.c: 848: if(!M.LICZNIK_PL) M._RUSZ_RPLM=1;
  1968  006136  EE01  F01A         	lfsr	0,_M+26
  1969  00613A  50EF               	movf	indf0,w,c
  1970  00613C  B4D8               	btfsc	status,2,c
  1971  00613E  8111               	bsf	(_M+17)& (0+255),0,b
  1972                           ;main.c: 849: M._ROZRUCH=0;
  1973  006140  0101               	movlb	(_M+16) shr (0+8)
  1974  006142  9510               	bcf	(_M+16)& (0+255),2,b
  1975                           ;main.c: 850: M.ROZ=0;
  1976  006144  6B1F               	clrf	(_M+31)& (0+255),b
  1977                           ;main.c: 851: }
  1978  006146  0012               	return	
  1979  006148                     __end_of_DecyzjaPLM2:
  1980                           ;main.c: 858: void VWybieg(void)
  1981                           ;main.c: 859: {
  1982  006148                     _VWybieg:
  1983  000000                     
  1984                           ;main.c: 860: switch(M.VWB)
  1985  006148  D046               	goto	l204
  1986  00614A                     l205:
  1987                           ;main.c: 861: {
  1988                           ;main.c: 863: {
  1989  00614A  0E01               	movlw	1
  1990  00614C  CFE8 F129          	movff	wreg,_M+41
  1991                           ;main.c: 865: M._DE_VNT=1;
  1992  006150  0101               	movlb	(_M+25) shr (0+8)
  1993  006152  8B19               	bsf	(_M+25)& (0+255),5,b
  1994                           ;main.c: 866: StartRTS(6);
  1995  006154  0E06               	movlw	6
  1996  006156  EC34  F045         	call	_StartRTS
  1997  00615A                     l206:
  1998                           ;main.c: 867: }
  1999                           ;main.c: 869: {
  2000  00615A  0E06               	movlw	6
  2001  00615C  EC46  F045         	call	_RTS
  2002  006160  6E00               	movwf	btemp,c
  2003  006162  0E02               	movlw	2
  2004  006164  5C00               	subwf	btemp,w,c
  2005  006166  E302               	bnc	l207
  2006  006168  0101               	movlb	(_M+25) shr (0+8)
  2007  00616A  9B19               	bcf	(_M+25)& (0+255),5,b
  2008  00616C                     l207:
  2009                           ;main.c: 871: if(M._ZAPLON||M._RUSZ_CIAG||M._RUS
      +                          Z_PLOMIEN)
  2010  00616C  0101               	movlb	(_M+17) shr (0+8)
  2011  00616E  AB11               	btfss	(_M+17)& (0+255),5,b
  2012  006170  BD10               	btfsc	(_M+16)& (0+255),6,b
  2013  006172  D003               	goto	u2210
  2014  006174  0101               	movlb	(_M+16) shr (0+8)
  2015  006176  AF10               	btfss	(_M+16)& (0+255),7,b
  2016  006178  D006               	goto	l208
  2017  00617A                     u2210:
  2018                           ;main.c: 872: {
  2019  00617A  0E06               	movlw	6
  2020  00617C  EC46  F045         	call	_RTS
  2021  006180  6E00               	movwf	btemp,c
  2022  006182  0E0F               	movlw	15
  2023  006184  D005               	goto	L8
  2024                           ;main.c: 874: }
  2025  006186                     l208:
  2026                           ;main.c: 875: else
  2027  006186  0E06               	movlw	6
  2028  006188  EC46  F045         	call	_RTS
  2029  00618C  6E00               	movwf	btemp,c
  2030  00618E  0E05               	movlw	5
  2031  006190                     L8:
  2032  006190  5C00               	subwf	btemp,w,c
  2033  006192  A0D8               	btfss	status,0,c
  2034  006194  0012               	return	
  2035                           ;main.c: 878: }
  2036  006196  9683               	bcf	3971,3,c	;volatile
  2037                           ;main.c: 880: M._DE_VNT=1;
  2038  006198  0101               	movlb	(_M+25) shr (0+8)
  2039  00619A  8B19               	bsf	(_M+25)& (0+255),5,b
  2040                           ;main.c: 881: M.VWB=2;
  2041  00619C  0E02               	movlw	2
  2042  00619E  CFE8 F129          	movff	wreg,_M+41
  2043  0061A2                     l212:
  2044                           ;main.c: 882: }
  2045                           ;main.c: 884: {
  2046  0061A2  0101               	movlb	(_M+17) shr (0+8)
  2047  0061A4  AB11               	btfss	(_M+17)& (0+255),5,b
  2048  0061A6  BD10               	btfsc	(_M+16)& (0+255),6,b
  2049  0061A8  D003               	goto	u2280
  2050  0061AA  0101               	movlb	(_M+16) shr (0+8)
  2051  0061AC  AF10               	btfss	(_M+16)& (0+255),7,b
  2052  0061AE  D006               	goto	l213
  2053  0061B0                     u2280:
  2054                           ;main.c: 886: {
  2055  0061B0  0E06               	movlw	6
  2056  0061B2  EC46  F045         	call	_RTS
  2057  0061B6  6E00               	movwf	btemp,c
  2058  0061B8  0E11               	movlw	17
  2059  0061BA  D005               	goto	L9
  2060                           ;main.c: 888: }
  2061  0061BC                     l213:
  2062                           ;main.c: 889: else
  2063  0061BC  0E06               	movlw	6
  2064  0061BE  EC46  F045         	call	_RTS
  2065  0061C2  6E00               	movwf	btemp,c
  2066  0061C4  0E07               	movlw	7
  2067  0061C6                     L9:
  2068  0061C6  5C00               	subwf	btemp,w,c
  2069  0061C8  A0D8               	btfss	status,0,c
  2070  0061CA  0012               	return	
  2071                           ;main.c: 892: }
  2072  0061CC  0101               	movlb	(_M+25) shr (0+8)
  2073  0061CE  9B19               	bcf	(_M+25)& (0+255),5,b
  2074                           ;main.c: 894: M._VWYBIEG=0;
  2075  0061D0  9B10               	bcf	(_M+16)& (0+255),5,b
  2076                           ;main.c: 895: M.VWB=0;
  2077  0061D2  6B29               	clrf	(_M+41)& (0+255),b
  2078                           ;main.c: 896: }
  2079  0061D4  0012               	return	
  2080  0061D6                     l204:
  2081  0061D6  C129  FFE8         	movff	_M+41,wreg
  2082  0061DA  0A00               	xorlw	0
  2083  0061DC  E0B6               	bz	l205
  2084  0061DE  0A01               	xorlw	1
  2085  0061E0  E0BC               	bz	l206
  2086  0061E2  0A03               	xorlw	3
  2087  0061E4  E0DE               	bz	l212
  2088  0061E6  0012               	return	
  2089                           ;main.c: 898: }
  2090  0061E8                     __end_of_VWybieg:
  2091                           ;main.c: 902: void RuszPlomien(void)
  2092                           ;main.c: 903: {
  2093  0061E8                     _RuszPlomien:
  2094  000000                     
  2095                           ;main.c: 904: switch(M.RPL)
  2096  0061E8  D029               	goto	l219
  2097  0061EA                     l220:
  2098                           ;main.c: 905: {
  2099                           ;main.c: 907: {
  2100  0061EA  0E01               	movlw	1
  2101  0061EC  CFE8 F125          	movff	wreg,_M+37
  2102                           ;main.c: 909: StartRTS(3);
  2103  0061F0  0E03               	movlw	3
  2104  0061F2  EC34  F045         	call	_StartRTS
  2105  0061F6                     l221:
  2106                           ;main.c: 910: }
  2107                           ;main.c: 912: {
  2108  0061F6  0E03               	movlw	3
  2109  0061F8  EC46  F045         	call	_RTS
  2110  0061FC  6E00               	movwf	btemp,c
  2111  0061FE  0E1E               	movlw	30
  2112  006200  5C00               	subwf	btemp,w,c
  2113  006202  A0D8               	btfss	status,0,c
  2114  006204  0012               	return	
  2115                           ;main.c: 914: M.LICZNIK_PL++;
  2116  006206  0101               	movlb	(_M+26) shr (0+8)
  2117  006208  2B1A               	incf	(_M+26)& (0+255),f,b
  2118                           ;main.c: 915: if(M._RUSZ_RPLM)
  2119  00620A  A111               	btfss	(_M+17)& (0+255),0,b
  2120  00620C  D005               	goto	l223
  2121                           ;main.c: 916: {
  2122  00620E  0100               	movlb	_PWM shr (0+8)
  2123  006210  A55C               	btfss	_PWM& (0+255),2,b
  2124  006212  D007               	goto	l229
  2125                           ;main.c: 918: {
  2126                           ;main.c: 920: {
  2127                           ;main.c: 922: M._RUSZ_RPLM=0;
  2128                           ;main.c: 923: }
  2129                           ;main.c: 925: else
  2130  006214  0E00               	movlw	0
  2131  006216  D006               	goto	L10
  2132                           ;main.c: 928: {
  2133                           ;main.c: 930: M._RUSZ_RPLM=0;
  2134                           ;main.c: 931: }
  2135  006218                     l223:
  2136                           ;main.c: 934: else
  2137  006218  0100               	movlb	_PWM shr (0+8)
  2138  00621A  B55C               	btfsc	_PWM& (0+255),2,b
  2139  00621C  D002               	goto	l229
  2140                           ;main.c: 937: {
  2141  00621E  0E02               	movlw	2
  2142  006220  D001               	goto	L10
  2143                           ;main.c: 939: {
  2144                           ;main.c: 941: M._RUSZ_RPLM=0;
  2145                           ;main.c: 942: }
  2146  006222                     l229:
  2147                           ;main.c: 944: else
  2148  006222  0E01               	movlw	1
  2149  006224                     L10:
  2150  006224  0101               	movlb	(_M+26) shr (0+8)
  2151  006226  651A               	cpfsgt	(_M+26)& (0+255),b
  2152  006228  D002               	goto	l228
  2153                           ;main.c: 947: {
  2154  00622A  8519               	bsf	(_M+25)& (0+255),2,b
  2155                           ;main.c: 949: M._RUSZ_RPLM=0;
  2156  00622C  9111               	bcf	(_M+17)& (0+255),0,b
  2157  00622E                     l228:
  2158                           ;main.c: 950: }
  2159  00622E  0E05               	movlw	5
  2160  006230  EC16  F045         	call	_StartRTdS
  2161                           ;main.c: 954: M._RUSZ_PLOMIEN=0;
  2162  006234  0101               	movlb	(_M+16) shr (0+8)
  2163  006236  9F10               	bcf	(_M+16)& (0+255),7,b
  2164                           ;main.c: 955: M.RPL=0;
  2165  006238  6B25               	clrf	(_M+37)& (0+255),b
  2166                           ;main.c: 956: }
  2167  00623A  0012               	return	
  2168  00623C                     l219:
  2169  00623C  C125  FFE8         	movff	_M+37,wreg
  2170  006240  0A00               	xorlw	0
  2171  006242  E0D3               	bz	l220
  2172  006244  0A01               	xorlw	1
  2173  006246  E0D7               	bz	l221
  2174  006248  0012               	return	
  2175                           ;main.c: 958: }
  2176  00624A                     __end_of_RuszPlomien:
  2177                           ;main.c: 960: void ReloadPlomien(void)
  2178                           ;main.c: 961: {
  2179  00624A                     _ReloadPlomien:
  2180  000000                     
  2181                           ;main.c: 962: if(!M._RUSZ_PLOMIEN&&!M._ZMKCOCW&&
      +                          !M._ROZRUCH&&(RTdS(5)>9))
  2182  00624A  0101               	movlb	(_M+16) shr (0+8)
  2183  00624C  AF10               	btfss	(_M+16)& (0+255),7,b
  2184  00624E  B310               	btfsc	(_M+16)& (0+255),1,b
  2185  006250  0012               	return	
  2186  006252  B510               	btfsc	(_M+16)& (0+255),2,b
  2187  006254  0012               	return	
  2188  006256  0E05               	movlw	5
  2189  006258  EC28  F045         	call	_RTdS
  2190  00625C  6E00               	movwf	btemp,c
  2191  00625E  0E0A               	movlw	10
  2192  006260  5C00               	subwf	btemp,w,c
  2193  006262  A0D8               	btfss	status,0,c
  2194  006264  0012               	return	
  2195                           ;main.c: 963: {
  2196  006266  0101               	movlb	(_M+17) shr (0+8)
  2197  006268  9111               	bcf	(_M+17)& (0+255),0,b
  2198                           ;main.c: 965: M._OST_PL=0;
  2199  00626A  9519               	bcf	(_M+25)& (0+255),2,b
  2200                           ;main.c: 966: M.LICZNIK_PL=0;
  2201  00626C  6B1A               	clrf	(_M+26)& (0+255),b
  2202                           ;main.c: 967: }
  2203  00626E  0012               	return	
  2204  006270                     __end_of_ReloadPlomien:
  2205                           ;main.c: 1072: void RuszCiag(void)
  2206                           ;main.c: 1073: {
  2207  006270                     _RuszCiag:
  2208  000000                     
  2209                           ;main.c: 1074: if(!M._TURBO)
  2210  006270  0101               	movlb	(_M+25) shr (0+8)
  2211  006272  A119               	btfss	(_M+25)& (0+255),0,b
  2212  006274  D034               	goto	l238
  2213  006276  D0B6               	goto	l246
  2214                           ;main.c: 1075: {
  2215  006278                     l239:
  2216                           ;main.c: 1077: {
  2217                           ;main.c: 1079: {
  2218  006278  0E01               	movlw	1
  2219  00627A  CFE8 F126          	movff	wreg,_M+38
  2220                           ;main.c: 1081: M._prb_CIG=0;
  2221  00627E  0101               	movlb	(_M+25) shr (0+8)
  2222  006280  9D19               	bcf	(_M+25)& (0+255),6,b
  2223                           ;main.c: 1082: StartRTS(4);
  2224  006282  0E04               	movlw	4
  2225  006284  EC34  F045         	call	_StartRTS
  2226                           ;main.c: 1083: StartRTM(3);
  2227  006288  0E03               	movlw	3
  2228  00628A  EC52  F045         	call	_StartRTM
  2229  00628E                     l240:
  2230                           ;main.c: 1084: }
  2231                           ;main.c: 1086: {
  2232  00628E  0E04               	movlw	4
  2233  006290  EC46  F045         	call	_RTS
  2234  006294  6E00               	movwf	btemp,c
  2235  006296  0E02               	movlw	2
  2236  006298  5C00               	subwf	btemp,w,c
  2237  00629A  E302               	bnc	l241
  2238  00629C  0101               	movlb	(_M+25) shr (0+8)
  2239  00629E  8D19               	bsf	(_M+25)& (0+255),6,b
  2240  0062A0                     l241:
  2241                           ;main.c: 1088: if(RTM(3)<15) return;
  2242  0062A0  0E03               	movlw	3
  2243  0062A2  EC64  F045         	call	_RTM
  2244  0062A6  6E00               	movwf	btemp,c
  2245  0062A8  0E0F               	movlw	15
  2246  0062AA  5C00               	subwf	btemp,w,c
  2247  0062AC  A0D8               	btfss	status,0,c
  2248  0062AE  0012               	return	
  2249                           ;main.c: 1089: M.LICZNIK_CIG2++;
  2250  0062B0  0101               	movlb	(_M+28) shr (0+8)
  2251  0062B2  2B1C               	incf	(_M+28)& (0+255),f,b
  2252                           ;main.c: 1090: if(M.LICZNIK_CIG2>=4)
  2253  0062B4  0E03               	movlw	3
  2254  0062B6  651C               	cpfsgt	(_M+28)& (0+255),b
  2255  0062B8  D00B               	goto	l243
  2256                           ;main.c: 1091: {
  2257  0062BA  6B1C               	clrf	(_M+28)& (0+255),b
  2258                           ;main.c: 1093: M.ERR_BTY=0x03;
  2259  0062BC  0E03               	movlw	3
  2260  0062BE  CFE8 F11E          	movff	wreg,_M+30
  2261                           ;main.c: 1094: PrintErr(0xE3,1);
  2262  0062C2  0E01               	movlw	1
  2263  0062C4  0100               	movlb	__Lparam shr (0+8)
  2264  0062C6  6FF1               	movwf	?_PrintErr^(__Lparam& (0+65280)),b
  2265  0062C8  0EE3               	movlw	227
  2266  0062CA  ECA1  F041         	call	_PrintErr
  2267                           ;main.c: 1095: ErrPTG();
  2268  0062CE  D928               	call	_ErrPTG	;wreg free
  2269  0062D0                     l243:
  2270                           ;main.c: 1096: }
  2271  0062D0  0101               	movlb	(_M+38) shr (0+8)
  2272  0062D2  6B26               	clrf	(_M+38)& (0+255),b
  2273                           ;main.c: 1098: M._RUSZ_CIAG=0;
  2274  0062D4  9D10               	bcf	(_M+16)& (0+255),6,b
  2275                           ;main.c: 1099: M._prb_CIG=0;
  2276  0062D6  9D19               	bcf	(_M+25)& (0+255),6,b
  2277                           ;main.c: 1100: StartRTM(4);
  2278  0062D8  0E04               	movlw	4
  2279  0062DA  EF52  F045         	goto	_StartRTM
  2280                           ;main.c: 1101: return;
  2281  0062DE                     l238:
  2282  0062DE  C126  FFE8         	movff	_M+38,wreg
  2283  0062E2  0A00               	xorlw	0
  2284  0062E4  E0C9               	bz	l239
  2285  0062E6  0A01               	xorlw	1
  2286  0062E8  E0D2               	bz	l240
  2287  0062EA  0012               	return	
  2288                           ;main.c: 1104: }
  2289                           ;main.c: 1105: else
  2290  0062EC                     l247:
  2291                           ;main.c: 1108: {
  2292                           ;main.c: 1110: {
  2293  0062EC  0101               	movlb	(_M+25) shr (0+8)
  2294  0062EE  9D19               	bcf	(_M+25)& (0+255),6,b
  2295                           ;main.c: 1112: StartRTS(4);
  2296  0062F0  0E04               	movlw	4
  2297  0062F2  EC34  F045         	call	_StartRTS
  2298                           ;main.c: 1113: if(RD3)
  2299  0062F6  A683               	btfss	3971,3,c	;volatile
  2300  0062F8  D007               	goto	l248
  2301                           ;main.c: 1114: {
  2302  0062FA  0101               	movlb	(_M+16) shr (0+8)
  2303  0062FC  8B10               	bsf	(_M+16)& (0+255),5,b
  2304                           ;main.c: 1116: M.VWB=0;
  2305  0062FE  6B29               	clrf	(_M+41)& (0+255),b
  2306                           ;main.c: 1117: M.RCI=1;
  2307  006300  0E01               	movlw	1
  2308  006302  CFE8 F126          	movff	wreg,_M+38
  2309                           ;main.c: 1118: }
  2310  006306  0C01               	retlw	1
  2311  006308                     l248:
  2312                           ;main.c: 1119: else M.RCI=2;
  2313  006308  0E02               	movlw	2
  2314  00630A  CFE8 F126          	movff	wreg,_M+38
  2315                           ;main.c: 1120: break;
  2316  00630E  0C02               	retlw	2
  2317  006310                     l250:
  2318                           ;main.c: 1121: }
  2319                           ;main.c: 1123: {
  2320  006310  0E04               	movlw	4
  2321  006312  EC46  F045         	call	_RTS
  2322  006316  6E00               	movwf	btemp,c
  2323  006318  0E02               	movlw	2
  2324  00631A  5C00               	subwf	btemp,w,c
  2325  00631C  E302               	bnc	l251
  2326  00631E  0101               	movlb	(_M+25) shr (0+8)
  2327  006320  8D19               	bsf	(_M+25)& (0+255),6,b
  2328  006322                     l251:
  2329                           ;main.c: 1126: if(RdPrt(3))
  2330  006322  0E03               	movlw	3
  2331  006324  EC47  F041         	call	_RdPrt
  2332                           ;main.c: 1127: {
  2333  006328  0E04               	movlw	4
  2334  00632A  E301               	bnc	L12
  2335  00632C  D047               	goto	L16
  2336                           ;main.c: 1130: StartRTS(4);
  2337                           ;main.c: 1131: break;
  2338                           ;main.c: 1132: }
  2339  00632E                     L12:
  2340  00632E  EC46  F045         	call	_RTS
  2341  006332  6E00               	movwf	btemp,c
  2342  006334  0E0E               	movlw	14
  2343  006336  5C00               	subwf	btemp,w,c
  2344  006338  A0D8               	btfss	status,0,c
  2345  00633A  0012               	return	
  2346                           ;main.c: 1134: M.RCI=3;
  2347  00633C  0E03               	movlw	3
  2348  00633E  CFE8 F126          	movff	wreg,_M+38
  2349                           ;main.c: 1135: StartRTS(4);
  2350  006342  0E04               	movlw	4
  2351  006344  EF34  F045         	goto	_StartRTS
  2352                           ;main.c: 1136: break;
  2353  006348                     l254:
  2354                           ;main.c: 1137: }
  2355                           ;main.c: 1140: {
  2356  006348  0E04               	movlw	4
  2357  00634A  EC46  F045         	call	_RTS
  2358  00634E  6E00               	movwf	btemp,c
  2359  006350  0E02               	movlw	2
  2360  006352  5C00               	subwf	btemp,w,c
  2361  006354  E302               	bnc	l255
  2362  006356  0101               	movlb	(_M+25) shr (0+8)
  2363  006358  8D19               	bsf	(_M+25)& (0+255),6,b
  2364  00635A                     l255:
  2365                           ;main.c: 1143: if(!RdPrt(3))
  2366  00635A  0E03               	movlw	3
  2367  00635C  EC47  F041         	call	_RdPrt
  2368                           ;main.c: 1144: {
  2369  006360  0E04               	movlw	4
  2370  006362  E201               	bc	L13
  2371  006364  D02B               	goto	L16
  2372                           ;main.c: 1146: StartRTS(4);
  2373                           ;main.c: 1147: break;
  2374                           ;main.c: 1148: }
  2375  006366                     L13:
  2376  006366  EC46  F045         	call	_RTS
  2377  00636A  6E00               	movwf	btemp,c
  2378  00636C  0E0E               	movlw	14
  2379  00636E  5C00               	subwf	btemp,w,c
  2380  006370  A0D8               	btfss	status,0,c
  2381  006372  0012               	return	
  2382                           ;main.c: 1150: M.ERR_BTY=0x03;
  2383  006374  0E03               	movlw	3
  2384  006376  CFE8 F11E          	movff	wreg,_M+30
  2385                           ;main.c: 1151: PrintErr(0xE3,1);
  2386  00637A  0E01               	movlw	1
  2387  00637C  0100               	movlb	__Lparam shr (0+8)
  2388  00637E  6FF1               	movwf	?_PrintErr^(__Lparam& (0+65280)),b
  2389  006380  0EE3               	movlw	227
  2390  006382  ECA1  F041         	call	_PrintErr
  2391                           ;main.c: 1152: ErrPTG();
  2392  006386  D8CC               	call	_ErrPTG	;wreg free
  2393  006388                     l258:
  2394                           ;main.c: 1153: }
  2395                           ;main.c: 1156: {
  2396  006388  9683               	bcf	3971,3,c	;volatile
  2397                           ;main.c: 1158: if(RTS(4)<5-1) return;
  2398  00638A  0E04               	movlw	4
  2399  00638C  EC46  F045         	call	_RTS
  2400  006390  6E00               	movwf	btemp,c
  2401  006392  0E04               	movlw	4
  2402  006394  5C00               	subwf	btemp,w,c
  2403  006396  A0D8               	btfss	status,0,c
  2404  006398  0012               	return	
  2405                           ;main.c: 1159: M.LICZNIK_CIG3++;
  2406  00639A  0101               	movlb	(_M+29) shr (0+8)
  2407  00639C  2B1D               	incf	(_M+29)& (0+255),f,b
  2408                           ;main.c: 1160: if(M.LICZNIK_CIG3>=10)
  2409  00639E  0E09               	movlw	9
  2410  0063A0  651D               	cpfsgt	(_M+29)& (0+255),b
  2411  0063A2  D00B               	goto	l260
  2412                           ;main.c: 1161: {
  2413  0063A4  6B1D               	clrf	(_M+29)& (0+255),b
  2414                           ;main.c: 1163: M.ERR_BTY=0x03;
  2415  0063A6  0E03               	movlw	3
  2416  0063A8  CFE8 F11E          	movff	wreg,_M+30
  2417                           ;main.c: 1164: PrintErr(0xE3,1);
  2418  0063AC  0E01               	movlw	1
  2419  0063AE  0100               	movlb	__Lparam shr (0+8)
  2420  0063B0  6FF1               	movwf	?_PrintErr^(__Lparam& (0+65280)),b
  2421  0063B2  0EE3               	movlw	227
  2422  0063B4  ECA1  F041         	call	_PrintErr
  2423                           ;main.c: 1165: ErrPTG();
  2424  0063B8  D8B3               	call	_ErrPTG	;wreg free
  2425  0063BA                     l260:
  2426                           ;main.c: 1166: }
  2427  0063BA  0E04               	movlw	4
  2428  0063BC                     L16:
  2429  0063BC  CFE8 F126          	movff	wreg,_M+38
  2430                           ;main.c: 1168: StartRTS(4);
  2431  0063C0  EF34  F045         	goto	_StartRTS
  2432                           ;main.c: 1169: break;
  2433  0063C4                     l261:
  2434                           ;main.c: 1170: }
  2435                           ;main.c: 1172: {
  2436  0063C4  0E04               	movlw	4
  2437  0063C6  EC46  F045         	call	_RTS
  2438  0063CA  6E00               	movwf	btemp,c
  2439  0063CC  0E01               	movlw	1
  2440  0063CE  5C00               	subwf	btemp,w,c
  2441  0063D0  A0D8               	btfss	status,0,c
  2442  0063D2  0012               	return	
  2443                           ;main.c: 1174: StartRTS(12);
  2444  0063D4  0E0C               	movlw	12
  2445  0063D6  EC34  F045         	call	_StartRTS
  2446                           ;main.c: 1175: M._prb_CIG=0;
  2447  0063DA  0101               	movlb	(_M+25) shr (0+8)
  2448  0063DC  9D19               	bcf	(_M+25)& (0+255),6,b
  2449                           ;main.c: 1176: M._RUSZ_CIAG=0;
  2450  0063DE  9D10               	bcf	(_M+16)& (0+255),6,b
  2451                           ;main.c: 1177: M.RCI=0;
  2452  0063E0  6B26               	clrf	(_M+38)& (0+255),b
  2453                           ;main.c: 1178: return;
  2454  0063E2  0012               	return	
  2455  0063E4                     l246:
  2456  0063E4  C126  FFE8         	movff	_M+38,wreg
  2457  0063E8  0A00               	xorlw	0
  2458  0063EA  E080               	bz	l247
  2459  0063EC  0A01               	xorlw	1
  2460  0063EE  E090               	bz	l250
  2461  0063F0  0A03               	xorlw	3
  2462  0063F2  E0AA               	bz	l254
  2463  0063F4  0A01               	xorlw	1
  2464  0063F6  E0C8               	bz	l258
  2465  0063F8  0A07               	xorlw	7
  2466  0063FA  E0E4               	bz	l261
  2467  0063FC  0012               	return	
  2468                           ;main.c: 1181: }
  2469  0063FE                     __end_of_RuszCiag:
  2470                           ;main.c: 1186: void ReloadCiag(void)
  2471                           ;main.c: 1187: {
  2472  0063FE                     _ReloadCiag:
  2473  000000                     
  2474                           ;main.c: 1188: if(!M._TURBO)
  2475  0063FE  0101               	movlb	(_M+25) shr (0+8)
  2476  006400  B119               	btfsc	(_M+25)& (0+255),0,b
  2477  006402  D00D               	goto	l264
  2478                           ;main.c: 1189: {
  2479  006404  BD10               	btfsc	(_M+16)& (0+255),6,b
  2480  006406  0012               	return	
  2481  006408  0E04               	movlw	4
  2482  00640A  EC64  F045         	call	_RTM
  2483  00640E  6E00               	movwf	btemp,c
  2484  006410  0E3D               	movlw	61
  2485  006412  5C00               	subwf	btemp,w,c
  2486  006414  A0D8               	btfss	status,0,c
  2487  006416  0012               	return	
  2488  006418  0101               	movlb	(_M+28) shr (0+8)
  2489  00641A  6B1C               	clrf	(_M+28)& (0+255),b
  2490                           ;main.c: 1191: }
  2491  00641C  0012               	return	
  2492  00641E                     l264:
  2493                           ;main.c: 1192: else
  2494  00641E  0E0B               	movlw	11
  2495  006420  EC46  F045         	call	_RTS
  2496  006424  6E00               	movwf	btemp,c
  2497  006426  0EF1               	movlw	241
  2498  006428  5C00               	subwf	btemp,w,c
  2499  00642A  E302               	bnc	l267
  2500                           ;main.c: 1195: {
  2501  00642C  0101               	movlb	(_M+27) shr (0+8)
  2502  00642E  6B1B               	clrf	(_M+27)& (0+255),b
  2503  006430                     l267:
  2504                           ;main.c: 1197: }
  2505  006430  0101               	movlb	(_M+16) shr (0+8)
  2506  006432  BD10               	btfsc	(_M+16)& (0+255),6,b
  2507  006434  0012               	return	
  2508  006436  0E0C               	movlw	12
  2509  006438  EC46  F045         	call	_RTS
  2510  00643C  6E00               	movwf	btemp,c
  2511  00643E  0E3D               	movlw	61
  2512  006440  5C00               	subwf	btemp,w,c
  2513  006442  A0D8               	btfss	status,0,c
  2514  006444  0012               	return	
  2515                           ;main.c: 1199: {
  2516  006446  0101               	movlb	(_M+29) shr (0+8)
  2517  006448  6B1D               	clrf	(_M+29)& (0+255),b
  2518                           ;main.c: 1201: }
  2519  00644A  0012               	return	
  2520  00644C                     __end_of_ReloadCiag:
  2521                           ;main.c: 1275: bit KeyRes(void)
  2522                           ;main.c: 1276: {
  2523  00644C                     _KeyRes:
  2524  000000                     
  2525                           ;main.c: 1277: switch(M.KRS)
  2526  00644C  D04A               	goto	l271
  2527  00644E                     l272:
  2528                           ;main.c: 1278: {
  2529                           ;main.c: 1280: {
  2530  00644E  0E06               	movlw	6
  2531  006450  EC47  F041         	call	_RdPrt
  2532  006454  E344               	bnc	l288
  2533  006456                     u2690:
  2534                           ;main.c: 1282: {
  2535  006456  0E01               	movlw	1
  2536  006458                     L3:
  2537  006458  CFE8 F12B          	movff	wreg,_M+43
  2538                           ;main.c: 1284: }
  2539  00645C  D052               	goto	l270
  2540                           ;main.c: 1285: else
  2541                           ;main.c: 1288: }
  2542  00645E                     l275:
  2543                           ;main.c: 1290: }
  2544                           ;main.c: 1293: {
  2545  00645E  0E06               	movlw	6
  2546  006460  EC47  F041         	call	_RdPrt
  2547  006464  E24E               	bc	l270
  2548                           ;main.c: 1295: {
  2549  006466  0E02               	movlw	2
  2550  006468  D7F7               	goto	L3
  2551                           ;main.c: 1297: }
  2552  00646A                     l277:
  2553                           ;main.c: 1299: }
  2554                           ;main.c: 1302: {
  2555  00646A  0E06               	movlw	6
  2556  00646C  EC47  F041         	call	_RdPrt
  2557  006470  E348               	bnc	l270
  2558                           ;main.c: 1304: {
  2559  006472  0E03               	movlw	3
  2560  006474  CFE8 F12B          	movff	wreg,_M+43
  2561                           ;main.c: 1306: StartRTS(8);
  2562  006478  0E08               	movlw	8
  2563  00647A  EC34  F045         	call	_StartRTS
  2564                           ;main.c: 1307: }
  2565  00647E  D041               	goto	l270
  2566  006480                     l279:
  2567                           ;main.c: 1309: }
  2568                           ;main.c: 1311: {
  2569  006480  0E06               	movlw	6
  2570  006482  EC47  F041         	call	_RdPrt
  2571  006486  E3E7               	bnc	u2690
  2572                           ;main.c: 1313: {
  2573  006488  0E08               	movlw	8
  2574  00648A  EC46  F045         	call	_RTS
  2575  00648E  6E00               	movwf	btemp,c
  2576  006490  0E01               	movlw	1
  2577  006492  5C00               	subwf	btemp,w,c
  2578  006494  E202               	bc	l281
  2579  006496  90D8               	bcf	status,0,c
  2580  006498  0012               	return	
  2581  00649A                     l281:
  2582                           ;main.c: 1315: return 1;
  2583  00649A  80D8               	bsf	status,0,c
  2584  00649C  0012               	return	
  2585                           ;main.c: 1317: else
  2586                           ;main.c: 1320: }
  2587  00649E                     l283:
  2588                           ;main.c: 1322: }
  2589                           ;main.c: 1325: {
  2590  00649E  0E06               	movlw	6
  2591  0064A0  EC47  F041         	call	_RdPrt
  2592  0064A4  E32E               	bnc	l270
  2593                           ;main.c: 1327: {
  2594  0064A6  0E05               	movlw	5
  2595  0064A8  D7D7               	goto	L3
  2596                           ;main.c: 1329: }
  2597  0064AA                     l285:
  2598                           ;main.c: 1331: }
  2599                           ;main.c: 1333: {
  2600  0064AA  0E06               	movlw	6
  2601  0064AC  EC47  F041         	call	_RdPrt
  2602  0064B0  E228               	bc	l270
  2603                           ;main.c: 1335: {
  2604  0064B2  0E06               	movlw	6
  2605  0064B4  CFE8 F12B          	movff	wreg,_M+43
  2606                           ;main.c: 1337: StartRTS(8);
  2607  0064B8  0E08               	movlw	8
  2608  0064BA  EC34  F045         	call	_StartRTS
  2609                           ;main.c: 1338: }
  2610  0064BE  D021               	goto	l270
  2611  0064C0                     l287:
  2612                           ;main.c: 1340: }
  2613                           ;main.c: 1342: {
  2614  0064C0  0E06               	movlw	6
  2615  0064C2  EC47  F041         	call	_RdPrt
  2616  0064C6  E20B               	bc	l288
  2617                           ;main.c: 1344: {
  2618  0064C8  0E08               	movlw	8
  2619  0064CA  EC46  F045         	call	_RTS
  2620  0064CE  6E00               	movwf	btemp,c
  2621  0064D0  0E01               	movlw	1
  2622  0064D2  5C00               	subwf	btemp,w,c
  2623  0064D4  E202               	bc	l289
  2624  0064D6  90D8               	bcf	status,0,c
  2625  0064D8  0012               	return	
  2626  0064DA                     l289:
  2627                           ;main.c: 1346: return 1;
  2628  0064DA  80D8               	bsf	status,0,c
  2629  0064DC  0012               	return	
  2630  0064DE                     l288:
  2631                           ;main.c: 1348: else
  2632  0064DE  0E04               	movlw	4
  2633  0064E0  D7BB               	goto	L3
  2634                           ;main.c: 1351: }
  2635  0064E2                     l271:
  2636  0064E2  C12B  FFE8         	movff	_M+43,wreg
  2637  0064E6  0A00               	xorlw	0
  2638  0064E8  E0B2               	bz	l272
  2639  0064EA  0A01               	xorlw	1
  2640  0064EC  E0B8               	bz	l275
  2641  0064EE  0A03               	xorlw	3
  2642  0064F0  E0BC               	bz	l277
  2643  0064F2  0A01               	xorlw	1
  2644  0064F4  E0C5               	bz	l279
  2645  0064F6  0A07               	xorlw	7
  2646  0064F8  E0D2               	bz	l283
  2647  0064FA  0A01               	xorlw	1
  2648  0064FC  E0D6               	bz	l285
  2649  0064FE  0A03               	xorlw	3
  2650  006500  E0DF               	bz	l287
  2651  006502                     l270:
  2652                           ;main.c: 1355: return 0;
  2653  006502  90D8               	bcf	status,0,c
  2654  006504  0012               	return	
  2655                           ;main.c: 1356: }
  2656  006506                     __end_of_KeyRes:
  2657                           ;main.c: 1360: void VZPauza(void)
  2658                           ;main.c: 1361: {
  2659  006506                     _VZPauza:
  2660  000000                     
  2661                           ;main.c: 1362: StartRTS(2);
  2662  006506  0E02               	movlw	2
  2663  006508  EC34  F045         	call	_StartRTS
  2664  00650C                     l293:
  2665                           ;main.c: 1363: while(1)
  2666                           ;main.c: 1364: {
  2667  00650C  0004               	clrwdt		;#
  2668                           ;main.c: 1366: if(RTS(2)>=1) return;
  2669  00650E  0E02               	movlw	2
  2670  006510  EC46  F045         	call	_RTS
  2671  006514  6E00               	movwf	btemp,c
  2672  006516  0E01               	movlw	1
  2673  006518  5C00               	subwf	btemp,w,c
  2674  00651A  B0D8               	btfsc	status,0,c
  2675  00651C  0012               	return	
  2676  00651E  D7F6               	goto	l293
  2677                           ;main.c: 1367: }
  2678  006520                     __end_of_VZPauza:
  2679                           ;main.c: 1372: void ErrPTG(void)
  2680                           ;main.c: 1373: {
  2681  006520                     _ErrPTG:
  2682  000000                     
  2683                           ;main.c: 1374: unsigned char k=0;
  2684  006520  6AD9               	clrf	fsr2l,c
  2685                           ;main.c: 1376: GrzejOFF();
  2686  006522  DCB9               	call	_GrzejOFF	;wreg free
  2687                           ;main.c: 1377: VZPauza();
  2688  006524  DFF0               	call	_VZPauza	;wreg free
  2689                           ;main.c: 1378: if((M.ERR_BTY>=1)&&(M.ERR_BTY<=3)
      +                          ) eeprom_write(0x00C0,M.ERR_BTY);
  2690  006526  0E00               	movlw	0
  2691  006528  0101               	movlb	(_M+30) shr (0+8)
  2692  00652A  651E               	cpfsgt	(_M+30)& (0+255),b
  2693  00652C  D00B               	goto	l297
  2694  00652E  0E04               	movlw	4
  2695  006530  611E               	cpfslt	(_M+30)& (0+255),b
  2696  006532  D008               	goto	l297
  2697  006534  0EC0               	movlw	192
  2698  006536  0100               	movlb	__Lparam shr (0+8)
  2699  006538  6FF1               	movwf	?_eeprom_write^(__Lparam& (0+65280)),b
  2700  00653A  6BF2               	clrf	(?_eeprom_write+1)^(__Lparam& (0+65280)),b
  2701  00653C  C11E  F0F3         	movff	_M+30,?_eeprom_write+2
  2702  006540  EC01  F04A         	call	_eeprom_write	;wreg free
  2703  006544                     l297:
  2704                           ;main.c: 1379: M._ROZRUCH=0;
  2705  006544  0101               	movlb	(_M+16) shr (0+8)
  2706  006546  9510               	bcf	(_M+16)& (0+255),2,b
  2707                           ;main.c: 1380: M._MODULUJ=0;
  2708  006548  9911               	bcf	(_M+17)& (0+255),4,b
  2709                           ;main.c: 1381: WritePWM(0);
  2710  00654A  0E00               	movlw	0
  2711  00654C  EC8E  F03E         	call	_WritePWM
  2712                           ;main.c: 1382: if(M._TURBO&&RD3) M._VWYBIEG=1;
  2713  006550  0101               	movlb	(_M+25) shr (0+8)
  2714  006552  B119               	btfsc	(_M+25)& (0+255),0,b
  2715  006554  A683               	btfss	3971,3,c	;volatile
  2716  006556  D002               	goto	l298
  2717  006558  0101               	movlb	(_M+16) shr (0+8)
  2718  00655A  8B10               	bsf	(_M+16)& (0+255),5,b
  2719  00655C                     l298:
  2720                           ;main.c: 1383: M.KRS=0;
  2721  00655C  0101               	movlb	(_M+43) shr (0+8)
  2722  00655E  6B2B               	clrf	(_M+43)& (0+255),b
  2723  006560                     l300:
  2724                           ;main.c: 1386: while(1)
  2725                           ;main.c: 1387: {
  2726  006560  0004               	clrwdt		;#
  2727                           ;main.c: 1390: PomiarPCW();
  2728  006562  EC7B  F039         	call	_PomiarPCW	;wreg free
  2729                           ;main.c: 1391: PomiarCW();
  2730  006566  EC1A  F039         	call	_PomiarCW	;wreg free
  2731                           ;main.c: 1393: if(M._VWYBIEG) VWybieg();
  2732  00656A  0101               	movlb	(_M+16) shr (0+8)
  2733  00656C  BB10               	btfsc	(_M+16)& (0+255),5,b
  2734  00656E  DDEC               	call	_VWybieg	;wreg free
  2735                           ;main.c: 1395: if(KeyRes())
  2736  006570  DF6D               	call	_KeyRes	;wreg free
  2737  006572  E3F6               	bnc	l300
  2738                           ;main.c: 1396: {
  2739  006574  9683               	bcf	3971,3,c	;volatile
  2740                           ;main.c: 1398: PrintPR(0b11111111,0b11111111,1);
  2741  006576  0100               	movlb	__Lparam shr (0+8)
  2742  006578  69F1               	setf	?_PrintPR^(__Lparam& (0+65280)),b
  2743  00657A  0E01               	movlw	1
  2744  00657C  6FF2               	movwf	(?_PrintPR+1)^(__Lparam& (0+65280)),b
  2745  00657E  0EFF               	movlw	255
  2746  006580  EC0A  F042         	call	_PrintPR
  2747                           ;main.c: 1399: EndErr();
  2748  006584  EC06  F042         	call	_EndErr	;wreg free
  2749                           ;main.c: 1400: ToReset();
  2750  006588  D801               	call	_ToReset	;wreg free
  2751  00658A  D7EA               	goto	l300
  2752  00658C                     __end_of_ErrPTG:
  2753                           ;main.c: 1405: void ToReset(void)
  2754                           ;main.c: 1406: {
  2755  00658C                     _ToReset:
  2756  000000                     
  2757                           ;main.c: 1407: RD3=0;
  2758  00658C  9683               	bcf	3971,3,c	;volatile
  2759                           ;main.c: 1408: eeprom_write(0x00C0,0x00);
  2760  00658E  0EC0               	movlw	192
  2761  006590  0100               	movlb	__Lparam shr (0+8)
  2762  006592  6FF1               	movwf	?_eeprom_write^(__Lparam& (0+65280)),b
  2763  006594  6BF2               	clrf	(?_eeprom_write+1)^(__Lparam& (0+65280)),b
  2764  006596  6BF3               	clrf	(?_eeprom_write+2)^(__Lparam& (0+65280)),b
  2765  006598  EC01  F04A         	call	_eeprom_write	;wreg free
  2766                           ;main.c: 1409: while(1);
  2767  00659C                     l305:
  2768  00659C  D7FF               	goto	l305
  2769  00659E                     __end_of_ToReset:
  2770                           ;main.c: 1413: void InitGlobal(void)
  2771                           ;main.c: 1414: {
  2772  00659E                     _InitGlobal:
  2773  000000                     
  2774                           ;main.c: 1416: IPEN=1;
  2775  00659E  8ED0               	bsf	4048,7,c
  2776                           ;main.c: 1418: GIEH=1;
  2777  0065A0  8EF2               	bsf	intcon,7,c
  2778                           ;main.c: 1419: GIEL=1;
  2779  0065A2  8CF2               	bsf	intcon,6,c
  2780                           ;main.c: 1420: }
  2781  0065A4  0012               	return	
  2782  0065A6                     __end_of_InitGlobal:
  2783  000000                     
  2784  000000                     
  2785  000000                     
  2786  000000                     
  2787  000000                     
  2788  000000                     
  2789  000000                     
  2790  000000                     
  2791  000000                     
  2792  000000                     
  2793  000000                     
  2794  000000                     
  2795  000000                     
  2796  000000                     
  2797  000000                     
  2798  000000                     
  2799  000000                     
  2800  000000                     
  2801  000000                     
  2802  000000                     
  2803  000000                     
  2804  000000                     
  2805  000000                     
  2806  000000                     
  2807  000000                     
  2808  000000                     
  2809  000000                     
  2810  000000                     
  2811  000000                     
  2812  000000                     
  2813  000000                     
  2814  000000                     
  2815  000000                     
  2816  000000                     
  2817  000000                     
  2818  000000                     
  2819  000000                     
  2820  000000                     
  2821  000000                     
  2822  000000                     
  2823  000000                     
  2824  000000                     
  2825  000000                     
  2826  000000                     
  2827  000000                     
  2828  000000                     
  2829  000000                     
  2830  000000                     
  2831  000000                     
  2832  000000                     
  2833  000000                     
  2834  000000                     
  2835  000000                     
  2836  000000                     
  2837  000000                     
  2838  000000                     
  2839  000000                     
  2840  000000                     
  2841  000000                     
  2842  000000                     
  2843  000000                     
  2844  000000                     
  2845  000000                     
  2846  000000                     
  2847  000000                     
  2848  000000                     
  2849  000000                     
  2850  000000                     
  2851  000000                     
  2852  000000                     
  2853  000000                     
  2854  000000                     
  2855  000000                     
  2856  000000                     
  2857  000000                     
  2858  000000                     
  2859  000000                     
  2860  000000                     
  2861  000000                     
  2862  000000                     
  2863  000000                     
  2864  000000                     
  2865  000000                     
  2866  000000                     
  2867  000000                     
  2868  000000                     
  2869  000000                     
  2870  000000                     
  2871  000000                     
  2872  000000                     
  2873  000000                     
  2874  000000                     
  2875  000000                     
  2876  000000                     
  2877  000000                     
  2878  000000                     
  2879  000000                     
  2880  000000                     
  2881  000000                     
  2882  000000                     
  2883  000000                     
  2884  000000                     
  2885  000000                     
  2886  000000                     
  2887  000000                     
  2888  000000                     
  2889  000000                     
  2890  000000                     
  2891  000000                     
  2892  000000                     
  2893  000000                     
  2894  000000                     
  2895  000000                     
  2896  000000                     
  2897  000000                     
  2898  000000                     
  2899  000000                     
  2900  000000                     
  2901  000000                     
  2902  000000                     
  2903  000000                     
  2904  000000                     
  2905  000000                     
  2906  000000                     
  2907  000000                     
  2908  000000                     
  2909  000000                     
  2910  000000                     
  2911  000000                     
  2912  000000                     
  2913  000000                     
  2914  000000                     
  2915  000000                     
  2916  000000                     
  2917  000000                     
  2918  000000                     
  2919  000000                     
  2920  000000                     
  2921  000000                     
  2922  000000                     
  2923  000000                     
  2924  000000                     
  2925  000000                     
  2926  000000                     
  2927  000000                     
  2928  000000                     
  2929  000000                     
  2930  000000                     
  2931  000000                     
  2932  000000                     
  2933  000000                     
  2934  000000                     
  2935  000000                     
  2936  000000                     
  2937  000000                     
  2938  000000                     
  2939  000000                     
  2940  000000                     
  2941  000000                     
  2942  000000                     
  2943  000000                     
  2944  000000                     
  2945  000000                     
  2946  000000                     
  2947  000000                     
  2948  000000                     
  2949  000000                     
  2950  000000                     
  2951  000000                     
  2952  000000                     
  2953  000000                     
  2954  000000                     
  2955  000000                     
  2956  000000                     
  2957  000000                     
  2958  000000                     
  2959  000000                     
  2960  000000                     
  2961  000000                     
  2962  000000                     
  2963  000000                     
  2964  000000                     
  2965  000000                     
  2966  000000                     
  2967  000000                     
  2968  000000                     
  2969  000000                     
  2970  000000                     
  2971  000000                     
  2972  000000                     
  2973  000000                     
  2974  000000                     
  2975  000000                     
  2976  000000                     
  2977  000000                     
  2978  000000                     
  2979  000000                     
  2980  000000                     
  2981  000000                     
  2982  000000                     
  2983  000000                     
  2984  000000                     
  2985  000000                     
  2986  000000                     
  2987  000000                     
  2988  000000                     
  2989  000000                     
  2990  000000                     
  2991  000000                     
  2992  000000                     
  2993  000000                     
  2994  000000                     
  2995  000000                     
  2996  000000                     
  2997  000000                     
  2998  000000                     
  2999  000000                     
  3000  000000                     
  3001  000000                     
  3002  000000                     
  3003  000000                     
  3004  000000                     
  3005  000000                     
  3006  000000                     
  3007  000000                     
  3008  000000                     
  3009  000000                     
  3010  000000                     
  3011  000000                     
  3012  000000                     
  3013  000000                     
  3014  000000                     
  3015  000000                     
  3016  000000                     
  3017  000000                     
  3018  000000                     
  3019  000000                     
  3020  000000                     
  3021  000000                     
  3022  000000                     
  3023  000000                     
  3024  000000                     
  3025  000000                     
  3026  000000                     
  3027  000000                     
  3028  000000                     
  3029  000000                     
  3030  000000                     
  3031  000000                     
  3032  000000                     
  3033  000000                     
  3034  000000                     
  3035  000000                     
  3036  000000                     
  3037  000000                     
  3038  000000                     
  3039  000000                     
  3040  000000                     
  3041  000000                     
  3042  000000                     
  3043  000000                     
  3044  000000                     
  3045  000000                     
  3046  000000                     
  3047  000000                     
  3048  000000                     
  3049  000000                     
  3050  000000                     
  3051  000000                     
  3052  000000                     
  3053  000000                     
  3054  000000                     
  3055  000000                     
  3056  000000                     
  3057  000000                     
  3058  000000                     
  3059  000000                     
  3060  000000                     
  3061  000000                     
  3062  000000                     
  3063  000000                     
  3064  000000                     
  3065  000000                     
  3066  000000                     
  3067  000000                     
  3068  000000                     
  3069  000000                     
  3070  000000                     
  3071  000000                     
  3072  000000                     
  3073  000000                     
  3074  000000                     
  3075  000000                     
  3076  000000                     
  3077  000000                     
  3078  000000                     
  3079  000000                     
  3080  000000                     
  3081  000000                     
  3082  000000                     
  3083  000000                     
  3084  000000                     
  3085  000000                     
  3086  000000                     
  3087  000000                     
  3088  000000                     
  3089  000000                     
  3090  000000                     
  3091  000000                     
  3092  000000                     
  3093  000000                     
  3094  000000                     
  3095  000000                     
  3096  000000                     
  3097  000000                     
  3098  000000                     
  3099  000000                     
  3100  000000                     
  3101  000000                     
  3102  000000                     
  3103  000000                     
  3104  000000                     
  3105  000000                     
  3106  000000                     
  3107  000000                     
  3108  000000                     
  3109  000000                     
  3110  000000                     
  3111  000000                     
  3112  000000                     
  3113  000000                     
  3114  000000                     
  3115  000000                     
  3116  000000                     
  3117  000000                     
  3118  000000                     
  3119  000000                     
  3120  000000                     
  3121  000000                     
  3122  000000                     
  3123  000000                     
  3124  000000                     
  3125  000000                     
  3126  000000                     
  3127  000000                     
  3128  000000                     
  3129  000000                     
  3130  000000                     
  3131  000000                     
  3132  000000                     
  3133  000000                     
  3134  000000                     
  3135  000000                     
  3136  000000                     
  3137  000000                     
  3138  000000                     
  3139  000000                     
  3140  000000                     
  3141  000000                     
  3142  000000                     
  3143  000000                     
  3144  000000                     
  3145  000000                     
  3146  000000                     
  3147  000000                     
  3148  000000                     
  3149  000000                     
  3150  000000                     
  3151  000000                     
  3152  000000                     
  3153  000000                     
  3154  000000                     
  3155  000000                     
  3156  000000                     
  3157  000000                     
  3158  000000                     
  3159  000000                     
  3160  000000                     
  3161  000000                     
  3162  000000                     
  3163  000000                     
  3164  000000                     
  3165  000000                     
  3166  000000                     
  3167  000000                     
  3168  000000                     
  3169  000000                     
  3170  000000                     
  3171  000000                     
  3172  000000                     
  3173  000000                     
  3174  000000                     
  3175  000000                     
  3176  000000                     
  3177  000000                     
  3178  000000                     
  3179  000000                     
  3180  000000                     
  3181  000000                     
  3182  000000                     
  3183  000000                     
  3184  000000                     
  3185  000000                     
  3186  000000                     
  3187  000000                     
  3188  000000                     
  3189  000000                     
  3190  000000                     
  3191  000000                     
  3192  000000                     
  3193  000000                     
  3194  000000                     
  3195  000000                     
  3196  000000                     
  3197  000000                     
  3198  000000                     
  3199  000000                     
  3200  000000                     
  3201  000000                     
  3202  000000                     
  3203  000000                     
  3204  000000                     
  3205  000000                     
  3206  000000                     
  3207  000000                     
  3208  000000                     
  3209  000000                     
  3210  000000                     
  3211  000000                     
  3212  000000                     
  3213  000000                     
  3214  000000                     
  3215  000000                     
  3216  000000                     
  3217  000000                     
  3218  000000                     
  3219  000000                     
  3220  000000                     
  3221  000000                     
  3222  000000                     
  3223  000000                     
  3224  000000                     
  3225  000000                     
  3226  000000                     
  3227  000000                     
  3228  000000                     
  3229  000000                     
  3230  000000                     
  3231  000000                     
  3232  000000                     
  3233  000000                     
  3234  000000                     
  3235  000000                     
  3236  000000                     
  3237  000000                     
  3238  000000                     
  3239  000000                     
  3240  000000                     
  3241  000000                     
  3242  000000                     
  3243  000000                     
  3244  000000                     
  3245  000000                     
  3246  000000                     
  3247  000000                     
  3248  000000                     
  3249  000000                     
  3250  000000                     
  3251  000000                     
  3252  000000                     
  3253  000000                     
  3254  000000                     
  3255  000000                     
  3256  000000                     
  3257  000000                     
  3258  000000                     
  3259  000000                     
  3260  000000                     
  3261  000000                     
  3262  000000                     
  3263  000000                     
  3264  000000                     
  3265  000000                     
  3266  000000                     
  3267  000000                     
  3268  000000                     
  3269  000000                     
  3270  000000                     
  3271  000000                     
  3272  000000                     
  3273  000000                     
  3274  000000                     
  3275  000000                     
  3276  000000                     
  3277  000000                     
  3278  000000                     
  3279  000000                     
  3280  000000                     
  3281  000000                     
  3282  000000                     
  3283  000000                     
  3284  000000                     
  3285  000000                     
  3286  000000                     
  3287  000000                     
  3288  000000                     
  3289  000000                     
  3290  000000                     
  3291  000000                     
  3292  000000                     
  3293  000000                     
  3294  000000                     
  3295  000000                     
  3296  000000                     
  3297  000000                     
  3298  000000                     
  3299  000000                     
  3300  000000                     
  3301  000000                     
  3302  000000                     
  3303  000000                     
  3304  000000                     
  3305  000000                     
  3306  000000                     
  3307  000000                     
  3308  000000                     
  3309  000000                     
  3310  000000                     
  3311  000000                     
  3312  000000                     
  3313  000000                     
  3314  000000                     
  3315  000000                     
  3316  000000                     
  3317  000000                     
  3318  000000                     
  3319  000000                     
  3320  000000                     
  3321  000000                     
  3322  000000                     
  3323  000000                     
  3324  000000                     
  3325  000000                     
  3326  000000                     
  3327  000000                     
  3328  000000                     
  3329  000000                     
  3330  000000                     
  3331  000000                     
  3332  000000                     
  3333  000000                     
  3334  000000                     
  3335  000000                     
  3336  000000                     
  3337  000000                     
  3338  000000                     
  3339  000000                     
  3340  000000                     
  3341  000000                     
  3342  000000                     
  3343  000000                     
  3344                           
  3345                           	psect	eeprom_data
  3346                           ;main.h: 115: extern void GoldenEye(void);
  3347                           ;main.h: 118: void InitGlobal(void);
  3348                           ;main.h: 119: void ErrPTG(void);
  3349                           ;main.h: 120: void ToReset(void);
  3350                           ;main.h: 121: void DecWSW(void);
  3351                           ;main.h: 122: void DecERR(void);
  3352                           ;main.h: 123: void DecSTR(void);
  3353                           ;main.h: 124: void DecRozruch(void);
  3354                           ;main.h: 125: void SetRozruch(void);
  3355                           ;main.h: 126: void DecWylacz(void);
  3356                           ;main.h: 127: void SetWylacz(void);
  3357                           ;main.h: 128: void RuszPlomien(void);
  3358                           ;main.h: 129: void ReloadPlomien(void);
  3359                           ;main.h: 130: void RuszCiag(void);
  3360                           ;main.h: 131: void ReloadCiag(void);
  3361                           ;main.h: 132: void Rozruch(void);
  3362                           ;main.h: 133: void DecyzjaPLM(void);
  3363                           ;main.h: 134: void DecyzjaPLM2(void);
  3364                           ;main.h: 135: void VWybieg(void);
  3365                           ;main.h: 136: void KolejkaPobudzen(void);
  3366                           ;main.h: 137: void FunkcjaSerwisowa(void);
  3367                           ;main.h: 138: void ClearData(void);
  3368                           ;main.h: 139: void SetLoMod(void);
  3369                           ;main.h: 140: void RestartFltPrt(void);
  3370                           ;main.h: 141: void ErrDTF(void);
  3371                           ;main.h: 142: void GrzejON(void);
  3372                           ;main.h: 143: void GrzejOFF(void);
  3373                           ;main.h: 145: extern void InitOsc(void);
  3374                           ;main.h: 147: extern void InitAC(void);
  3375                           ;main.h: 149: extern void InitWsw(void);
  3376                           ;main.h: 150: extern bit GetPoz(const unsigned c
      +                          har nrkol,const unsigned char nrpoz);
  3377                           ;main.h: 152: extern void InitPWM(void);
  3378                           ;main.h: 153: extern void WritePWM(const unsigne
      +                          d char tpwm);
  3379                           ;main.h: 154: extern void WriteOPWM(unsigned cha
      +                          r tpwm);
  3380                           ;main.h: 156: extern void ClsScr(void);
  3381                           ;main.h: 157: extern void EndClsScr(void);
  3382                           ;main.h: 158: extern void TestScr(void);
  3383                           ;main.h: 159: extern void EndTestScr(void);
  3384                           ;main.h: 160: extern void ClsScr(void);
  3385                           ;main.h: 161: extern void EndClsScr(void);
  3386                           ;main.h: 162: extern void PrintErr(const unsigne
      +                          d char kod, const unsigned char pls);
  3387                           ;main.h: 163: extern void PrintErrCs(const unsig
      +                          ned char kod,const unsigned char cs, const unsig
      +                          ned char pls);
  3388                           ;main.h: 164: extern void PrintErrTm(const unsig
      +                          ned char kod,const unsigned char tm, const unsig
      +                          ned char pls);
  3389                           ;main.h: 165: extern void EndErr(void);
  3390                           ;main.h: 166: extern void PrintPR(const unsigned
      +                           char lkod,unsigned char nkod,unsigned char tryb
      +                          );
  3391                           ;main.h: 167: extern void EndPR(void);
  3392                           ;main.h: 168: extern void PrintNstCO(const unsig
      +                          ned char nst);
  3393                           ;main.h: 169: extern void PrintNstCW(const unsig
      +                          ned char nst,const unsigned char krp);
  3394                           ;main.h: 170: extern void PrintNstKt(const unsig
      +                          ned char nst);
  3395                           ;main.h: 171: extern void EndNst(void);
  3396                           ;main.h: 172: extern void PrintL3(void);
  3397                           ;main.h: 173: extern void EndL3(void);
  3398                           ;main.h: 174: extern void PrintTdzCO(const unsig
      +                          ned char tm);
  3399                           ;main.h: 175: extern void EndTdzCO(void);
  3400                           ;main.h: 176: extern void PrintTdzCW(const unsig
      +                          ned char tm);
  3401                           ;main.h: 177: extern void EndTdzCW(void);
  3402                           ;main.h: 178: extern void PrintOFF(void);
  3403                           ;main.h: 179: extern void EndOFF(void);
  3404                           ;main.h: 180: extern void PrintCS(const unsigned
      +                           char cs);
  3405                           ;main.h: 181: extern void EndCS(void);
  3406                           ;main.h: 182: extern void PrintCW(const unsigned
      +                           char tm,const unsigned char krp);
  3407                           ;main.h: 183: extern void EndCW(void);
  3408                           ;main.h: 184: extern void PrintCO(const unsigned
      +                           char tm);
  3409                           ;main.h: 185: extern void PrintHex(const unsigne
      +                          d char tm);
  3410                           ;main.h: 186: extern void SetDiode(unsigned char
      +                           nrd, unsigned char stn);
  3411                           ;main.h: 187: extern void RefreshNst(const unsig
      +                          ned char nst);
  3412                           ;main.h: 189: extern bit GetBit(const unsigned c
      +                          har data,const unsigned char nbit);
  3413                           ;main.h: 190: extern void BitSet(unsigned char *
      +                          data, const unsigned char nbit,const unsigned ch
      +                          ar bt);
  3414                           ;main.h: 192: extern void StartRTG(const unsigne
      +                          d char Index);
  3415                           ;main.h: 193: extern unsigned char RTG(const uns
      +                          igned char Index);
  3416                           ;main.h: 194: extern void StartRTS(const unsigne
      +                          d char Index);
  3417                           ;main.h: 195: extern unsigned char RTS(const uns
      +                          igned char Index);
  3418                           ;main.h: 196: extern void StartRTdS(const unsign
      +                          ed char Index);
  3419                           ;main.h: 197: extern unsigned char RTdS(const un
      +                          signed char Index);
  3420                           ;main.h: 199: extern void InitTimer1(void);
  3421                           ;main.h: 201: extern void InitPort(void);
  3422                           ;main.h: 202: extern bit RdPrt(const unsigned ch
      +                          ar Index);
  3423                           ;main.h: 203: extern void SetPrt(const unsigned 
      +                          char Index, const unsigned char nw);
  3424                           ;main.h: 204: extern void RefPrt(const unsigned 
      +                          char Index);
  3425                           ;main.h: 206: extern void PwrOnDelay(void);
  3426                           ;main.h: 208: extern void InitI2C(void);
  3427                           ;main.h: 209: extern void StartI2CTim(void);
  3428                           ;main.h: 210: extern bit I2CTim(void);
  3429                           ;main.h: 211: extern bit ReceptI2C(unsigned char
      +                           NBTI2C);
  3430                           ;main.h: 212: extern bit TransmitI2C(unsigned ch
      +                          ar NBTI2C);
  3431                           ;main.h: 214: extern void InitIMY(void);
  3432                           ;main.h: 215: extern void KomunikacjaIMY(void);
  3433                           ;main.h: 217: extern void InitIMZ(void);
  3434                           ;main.h: 218: extern void KomunikacjaIMZ(void);
  3435                           ;main.h: 220: extern void InitLcd(void);
  3436                           ;main.h: 221: extern void ClearScr(void);
  3437                           ;main.h: 222: extern void Print1(const char * s)
      +                          ;
  3438                           ;main.h: 223: extern void Print2(const char * s)
      +                          ;
  3439                           ;main.h: 224: extern void Print3(const char * s)
      +                          ;
  3440                           ;main.h: 225: extern void Print4(const char * s)
      +                          ;
  3441                           ;main.h: 226: extern void AddText(const char * s
      +                          ,const unsigned char ind);
  3442                           ;main.h: 228: extern void InitCzCw(void);
  3443                           ;main.h: 230: void InitDataPmr(void);
  3444                           ;main.h: 231: extern void FiltrPomiarowyCW(void)
      +                          ;
  3445                           ;main.h: 232: extern void PomiarCW(void);
  3446  F00000  63 63 62 62 61 60  	db	99,99,98,98,97,96,95,95	;#
      +       5F 5F              
  3447                           ;eeprom.h: 54: asm("\tpsect eeprom_data,class=EE
      +                          DATA"); asm("\tdb\t" "94" "," "93" "," "92" "," 
      +                          "92" "," "91" "," "90" "," "90" "," "89");
  3448  F00008  5E 5D 5C 5C 5B 5A  	db	94,93,92,92,91,90,90,89	;#
      +       5A 59              
  3449                           ;eeprom.h: 55: asm("\tpsect eeprom_data,class=EE
      +                          DATA"); asm("\tdb\t" "88" "," "88" "," "87" "," 
      +                          "87" "," "86" "," "85" "," "85" "," "84");
  3450  F00010  58 58 57 57 56 55  	db	88,88,87,87,86,85,85,84	;#
      +       55 54              
  3451                           ;eeprom.h: 56: asm("\tpsect eeprom_data,class=EE
      +                          DATA"); asm("\tdb\t" "84" "," "83" "," "82" "," 
      +                          "82" "," "81" "," "81" "," "80" "," "80");
  3452  F00018  54 53 52 52 51 51  	db	84,83,82,82,81,81,80,80	;#
      +       50 50              
  3453                           ;eeprom.h: 57: asm("\tpsect eeprom_data,class=EE
      +                          DATA"); asm("\tdb\t" "79" "," "79" "," "78" "," 
      +                          "77" "," "77" "," "76" "," "76" "," "75");
  3454  F00020  4F 4F 4E 4D 4D 4C  	db	79,79,78,77,77,76,76,75	;#
      +       4C 4B              
  3455                           ;eeprom.h: 58: asm("\tpsect eeprom_data,class=EE
      +                          DATA"); asm("\tdb\t" "75" "," "74" "," "74" "," 
      +                          "73" "," "73" "," "72" "," "72" "," "71");
  3456  F00028  4B 4A 4A 49 49 48  	db	75,74,74,73,73,72,72,71	;#
      +       48 47              
  3457                           ;eeprom.h: 59: asm("\tpsect eeprom_data,class=EE
      +                          DATA"); asm("\tdb\t" "71" "," "70" "," "70" "," 
      +                          "70" "," "69" "," "69" "," "68" "," "68");
  3458  F00030  47 46 46 46 45 45  	db	71,70,70,70,69,69,68,68	;#
      +       44 44              
  3459                           ;eeprom.h: 60: asm("\tpsect eeprom_data,class=EE
      +                          DATA"); asm("\tdb\t" "67" "," "67" "," "66" "," 
      +                          "66" "," "65" "," "65" "," "64" "," "64");
  3460  F00038  43 43 42 42 41 41  	db	67,67,66,66,65,65,64,64	;#
      +       40 40              
  3461                           ;eeprom.h: 61: asm("\tpsect eeprom_data,class=EE
      +                          DATA"); asm("\tdb\t" "64" "," "63" "," "63" "," 
      +                          "62" "," "62" "," "61" "," "61" "," "61");
  3462  F00040  40 3F 3F 3E 3E 3D  	db	64,63,63,62,62,61,61,61	;#
      +       3D 3D              
  3463                           ;eeprom.h: 62: asm("\tpsect eeprom_data,class=EE
      +                          DATA"); asm("\tdb\t" "60" "," "60" "," "59" "," 
      +                          "59" "," "58" "," "58" "," "57" "," "57");
  3464  F00048  3C 3C 3B 3B 3A 3A  	db	60,60,59,59,58,58,57,57	;#
      +       39 39              
  3465                           ;eeprom.h: 63: asm("\tpsect eeprom_data,class=EE
      +                          DATA"); asm("\tdb\t" "57" "," "56" "," "56" "," 
      +                          "55" "," "55" "," "54" "," "54" "," "54");
  3466  F00050  39 38 38 37 37 36  	db	57,56,56,55,55,54,54,54	;#
      +       36 36              
  3467                           ;eeprom.h: 64: asm("\tpsect eeprom_data,class=EE
      +                          DATA"); asm("\tdb\t" "53" "," "53" "," "52" "," 
      +                          "52" "," "52" "," "51" "," "51" "," "50");
  3468  F00058  35 35 34 34 34 33  	db	53,53,52,52,52,51,51,50	;#
      +       33 32              
  3469                           ;eeprom.h: 65: asm("\tpsect eeprom_data,class=EE
      +                          DATA"); asm("\tdb\t" "50" "," "49" "," "49" "," 
      +                          "49" "," "48" "," "48" "," "47" "," "47");
  3470  F00060  32 31 31 31 30 30  	db	50,49,49,49,48,48,47,47	;#
      +       2F 2F              
  3471                           ;eeprom.h: 66: asm("\tpsect eeprom_data,class=EE
      +                          DATA"); asm("\tdb\t" "46" "," "46" "," "46" "," 
      +                          "45" "," "45" "," "44" "," "44" "," "44");
  3472  F00068  2E 2E 2E 2D 2D 2C  	db	46,46,46,45,45,44,44,44	;#
      +       2C 2C              
  3473                           ;eeprom.h: 67: asm("\tpsect eeprom_data,class=EE
      +                          DATA"); asm("\tdb\t" "43" "," "43" "," "42" "," 
      +                          "42" "," "41" "," "41" "," "41" "," "40");
  3474  F00070  2B 2B 2A 2A 29 29  	db	43,43,42,42,41,41,41,40	;#
      +       29 28              
  3475                           ;eeprom.h: 68: asm("\tpsect eeprom_data,class=EE
      +                          DATA"); asm("\tdb\t" "40" "," "39" "," "39" "," 
      +                          "38" "," "38" "," "37" "," "37" "," "37");
  3476  F00078  28 27 27 26 26 25  	db	40,39,39,38,38,37,37,37	;#
      +       25 25              
  3477                           ;eeprom.h: 69: asm("\tpsect eeprom_data,class=EE
      +                          DATA"); asm("\tdb\t" "36" "," "36" "," "35" "," 
      +                          "35" "," "34" "," "34" "," "33" "," "33");
  3478  F00080  24 24 23 23 22 22  	db	36,36,35,35,34,34,33,33	;#
      +       21 21              
  3479                           ;eeprom.h: 70: asm("\tpsect eeprom_data,class=EE
      +                          DATA"); asm("\tdb\t" "32" "," "32" "," "31" "," 
      +                          "31" "," "30" "," "30" "," "29" "," "29");
  3480  F00088  20 20 1F 1F 1E 1E  	db	32,32,31,31,30,30,29,29	;#
      +       1D 1D              
  3481                           ;eeprom.h: 71: asm("\tpsect eeprom_data,class=EE
      +                          DATA"); asm("\tdb\t" "28" "," "28" "," "27" "," 
      +                          "27" "," "26" "," "26" "," "25" "," "24");
  3482  F00090  1C 1C 1B 1B 1A 1A  	db	28,28,27,27,26,26,25,24	;#
      +       19 18              
  3483                           ;eeprom.h: 72: asm("\tpsect eeprom_data,class=EE
      +                          DATA"); asm("\tdb\t" "24" "," "23" "," "23" "," 
      +                          "22" "," "22" "," "21" "," "21" "," "20");
  3484  F00098  18 17 17 16 16 15  	db	24,23,23,22,22,21,21,20	;#
      +       15 14              
  3485                           ;eeprom.h: 73: asm("\tpsect eeprom_data,class=EE
      +                          DATA"); asm("\tdb\t" "19" "," "19" "," "18" "," 
      +                          "17" "," "17" "," "16" "," "16" "," "15");
  3486  F000A0  13 13 12 11 11 10  	db	19,19,18,17,17,16,16,15	;#
      +       10 0F              
  3487                           ;eeprom.h: 74: asm("\tpsect eeprom_data,class=EE
      +                          DATA"); asm("\tdb\t" "14" "," "14" "," "13" "," 
      +                          "12" "," "11" "," "11" "," "10" "," "09");
  3488  F000A8  0E 0E 0D 0C 0B 0B  	db	14,14,13,12,11,11,10,9	;#
      +       0A 09              
  3489                           ;eeprom.h: 75: asm("\tpsect eeprom_data,class=EE
      +                          DATA"); asm("\tdb\t" "08" "," "07" "," "06" "," 
      +                          "06" "," "05" "," "04" "," "03" "," "02");
  3490  F000B0  08 07 06 06 05 04  	db	8,7,6,6,5,4,3,2	;#
      +       03 02              
  3491                           ;eeprom.h: 76: asm("\tpsect eeprom_data,class=EE
      +                          DATA"); asm("\tdb\t" "01" "," "00" "," "00" "," 
      +                          "00" "," "00" "," "00" "," "00" "," "00");
  3492  F000B8  01 00 00 00 00 00  	db	1,0,0,0,0,0,0,0	;#
      +       00 00              
  3493                           ;eeprom.h: 106: asm("\tpsect eeprom_data,class=E
      +                          EDATA"); asm("\tdb\t" "0" "," "80" "," "99" "," 
      +                          "60" "," "0" "," "1" "," "00" "," "00");
  3494  F000C0  00 50 63 3C 00 01  	db	0,80,99,60,0,1,0,0	;#
      +       00 00              
  3495                           ;eeprom.h: 107: asm("\tpsect eeprom_data,class=E
      +                          EDATA"); asm("\tdb\t" "00" "," "00" "," "00" ","
      +                           "00" "," "00" "," "00" "," "00" "," "00");
  3496  F000C8  00 00 00 00 00 00  	db	0,0,0,0,0,0,0,0	;#
      +       00 00              
  3497                           ;eeprom.h: 111: asm("\tpsect eeprom_data,class=E
      +                          EDATA"); asm("\tdb\t" "40" "," "40" "," "39" ","
      +                           "38" "," "38" "," "37" "," "36" "," "36");
  3498  F000D0  28 28 27 26 26 25  	db	40,40,39,38,38,37,36,36	;#
      +       24 24              
  3499                           ;eeprom.h: 112: asm("\tpsect eeprom_data,class=E
      +                          EDATA"); asm("\tdb\t" "35" "," "34" "," "34" ","
      +                           "33" "," "33" "," "32" "," "32" "," "31");
  3500  F000D8  23 22 22 21 21 20  	db	35,34,34,33,33,32,32,31	;#
      +       20 1F              
  3501                           ;eeprom.h: 113: asm("\tpsect eeprom_data,class=E
      +                          EDATA"); asm("\tdb\t" "31" "," "30" "," "30" ","
      +                           "29" "," "29" "," "28" "," "28" "," "27");
  3502  F000E0  1F 1E 1E 1D 1D 1C  	db	31,30,30,29,29,28,28,27	;#
      +       1C 1B              
  3503                           ;eeprom.h: 114: asm("\tpsect eeprom_data,class=E
      +                          EDATA"); asm("\tdb\t" "27" "," "26" "," "26" ","
      +                           "25" "," "25" "," "24" "," "24" "," "23");
  3504  F000E8  1B 1A 1A 19 19 18  	db	27,26,26,25,25,24,24,23	;#
      +       18 17              
  3505                           ;eeprom.h: 115: asm("\tpsect eeprom_data,class=E
      +                          EDATA"); asm("\tdb\t" "23" "," "22" "," "22" ","
      +                           "22" "," "21" "," "21" "," "20" "," "20");
  3506  F000F0  17 16 16 16 15 15  	db	23,22,22,22,21,21,20,20	;#
      +       14 14              
  3507                           ;eeprom.h: 116: asm("\tpsect eeprom_data,class=E
      +                          EDATA"); asm("\tdb\t" "20" "," "19" "," "19" ","
      +                           "18" "," "18" "," "18" "," "17" "," "17");
  3508  F000F8  14 13 13 12 12 12  	db	20,19,19,18,18,18,17,17	;#
      +       11 11              
  3509                           ;eeprom.h: 117: asm("\tpsect eeprom_data,class=E
      +                          EDATA"); asm("\tdb\t" "17" "," "16" "," "16" ","
      +                           "15" "," "15" "," "15" "," "14" "," "14");
  3510  F00100  11 10 10 0F 0F 0F  	db	17,16,16,15,15,15,14,14	;#
      +       0E 0E              
  3511                           ;eeprom.h: 118: asm("\tpsect eeprom_data,class=E
      +                          EDATA"); asm("\tdb\t" "14" "," "13" "," "13" ","
      +                           "13" "," "12" "," "12" "," "12" "," "11");
  3512  F00108  0E 0D 0D 0D 0C 0C  	db	14,13,13,13,12,12,12,11	;#
      +       0C 0B              
  3513                           ;eeprom.h: 119: asm("\tpsect eeprom_data,class=E
      +                          EDATA"); asm("\tdb\t" "11" "," "11" "," "10" ","
      +                           "10" "," "10" "," "9" "," "9" "," "9");
  3514  F00110  0B 0B 0A 0A 0A 09  	db	11,11,10,10,10,9,9,9	;#
      +       09 09              
  3515                           ;eeprom.h: 120: asm("\tpsect eeprom_data,class=E
      +                          EDATA"); asm("\tdb\t" "8" "," "8" "," "8" "," "7
      +                          " "," "7" "," "7" "," "6" "," "6");
  3516  F00118  08 08 08 07 07 07  	db	8,8,8,7,7,7,6,6	;#
      +       06 06              
  3517                           ;eeprom.h: 121: asm("\tpsect eeprom_data,class=E
      +                          EDATA"); asm("\tdb\t" "6" "," "5" "," "5" "," "5
      +                          " "," "4" "," "4" "," "4" "," "3");
  3518  F00120  06 05 05 05 04 04  	db	6,5,5,5,4,4,4,3	;#
      +       04 03              
  3519                           ;eeprom.h: 122: asm("\tpsect eeprom_data,class=E
      +                          EDATA"); asm("\tdb\t" "3" "," "3" "," "2" "," "2
      +                          " "," "2" "," "1" "," "1" "," "1");
  3520  F00128  03 03 02 02 02 01  	db	3,3,2,2,2,1,1,1	;#
      +       01 01              
  3521                           ;eeprom.h: 123: asm("\tpsect eeprom_data,class=E
      +                          EDATA"); asm("\tdb\t" "1" "," "0" "," "0" "," "0
      +                          " "," "-1" "," "-1" "," "-1" "," "-2");
  3522  F00130  01 00 00 00 FF FF  	db	1,0,0,0,-1,-1,-1,-2	;#
      +       FF FE              
  3523                           ;eeprom.h: 124: asm("\tpsect eeprom_data,class=E
      +                          EDATA"); asm("\tdb\t" "-2" "," "-2" "," "-2" ","
      +                           "-3" "," "-3" "," "-3" "," "-4" "," "-4");
  3524  F00138  FE FE FE FD FD FD  	db	-2,-2,-2,-3,-3,-3,-4,-4	;#
      +       FC FC              
  3525                           ;eeprom.h: 125: asm("\tpsect eeprom_data,class=E
      +                          EDATA"); asm("\tdb\t" "-4" "," "-5" "," "-5" ","
      +                           "-5" "," "-6" "," "-6" "," "-6" "," "-7");
  3526  F00140  FC FB FB FB FA FA  	db	-4,-5,-5,-5,-6,-6,-6,-7	;#
      +       FA F9              
  3527                           ;eeprom.h: 126: asm("\tpsect eeprom_data,class=E
      +                          EDATA"); asm("\tdb\t" "-7" "," "-7" "," "-8" ","
      +                           "-8" "," "-8" "," "-9" "," "-9" "," "-9");
  3528  F00148  F9 F9 F8 F8 F8 F7  	db	-7,-7,-8,-8,-8,-9,-9,-9	;#
      +       F7 F7              
  3529                           ;eeprom.h: 127: asm("\tpsect eeprom_data,class=E
      +                          EDATA"); asm("\tdb\t" "-9" "," "-10" "," "-10" "
      +                          ," "-10" "," "-11" "," "-11" "," "-11" "," "-12"
      +                          );
  3530  F00150  F7 F6 F6 F6 F5 F5  	db	-9,-10,-10,-10,-11,-11,-11,-12	;#
      +       F5 F4              
  3531                           ;eeprom.h: 128: asm("\tpsect eeprom_data,class=E
      +                          EDATA"); asm("\tdb\t" "-12" "," "-13" "," "-13" 
      +                          "," "-13" "," "-13" "," "-14" "," "-14" "," "-14
      +                          ");
  3532  F00158  F4 F3 F3 F3 F3 F2  	db	-12,-13,-13,-13,-13,-14,-14,-14	;#
      +       F2 F2              
  3533                           ;eeprom.h: 129: asm("\tpsect eeprom_data,class=E
      +                          EDATA"); asm("\tdb\t" "-15" "," "-15" "," "-16" 
      +                          "," "-16" "," "-16" "," "-17" "," "-17" "," "-17
      +                          ");
  3534  F00160  F1 F1 F0 F0 F0 EF  	db	-15,-15,-16,-16,-16,-17,-17,-17	;#
      +       EF EF              
  3535                           ;eeprom.h: 130: asm("\tpsect eeprom_data,class=E
      +                          EDATA"); asm("\tdb\t" "-18" "," "-18" "," "-18" 
      +                          "," "-19" "," "-19" "," "-20" "," "-20" "," "-20
      +                          ");
  3536  F00168  EE EE EE ED ED EC  	db	-18,-18,-18,-19,-19,-20,-20,-20	;#
      +       EC EC              
  3537                           ;eeprom.h: 131: asm("\tpsect eeprom_data,class=E
      +                          EDATA"); asm("\tdb\t" "-21" "," "-21" "," "-22" 
      +                          "," "-22" "," "-22" "," "-23" "," "-23" "," "-24
      +                          ");
  3538  F00170  EB EB EA EA EA E9  	db	-21,-21,-22,-22,-22,-23,-23,-24	;#
      +       E9 E8              
  3539                           ;eeprom.h: 132: asm("\tpsect eeprom_data,class=E
      +                          EDATA"); asm("\tdb\t" "-24" "," "-25" "," "-25" 
      +                          "," "-25" "," "-26" "," "-26" "," "-27" "," "-27
      +                          ");
  3540  F00178  E8 E7 E7 E7 E6 E6  	db	-24,-25,-25,-25,-26,-26,-27,-27	;#
      +       E5 E5              
  3541                           ;eeprom.h: 133: asm("\tpsect eeprom_data,class=E
      +                          EDATA"); asm("\tdb\t" "-28" "," "-28" "," "-29" 
      +                          "," "-29" "," "-30" "," "-30" "," "-31" "," "-31
      +                          ");
  3542  F00180  E4 E4 E3 E3 E2 E2  	db	-28,-28,-29,-29,-30,-30,-31,-31	;#
      +       E1 E1              
  3543                           ;eeprom.h: 134: asm("\tpsect eeprom_data,class=E
      +                          EDATA"); asm("\tdb\t" "-32" "," "-33" "," "-33" 
      +                          "," "-34" "," "-35" "," "-35" "," "-36" "," "-37
      +                          ");
  3544  F00188  E0 DF DF DE DD DD  	db	-32,-33,-33,-34,-35,-35,-36,-37	;#
      +       DC DB              
  3545                           ;eeprom.h: 135: asm("\tpsect eeprom_data,class=E
      +                          EDATA"); asm("\tdb\t" "-37" "," "-38" "," "-39" 
      +                          "," "-40" "," "-40" "," "-40" "," "-40" "," "-40
      +                          ");
  3546  F00190  DB DA D9 D8 D8 D8  	db	-37,-38,-39,-40,-40,-40,-40,-40	;#
      +       D8 D8              
  3547                           
  3548                           	psect	bigbss
  3549  000EF0                     _t:
  3550  000EF0                     	ds	1
  3551  000EF0                     _ty:
  3552  000EF0                     	ds	1
  3553  000EF0                     _x:
  3554  000EF0                     	ds	1
  3555  000EF0                     _y:
  3556  000EF0                     	ds	1
  3557  000000                     
  3558  000000                     
  3559  000000                     
  3560  000000                     
  3561  000000                     
  3562  000000                     
  3563  000000                     
  3564                           
  3565                           	psect	bss
  3566  000100                     _M:
  3567  000100                     	ds	46
  3568                           
  3569                           	psect	temp
  3570  000000                     btemp:
  3571  000000                     	ds	2
  3572                           intcon	equ	0xFF2
  3573                           indf0	equ	0xFEF
  3574                           postinc0	equ	0xFEE
  3575                           wreg	equ	0xFE8
  3576                           fsr2l	equ	0xFD9
  3577                           status	equ	0xFD8


HI-TECH Software PICC-18 Macro Assembler V9.51PL3
Symbol Table                                           Wed Jun 11 12:30:08 2014

         _KolejkaPobudzen 5988        __end_of_ReloadCiag 644C  
                       _M 0100                  _PomiarCW 7234  
                       _t 0EF0                         _x 0EF2  
                       _y 0EF3                  _PrintOFF 8566  
                _PrintErr 8342                 _SetWylacz 5D66  
                      l30 587E                        l31 587A  
                      l32 5874                        l33 5864  
                      l50 59AA                        l34 583A  
                      l35 5848                        l27 57F0  
                      l60 5A66                        l36 5856  
                      l28 5800                        l61 5A8A  
                      l53 59CE                        l29 5810  
                      l70 5AE4                        l62 5A7A  
                      l71 5AD4                        l63 5A84  
                      l39 5898                        l80 5B46  
                      l72 5ADE                        l64 5B16  
                      l56 59E2                        l65 5AB4  
                      l57 59FE                        l49 59B4  
                      l90 5BC8                        l74 5B12  
                      l66 5A9E                        l75 5B02  
                      l67 5AAE                        l76 5B0C  
                      l94 5C38                        l86 5B8C  
                      l78 5B64                        l95 5C5C  
                      l79 5B4E                        l88 5C0C  
       __end_of_SetWylacz 5D88                        u30 57DE  
                      u60 5808                 _PomiarPCW 72F6  
                      _ty 0EF1                 ?_PrintErr 00F1  
                _StartRTM 8AA4                  _StartRTS 8A68  
              _SetRozruch 5D04        __end_of_SetRozruch 5D12  
                _RuszCiag 6270                       l101 5C60  
                     l102 5C94                       l111 5CF2  
                     l103 5C8C                       l120 5D30  
                     l105 5CAC                       l130 5D74  
                     l300 6560                       l220 61EA  
                     l212 61A2                       l204 61D6  
                     l132 5DA2                       l124 5D54  
                     l221 61F6                       l213 61BC  
                     l205 614A                       l206 615A  
                     l150 5EB2                       l142 5E1A  
                     l223 6218                       l207 616C  
                     l143 5E44                       l135 5E6A  
                     l240 628E                       l208 6186  
                     l160 5F06                       l136 5DBA  
                     l305 659C                       l241 62A0  
                     l161 5F30                       l250 6310  
                     l170 5FC4                       l154 604C  
                     l146 5E52                       l138 5DDA  
                     l251 6322                       l243 62D0  
                     l219 623C                       l171 5FCC  
                     l155 5EB8                       l139 5E14  
                     l260 63BA                       l228 622E  
                     l164 5F3C                       l156 5ED0  
                     l261 63C4                       l229 6222  
                     l173 6000                       l165 5F52  
                     l157 5EFC                       l270 6502  
                     l254 6348                       l246 63E4  
                     l238 62DE                       l182 608A  
                     l166 5F82                       l158 5EFA  
                     l271 64E2                       l255 635A  
                     l247 62EC                       l239 6278  
                     l272 644E                       l264 641E  
                     l248 6308                       l176 6002  
                     l168 5F9C                       l281 649A  
                     l177 6018                       l169 5FB2  
                     l258 6388                       l194 60FC  
                     l186 6114                       l283 649E  
                     l275 645E                       l267 6430  
                     l187 60DC                       l179 6032  
                     l293 650C                       l285 64AA  
                     l277 646A                       l189 60C4  
                     l287 64C0                       l279 6480  
                     l199 6130                       l288 64DE  
                     l297 6544                       l289 64DA  
                     l298 655C                       u130 58A8  
                     u131 58A4                       u140 58AA  
                     u310 5A42                       u311 5A3E  
                     u320 5A44                       u811 5BD4  
                     u741 5BA8                       u830 5BF2  
                _WritePCW 72C8                       u790 5BB4  
                     _PWM 005C                       _RTM 8AC8  
                     _RTS 8A8C                  _WritePWM 7D1C  
                __config1 0030FF                  __config2 00EFEF  
                __config3 007DFF                  __config4 00FFFB  
                __config5 00FFF0                  __config6 00DFF0  
                     wreg 000FE8                 _StartRTdS 8A2C  
           ?_eeprom_write 00F1                _RestartMod 4252  
           _ReloadPlomien 624A                _PrintNstCW 84E6  
              _PwrOnDelay 950E                      u1010 5C74  
                    u1050 5C84               _DecyzjaPLM2 609E  
                    u2210 617A                      u1330 5D20  
                    u1530 5D94                      u2280 61B0  
                    u2690 6456                      _DtCW 014C  
                    _RTdS 8A50       __end_of_DecyzjaPLM2 6148  
                    _main 57B0     __end_of_ReloadPlomien 6270  
                    indf0 000FEF                      fsr2l 000FD9  
__end_of_FunkcjaSerwisowa 5E80                      btemp 0000  
         __end_of_VZPauza 6520               ?_PrintNstCW 00F0  
                    start 0010           __end_of_GrzejON 5E96  
         __end_of_VWybieg 61E8           __end_of_ToReset 659E  
                 ?_SetPrt 00F0           __end_of_Rozruch 6072  
 __end_of_KolejkaPobudzen 59D8                     _DtKNF 015B  
                   _RdPrt 828E                used_btemp0 0001  
              used_btemp1 0001               _eeprom_read 952A  
              _DecRozruch 5CCC                     status 000FD8  
      __end_of_DecRozruch 5D04                   _VZPauza 6506  
                 _InitI2C 65A6                   _InitPWM 7BE6  
                 _InitOsc 9592          __end_of_GrzejOFF 5EB6  
                 _InitWsw 4270                  ?a_DecERR 00F0  
                 _GrzejON 5E80          __end_of_SetLoMod 5CCC  
                 _VWybieg 6148                   _Moduluj 10C4  
                 _ToReset 658C                   __Lparam 00F0  
                 _PrintCW 85A6                   _TestScr 8634  
                 _PrintPR 8414                  ?_PrintCW 00F0  
                ?_PrintPR 00F1                   _Rozruch 5EB6  
            ?_eeprom_read 00F5          _FunkcjaSerwisowa 5D88  
                 __ramtop 1000            __end_of_DecERR 5C24  
        __end_of_RuszCiag 63FE            __end_of_DecSTR 5CC2  
          __end_of_DecWSW 5A1C                _DecyzjaPLM 6072  
      __end_of_DecyzjaPLM 609E                _EndTestScr 8666  
          __end_of_ErrPTG 658C            __end_of_KeyRes 6506  
        _FiltrPomiarowyCW 720A               _InitDataPmr 6F36  
            __end_of_main 590E                    _DecERR 5A1C  
                  _DecSTR 5C24                    _DecWSW 59D8  
                  _EndOFF 8592                    _EnKonf 7812  
             _RuszPlomien 61E8                    _EndErr 840C  
                  _ClsScr 8334                    _ErrPTG 6520  
               _DecWylacz 5D12                    _InitAC 8CA4  
       __end_of_DecWylacz 5D66                    _KeyRes 644C  
     __end_of_RuszPlomien 624A                 _RdEEParam 7B58  
                  _SetPrt 82B0                 _EndClsScr 8338  
               _ClearData 590E         __end_of_ClearData 597E  
                 postinc0 000FEE                _InitGlobal 659E  
      __end_of_InitGlobal 65A6                _InitTimer1 948C  
            _eeprom_write 9402                 _FirstPCW4 22FE  
           _MKonfiguracja 7854             _RestartFltPrt 597E  
                _InitPort 812C                  _GrzejOFF 5E96  
   __end_of_RestartFltPrt 5988                  _SetLoMod 5CC2  
              _ReloadCiag 63FE  
